                                      1 ;--------------------------------------------------------
                                      2 ; File Created by SDCC : free open source ANSI-C Compiler
                                      3 ; Version 4.2.0 #13081 (MINGW64)
                                      4 ;--------------------------------------------------------
                                      5 	.module akg_player
                                      6 	.optsdcc -mz80
                                      7 	
                                      8 ;--------------------------------------------------------
                                      9 ; Public variables in this module
                                     10 ;--------------------------------------------------------
                                     11 	.globl _AKG_Dummy
                                     12 	.globl _g_AKG_Playing
                                     13 	.globl _g_AKG_EndOfSong
                                     14 	.globl _AKG_Init
                                     15 	.globl _AKG_Stop
                                     16 	.globl _AKG_Decode
                                     17 	.globl _AKG_InitSFX
                                     18 	.globl _AKG_PlaySFX
                                     19 	.globl _AKG_StopSFX
                                     20 ;--------------------------------------------------------
                                     21 ; special function registers
                                     22 ;--------------------------------------------------------
                                     23 ;--------------------------------------------------------
                                     24 ; ram data
                                     25 ;--------------------------------------------------------
                                     26 	.area _DATA
    00000000                         27 _g_AKG_EndOfSong::
    00000000                         28 	.ds 1
                                     29 ;--------------------------------------------------------
                                     30 ; ram data
                                     31 ;--------------------------------------------------------
                                     32 	.area _INITIALIZED
    00000000                         33 _g_AKG_Playing::
    00000000                         34 	.ds 1
                                     35 ;--------------------------------------------------------
                                     36 ; absolute external ram data
                                     37 ;--------------------------------------------------------
                                     38 	.area _DABS (ABS)
                                     39 ;--------------------------------------------------------
                                     40 ; global & static initialisations
                                     41 ;--------------------------------------------------------
                                     42 	.area _HOME
                                     43 	.area _GSINIT
                                     44 	.area _GSFINAL
                                     45 	.area _GSINIT
                                     46 ;--------------------------------------------------------
                                     47 ; Home
                                     48 ;--------------------------------------------------------
                                     49 	.area _HOME
                                     50 	.area _HOME
                                     51 ;--------------------------------------------------------
                                     52 ; code
                                     53 ;--------------------------------------------------------
                                     54 	.area _CODE
                                     55 ;C:\Users\reina\OneDrive\Documentos\MSXgl\engine/src/arkos/akg_player.c:20: void AKG_Dummy()
                                     56 ;	---------------------------------
                                     57 ; Function AKG_Dummy
                                     58 ; ---------------------------------
    00000000                         59 _AKG_Dummy::
                                     60 ;C:\Users\reina\OneDrive\Documentos\MSXgl\engine/src/arkos/akg_player.c:2250: ERROR: no line number 2250 in file C:\Users\reina\OneDrive\Documentos\MSXgl\engine/src/arkos/akg_player.c
                                     61 ;	#	1 "C:\\Users\\reina\\OneDrive\\Documentos\\MSXgl\\engine/src/arkos/akg_player.asm" 1
                                     62 ;	____________________________
                                     63 ;	██▀▀█▀▀██▀▀▀▀▀▀▀█▀▀█ │ ▄▄ ▄▄
                                     64 ;	██ ▀ █▄ ▀██▄ ▀ ▄█ ▄▀▀ █ │ ██▄█ ██▄▀ ██▄▀ ▄█▀▄ ██▀
                                     65 ;	█ █ █ ▀▀ ▄█ █ █ ▀▄█ █▄ │ ██ █ ██ ██ █ ▀█▄▀ ▄██
                                     66 ;	▀▀▀▀▀▀▀▀▀▀▀▀▀▀▀▀▀▀▀▀────────┘
                                     67 ;	by Guillaume 'Aoineko' Blanchard under CC BY-SA license
                                     68 ;==============================================================================
                                     69 ;	Autogenerated Arkos AKG player for MSX-GL library
                                     70 ;	on 10/02/2023 at 0:02:36, 44
                                     71 ;
                                     72 ;	Arkos Tracker and the Z80 players are coded and designed
                                     73 ;	by Julien Névo (aka Targhan/Arkos) under MIT License.
                                     74 ;==============================================================================
                         00000001    75 	PLY_AKG_FULL_INIT_CODE	= .+1
                         00000001    76 	PLY_AKG_STOP_SOUNDS	= .+1
                         00000002    77 	PLY_AKG_BITFORSOUND	= .+2
                         00000002    78 	PLY_AKG_SOUNDEFFECTDATA_OFFSETINVERTEDVOLUME	= .+2
    00000000                         79 	PLY_AKG_START:
    00000000                         80 	_PLY_AKG_INITSOUNDEFFECTS::
    00000000                         81 	PLY_AKG_INITSOUNDEFFECTS:
    00000000                         82 	PLY_AKG_OFFSET2B:
    00000000                         83 	PLY_AKG_OFFSET1B:
    00000000                         84 	PLY_AKG_USE_HOOKS:
    00000000                         85 	PLY_AKG_OPCODE_OR_A:
    00000000                         86 	PLY_AKG_OPCODE_ADD_HL_BC_MSB:
    00000000 22 FA F0         [16]   87 	ld	(PLY_AKG_PTSOUNDEFFECTTABLE), hl
    00000003                         88 	PLY_AKG_SOUNDEFFECTDATA_OFFSETCURRENTSTEP:
    00000003 C9               [10]   89 	ret
    00000004                         90 	_PLY_AKG_PLAYSOUNDEFFECT::
    00000004                         91 	PLY_AKG_PLAYSOUNDEFFECT:
    00000004                         92 	PLY_AKG_SOUNDEFFECTDATA_OFFSETSPEED:
    00000004 3D               [ 4]   93 	dec	a
    00000005                         94 	PLY_AKG_BITFORNOISE:
    00000005 2A FA F0         [16]   95 	ld	hl, (PLY_AKG_PTSOUNDEFFECTTABLE)
    00000008 5F               [ 4]   96 	ld	e, a
    00000009                         97 	PLY_AKG_OPCODE_ADD_HL_BC_LSB:
    00000009 16 00            [ 7]   98 	ld	d, #0x0
    0000000B 19               [11]   99 	add	hl, de
    0000000C 19               [11]  100 	add	hl, de
    0000000D 5E               [ 7]  101 	ld	e, (hl)
    0000000E 23               [ 6]  102 	inc	hl
    0000000F 56               [ 7]  103 	ld	d, (hl)
    00000010 1A               [ 7]  104 	ld	a, (de)
    00000011 13               [ 6]  105 	inc	de
    00000012 08               [ 4]  106 	ex	af, af';'
    00000013 78               [ 4]  107 	ld	a, b
    00000014 21 FC F0         [10]  108 	ld	hl, #PLY_AKG_CHANNEL1_SOUNDEFFECTDATA
    00000017 06 00            [ 7]  109 	ld	b, #0x0
    00000019 CB 21            [ 8]  110 	sla	c
    0000001B CB 21            [ 8]  111 	sla	c
    0000001D CB 21            [ 8]  112 	sla	c
    0000001F 09               [11]  113 	add	hl, bc
    00000020 73               [ 7]  114 	ld	(hl), e
    00000021 23               [ 6]  115 	inc	hl
    00000022 72               [ 7]  116 	ld	(hl), d
    00000023                        117 	PLY_AKG_OPCODE_INC_HL:
    00000023 23               [ 6]  118 	inc	hl
    00000024 77               [ 7]  119 	ld	(hl), a
    00000025 23               [ 6]  120 	inc	hl
    00000026 36 00            [10]  121 	ld	(hl), #0x0
    00000028 23               [ 6]  122 	inc	hl
    00000029 08               [ 4]  123 	ex	af, af';'
    0000002A 77               [ 7]  124 	ld	(hl), a
    0000002B                        125 	PLY_AKG_OPCODE_DEC_HL:
    0000002B C9               [10]  126 	ret
    0000002C                        127 	_PLY_AKG_STOPSOUNDEFFECTFROMCHANNEL::
    0000002C                        128 	PLY_AKG_STOPSOUNDEFFECTFROMCHANNEL:
    0000002C 87               [ 4]  129 	add	a, a
    0000002D 87               [ 4]  130 	add	a, a
    0000002E 87               [ 4]  131 	add	a, a
    0000002F 5F               [ 4]  132 	ld	e, a
    00000030 16 00            [ 7]  133 	ld	d, #0x0
    00000032 21 FC F0         [10]  134 	ld	hl, #PLY_AKG_CHANNEL1_SOUNDEFFECTDATA
    00000035 19               [11]  135 	add	hl, de
    00000036 72               [ 7]  136 	ld	(hl), d
    00000037 23               [ 6]  137 	inc	hl
    00000038 72               [ 7]  138 	ld	(hl), d
    00000039 C9               [10]  139 	ret
    0000003A                        140 	PLY_AKG_PLAYSOUNDEFFECTSSTREAM:
    0000003A 17               [ 4]  141 	rla
    0000003B 17               [ 4]  142 	rla
    0000003C DD 21 FC F0      [14]  143 	ld	ix, #PLY_AKG_CHANNEL1_SOUNDEFFECTDATA
                         00000042   144 	PLY_AKG_OPCODE_SBC_HL_BC_LSB	= .+2
    00000040 FD 21 24 F0      [14]  145 	ld	iy, #PLY_AKG_PSGREG8
    00000044 21 1D F0         [10]  146 	ld	hl, #PLY_AKG_PSGREG01_INSTR
    00000047 D9               [ 4]  147 	exx
    00000048 4F               [ 4]  148 	ld	c, a
    00000049 CDr73r00         [17]  149 	call	PLY_AKG_PSES_PLAY
    0000004C DD 21 04 F1      [14]  150 	ld	ix, #PLY_AKG_CHANNEL2_SOUNDEFFECTDATA
    00000050 FD 21 25 F0      [14]  151 	ld	iy, #PLY_AKG_PSGREG9_10_INSTR
    00000054 D9               [ 4]  152 	exx
    00000055 21 1F F0         [10]  153 	ld	hl, #PLY_AKG_PSGREG23_INSTR
    00000058 D9               [ 4]  154 	exx
    00000059 CB 39            [ 8]  155 	srl	c
    0000005B CDr73r00         [17]  156 	call	PLY_AKG_PSES_PLAY
    0000005E DD 21 0C F1      [14]  157 	ld	ix, #PLY_AKG_CHANNEL3_SOUNDEFFECTDATA
    00000062 FD 21 26 F0      [14]  158 	ld	iy, #PLY_AKG_PSGREG10
    00000066 D9               [ 4]  159 	exx
    00000067 21 21 F0         [10]  160 	ld	hl, #PLY_AKG_PSGREG45_INSTR
    0000006A D9               [ 4]  161 	exx
    0000006B 37               [ 4]  162 	scf
    0000006C CB 19            [ 8]  163 	rr	c
    0000006E CDr73r00         [17]  164 	call	PLY_AKG_PSES_PLAY
    00000071 79               [ 4]  165 	ld	a, c
    00000072 C9               [10]  166 	ret
    00000073                        167 	PLY_AKG_PSES_PLAY:
    00000073 DD 6E 00         [19]  168 	ld	l, +0(ix)
    00000076 DD 66 01         [19]  169 	ld	h, +1(ix)
    00000079 7D               [ 4]  170 	ld	a, l
    0000007A B4               [ 4]  171 	or	h
    0000007B C8               [11]  172 	ret	z
    0000007C                        173 	PLY_AKG_PSES_READFIRSTBYTE:
    0000007C 7E               [ 7]  174 	ld	a, (hl)
    0000007D 23               [ 6]  175 	inc	hl
    0000007E 47               [ 4]  176 	ld	b, a
    0000007F 1F               [ 4]  177 	rra
    00000080 38 41            [12]  178 	jr	c, PLY_AKG_PSES_SOFTWAREORSOFTWAREANDHARDWARE
    00000082 1F               [ 4]  179 	rra
    00000083 38 37            [12]  180 	jr	c, PLY_AKG_PSES_HARDWAREONLY
    00000085 1F               [ 4]  181 	rra
    00000086 38 0C            [12]  182 	jr	c, PLY_AKG_PSES_S_ENDORLOOP
    00000088 CDr21r01         [17]  183 	call	PLY_AKG_PSES_MANAGEVOLUMEFROMA_FILTER4BITS
    0000008B CB 10            [ 8]  184 	rl	b
    0000008D CDrFDr00         [17]  185 	call	PLY_AKG_PSES_READNOISEIFNEEDEDANDOPENORCLOSENOISECHANNEL
    00000090 CB D1            [ 8]  186 	set	2, c
    00000092 18 11            [12]  187 	jr	PLY_AKG_PSES_SAVEPOINTERANDEXIT
    00000094                        188 	PLY_AKG_PSES_S_ENDORLOOP:
    00000094 1F               [ 4]  189 	rra
    00000095 38 08            [12]  190 	jr	c, PLY_AKG_PSES_S_LOOP
    00000097 AF               [ 4]  191 	xor	a
    00000098 DD 77 00         [19]  192 	ld	+0(ix), a
    0000009B DD 77 01         [19]  193 	ld	+1(ix), a
    0000009E C9               [10]  194 	ret
    0000009F                        195 	PLY_AKG_PSES_S_LOOP:
    0000009F 7E               [ 7]  196 	ld	a, (hl)
    000000A0 23               [ 6]  197 	inc	hl
    000000A1 66               [ 7]  198 	ld	h, (hl)
    000000A2 6F               [ 4]  199 	ld	l, a
    000000A3 18 D7            [12]  200 	jr	PLY_AKG_PSES_READFIRSTBYTE
    000000A5                        201 	PLY_AKG_PSES_SAVEPOINTERANDEXIT:
    000000A5 DD 7E 03         [19]  202 	ld	a, +3(ix)
    000000A8 DD BE 04         [19]  203 	cp	+4(ix)
    000000AB 38 0B            [12]  204 	jr	c, PLY_AKG_PSES_NOTREACHED
    000000AD DD 36 03 00      [19]  205 	ld	+3(ix), #0x0
    000000B1 DD                     206 	.db	0xdd
    000000B2 75                     207 	.db	0x75
    000000B3 00                     208 	.db	0x0
    000000B4 DD                     209 	.db	0xdd
    000000B5 74                     210 	.db	0x74
    000000B6 01                     211 	.db	0x1
    000000B7 C9               [10]  212 	ret
    000000B8                        213 	PLY_AKG_PSES_NOTREACHED:
    000000B8 DD 34 03         [23]  214 	inc	+3(ix)
    000000BB C9               [10]  215 	ret
    000000BC                        216 	PLY_AKG_PSES_HARDWAREONLY:
    000000BC CDrDFr00         [17]  217 	call	PLY_AKG_PSES_SHARED_READRETRIGHARDWAREENVPERIODNOISE
    000000BF CB D1            [ 8]  218 	set	2, c
    000000C1 18 E2            [12]  219 	jr	PLY_AKG_PSES_SAVEPOINTERANDEXIT
    000000C3                        220 	PLY_AKG_PSES_SOFTWAREORSOFTWAREANDHARDWARE:
    000000C3                        221 	PLY_AKG_OPCODE_JP:
    000000C3 1F               [ 4]  222 	rra
    000000C4 38 0F            [12]  223 	jr	c, PLY_AKG_PSES_SOFTWAREANDHARDWARE
    000000C6                        224 	PLY_AKG_OPCODE_ADD_A_IMMEDIATE:
    000000C6 CDr21r01         [17]  225 	call	PLY_AKG_PSES_MANAGEVOLUMEFROMA_FILTER4BITS
    000000C9 CB 10            [ 8]  226 	rl	b
    000000CB CDrFDr00         [17]  227 	call	PLY_AKG_PSES_READNOISEIFNEEDEDANDOPENORCLOSENOISECHANNEL
    000000CE CB 91            [ 8]  228 	res	2, c
    000000D0 CDr15r01         [17]  229 	call	PLY_AKG_PSES_READSOFTWAREPERIOD
    000000D3 18 D0            [12]  230 	jr	PLY_AKG_PSES_SAVEPOINTERANDEXIT
                         000000D6   231 	PLY_AKG_OPCODE_SUB_IMMEDIATE	= .+1
    000000D5                        232 	PLY_AKG_PSES_SOFTWAREANDHARDWARE:
    000000D5 CDrDFr00         [17]  233 	call	PLY_AKG_PSES_SHARED_READRETRIGHARDWAREENVPERIODNOISE
    000000D8 CDr15r01         [17]  234 	call	PLY_AKG_PSES_READSOFTWAREPERIOD
    000000DB CB 91            [ 8]  235 	res	2, c
    000000DD 18 C6            [12]  236 	jr	PLY_AKG_PSES_SAVEPOINTERANDEXIT
    000000DF                        237 	PLY_AKG_PSES_SHARED_READRETRIGHARDWAREENVPERIODNOISE:
    000000DF 1F               [ 4]  238 	rra
    000000E0 30 07            [12]  239 	jr	nc, PLY_AKG_PSES_H_AFTERRETRIG
    000000E2 57               [ 4]  240 	ld	d, a
    000000E3 3E FF            [ 7]  241 	ld	a, #0xff
    000000E5 32 07 F0         [13]  242 	ld	(PLY_AKG_PSGREG13_OLDVALUE), a
    000000E8 7A               [ 4]  243 	ld	a, d
    000000E9                        244 	PLY_AKG_PSES_H_AFTERRETRIG:
    000000E9 E6 07            [ 7]  245 	and	#0x7
    000000EB C6 08            [ 7]  246 	add	a, #0x8
    000000ED                        247 	PLY_AKG_OPCODE_SBC_HL_BC_MSB:
    000000ED 32 08 F0         [13]  248 	ld	(PLY_AKG_PSGREG13_INSTR), a
    000000F0 CB 10            [ 8]  249 	rl	b
    000000F2 CDrFDr00         [17]  250 	call	PLY_AKG_PSES_READNOISEIFNEEDEDANDOPENORCLOSENOISECHANNEL
    000000F5 CDr0Ar01         [17]  251 	call	PLY_AKG_PSES_READHARDWAREPERIOD
    000000F8 3E 10            [ 7]  252 	ld	a, #0x10
    000000FA C3r23r01         [10]  253 	jp	PLY_AKG_PSES_MANAGEVOLUMEFROMA_HARD
    000000FD                        254 	PLY_AKG_PSES_READNOISEIFNEEDEDANDOPENORCLOSENOISECHANNEL:
    000000FD 38 03            [12]  255 	jr	c, PLY_AKG_PSES_READNOISEANDOPENNOISECHANNEL_OPENNOISE
    000000FF                        256 	PLY_AKG_OPCODE_SCF:
    000000FF CB E9            [ 8]  257 	set	5, c
    00000101 C9               [10]  258 	ret
    00000102                        259 	PLY_AKG_PSES_READNOISEANDOPENNOISECHANNEL_OPENNOISE:
    00000102 7E               [ 7]  260 	ld	a, (hl)
    00000103 32 23 F0         [13]  261 	ld	(PLY_AKG_PSGREG6_8_INSTR), a
    00000106 23               [ 6]  262 	inc	hl
    00000107 CB A9            [ 8]  263 	res	5, c
    00000109 C9               [10]  264 	ret
    0000010A                        265 	PLY_AKG_PSES_READHARDWAREPERIOD:
    0000010A 7E               [ 7]  266 	ld	a, (hl)
    0000010B 32 27 F0         [13]  267 	ld	(PLY_AKG_PSGHARDWAREPERIOD_INSTR), a
    0000010E 23               [ 6]  268 	inc	hl
    0000010F 7E               [ 7]  269 	ld	a, (hl)
    00000110 32 28 F0         [13]  270 	ld	(PLY_AKG_PSGHARDWAREPERIOD_INSTR+1), a
    00000113 23               [ 6]  271 	inc	hl
    00000114 C9               [10]  272 	ret
    00000115                        273 	PLY_AKG_PSES_READSOFTWAREPERIOD:
    00000115 7E               [ 7]  274 	ld	a, (hl)
    00000116 23               [ 6]  275 	inc	hl
    00000117 D9               [ 4]  276 	exx
    00000118 77               [ 7]  277 	ld	(hl), a
    00000119 23               [ 6]  278 	inc	hl
    0000011A D9               [ 4]  279 	exx
    0000011B 7E               [ 7]  280 	ld	a, (hl)
    0000011C 23               [ 6]  281 	inc	hl
    0000011D D9               [ 4]  282 	exx
    0000011E 77               [ 7]  283 	ld	(hl), a
    0000011F D9               [ 4]  284 	exx
    00000120 C9               [10]  285 	ret
    00000121                        286 	PLY_AKG_PSES_MANAGEVOLUMEFROMA_FILTER4BITS:
    00000121 E6 0F            [ 7]  287 	and	#0xf
    00000123                        288 	PLY_AKG_PSES_MANAGEVOLUMEFROMA_HARD:
    00000123 DD 96 02         [19]  289 	sub	+2(ix)
    00000126 30 01            [12]  290 	jr	nc, PLY_AKG_PSES_MVFA_NOOVERFLOW
    00000128 AF               [ 4]  291 	xor	a
    00000129                        292 	PLY_AKG_PSES_MVFA_NOOVERFLOW:
    00000129 FD 77 00         [19]  293 	ld	+0(iy), a
    0000012C C9               [10]  294 	ret
    0000012D                        295 	_PLY_AKG_INIT::
    0000012D                        296 	PLY_AKG_INIT:
    0000012D 11 04 00         [10]  297 	ld	de, #0x4
    00000130 19               [11]  298 	add	hl, de
    00000131 11 11 F0         [10]  299 	ld	de, #PLY_AKG_ARPEGGIOSTABLE
    00000134 ED A0            [16]  300 	ldi
    00000136 ED A0            [16]  301 	ldi
    00000138 11 13 F0         [10]  302 	ld	de, #PLY_AKG_PITCHESTABLE
    0000013B ED A0            [16]  303 	ldi
    0000013D ED A0            [16]  304 	ldi
    0000013F 11 15 F0         [10]  305 	ld	de, #PLY_AKG_INSTRUMENTSTABLE
    00000142 ED A0            [16]  306 	ldi
    00000144 ED A0            [16]  307 	ldi
    00000146 4E               [ 7]  308 	ld	c, (hl)
    00000147 23               [ 6]  309 	inc	hl
    00000148 46               [ 7]  310 	ld	b, (hl)
    00000149 23               [ 6]  311 	inc	hl
    0000014A ED 43 17 F0      [20]  312 	ld	(PLY_AKG_CHANNEL_READEFFECTS_EFFECTBLOCKS1), bc
    0000014E 87               [ 4]  313 	add	a, a
    0000014F 5F               [ 4]  314 	ld	e, a
    00000150 16 00            [ 7]  315 	ld	d, #0x0
    00000152 19               [11]  316 	add	hl, de
    00000153 7E               [ 7]  317 	ld	a, (hl)
    00000154 23               [ 6]  318 	inc	hl
    00000155 66               [ 7]  319 	ld	h, (hl)
    00000156 6F               [ 4]  320 	ld	l, a
    00000157 11 05 00         [10]  321 	ld	de, #0x5
    0000015A 19               [11]  322 	add	hl, de
    0000015B 11 01 F0         [10]  323 	ld	de, #PLY_AKG_CURRENTSPEED
    0000015E ED A0            [16]  324 	ldi
    00000160 11 02 F0         [10]  325 	ld	de, #PLY_AKG_BASENOTEINDEX
    00000163 ED A0            [16]  326 	ldi
    00000165 22 0B F0         [16]  327 	ld	(PLY_AKG_READLINKER_PTLINKER), hl
    00000168 21rFBr01         [10]  328 	ld	hl, #PLY_AKG_INITTABLE0
    0000016B 01 00 0E         [10]  329 	ld	bc, #0xe00
    0000016E CDrF8r01         [17]  330 	call	PLY_AKG_INIT_READWORDSANDFILL
    00000171 0C               [ 4]  331 	inc	c
    00000172 21r15r02         [10]  332 	ld	hl, #PLY_AKG_INITTABLE0_END
    00000175 06 03            [ 7]  333 	ld	b, #0x3
    00000177 CDrF8r01         [17]  334 	call	PLY_AKG_INIT_READWORDSANDFILL
    0000017A 21r19r02         [10]  335 	ld	hl, #PLY_AKG_INITTABLE1_END
    0000017D 01 00 0D         [10]  336 	ld	bc, #0xd00
    00000180 CDrF8r01         [17]  337 	call	PLY_AKG_INIT_READWORDSANDFILL
    00000183 21r31r02         [10]  338 	ld	hl, #PLY_AKG_INITTABLEORA_END
    00000186 01 C3 0C         [10]  339 	ld	bc, #0xcc3
    00000189 CDrF8r01         [17]  340 	call	PLY_AKG_INIT_READWORDSANDFILL
    0000018C 3E FF            [ 7]  341 	ld	a, #0xff
    0000018E 32 07 F0         [13]  342 	ld	(PLY_AKG_PSGREG13_OLDVALUE), a
    00000191 2A 15 F0         [16]  343 	ld	hl, (PLY_AKG_INSTRUMENTSTABLE)
    00000194 5E               [ 7]  344 	ld	e, (hl)
    00000195 23               [ 6]  345 	inc	hl
    00000196 56               [ 7]  346 	ld	d, (hl)
    00000197 EB               [ 4]  347 	ex	de, hl
    00000198 23               [ 6]  348 	inc	hl
    00000199 22 19 F0         [16]  349 	ld	(PLY_AKG_EMPTYINSTRUMENTDATAPT), hl
    0000019C 22 5A F0         [16]  350 	ld	(PLY_AKG_CHANNEL1_PTINSTRUMENT), hl
    0000019F 22 9D F0         [16]  351 	ld	(PLY_AKG_CHANNEL2_PTINSTRUMENT), hl
    000001A2 22 E0 F0         [16]  352 	ld	(PLY_AKG_CHANNEL3_PTINSTRUMENT), hl
    000001A5 AF               [ 4]  353 	xor	a
    000001A6 32 4D F0         [13]  354 	ld	(PLY_AKG_CHANNEL1_PITCHTRACK+1), a
    000001A9 21r90r05         [10]  355 	ld	hl, #PLY_AKG_CHANNEL1_PITCHTRACKINTEGERADDORSUBRETURN
    000001AC 22 72 F0         [16]  356 	ld	(PLY_AKG_CHANNEL1_PITCHTRACKINTEGERAFTERADDORSUBJUMPINSTRANDADDRESS+1), hl
    000001AF 21r7Er05         [10]  357 	ld	hl, #PLY_AKG_CHANNEL1_PITCHTRACKADDORSBC_16BITSRETURN
    000001B2 22 6E F0         [16]  358 	ld	(PLY_AKG_CHANNEL1_PITCHTRACKAFTERADDORSBCJUMPINSTRANDADDRESS+1), hl
    000001B5 21r88r05         [10]  359 	ld	hl, #PLY_AKG_CHANNEL1_PITCHTRACKDECIMALINSTRANDVALUERETURNAFTERJP
    000001B8 22 67 F0         [16]  360 	ld	(PLY_AKG_CHANNEL1_PITCHTRACKDECIMALINSTRANDVALUERETURNJP+1), hl
    000001BB 32 90 F0         [13]  361 	ld	(PLY_AKG_CHANNEL2_PITCHTRACK+1), a
    000001BE 21r73r06         [10]  362 	ld	hl, #PLY_AKG_CHANNEL2_PITCHTRACKINTEGERADDORSUBRETURN
    000001C1 22 B5 F0         [16]  363 	ld	(PLY_AKG_CHANNEL2_PITCHTRACKINTEGERAFTERADDORSUBJUMPINSTRANDADDRESS+1), hl
    000001C4 21r61r06         [10]  364 	ld	hl, #PLY_AKG_CHANNEL2_PITCHTRACKADDORSBC_16BITSRETURN
    000001C7 22 B1 F0         [16]  365 	ld	(PLY_AKG_CHANNEL2_PITCHTRACKAFTERADDORSBCJUMPINSTRANDADDRESS+1), hl
    000001CA 21r6Br06         [10]  366 	ld	hl, #PLY_AKG_CHANNEL2_PITCHTRACKDECIMALINSTRANDVALUERETURNAFTERJP
    000001CD 22 AA F0         [16]  367 	ld	(PLY_AKG_CHANNEL2_PITCHTRACKDECIMALINSTRANDVALUERETURNJP+1), hl
    000001D0 32 D3 F0         [13]  368 	ld	(PLY_AKG_CHANNEL3_PITCHTRACK+1), a
    000001D3 21r56r07         [10]  369 	ld	hl, #PLY_AKG_CHANNEL3_PITCHTRACKINTEGERADDORSUBRETURN
    000001D6 22 F8 F0         [16]  370 	ld	(PLY_AKG_CHANNEL3_PITCHTRACKINTEGERAFTERADDORSUBJUMPINSTRANDADDRESS+1), hl
    000001D9 21r44r07         [10]  371 	ld	hl, #PLY_AKG_CHANNEL3_PITCHTRACKADDORSBC_16BITSRETURN
    000001DC 22 F4 F0         [16]  372 	ld	(PLY_AKG_CHANNEL3_PITCHTRACKAFTERADDORSBCJUMPINSTRANDADDRESS+1), hl
    000001DF 21r4Er07         [10]  373 	ld	hl, #PLY_AKG_CHANNEL3_PITCHTRACKDECIMALINSTRANDVALUERETURNAFTERJP
    000001E2 22 ED F0         [16]  374 	ld	(PLY_AKG_CHANNEL3_PITCHTRACKDECIMALINSTRANDVALUERETURNJP+1), hl
    000001E5 21 00 00         [10]  375 	ld	hl, #0x0
    000001E8 22 FC F0         [16]  376 	ld	(PLY_AKG_CHANNEL1_SOUNDEFFECTDATA), hl
    000001EB 22 04 F1         [16]  377 	ld	(PLY_AKG_CHANNEL2_SOUNDEFFECTDATA), hl
    000001EE 22 0C F1         [16]  378 	ld	(PLY_AKG_CHANNEL3_SOUNDEFFECTDATA), hl
    000001F1 C9               [10]  379 	ret
    000001F2                        380 	PLY_AKG_INIT_READWORDSANDFILL_LOOP:
    000001F2 5E               [ 7]  381 	ld	e, (hl)
    000001F3 23               [ 6]  382 	inc	hl
    000001F4 56               [ 7]  383 	ld	d, (hl)
    000001F5 23               [ 6]  384 	inc	hl
    000001F6 79               [ 4]  385 	ld	a, c
    000001F7 12               [ 7]  386 	ld	(de), a
    000001F8                        387 	PLY_AKG_INIT_READWORDSANDFILL:
    000001F8 10 F8            [13]  388 	djnz	PLY_AKG_INIT_READWORDSANDFILL_LOOP
    000001FA C9               [10]  389 	ret
    000001FB                        390 	PLY_AKG_INITTABLE0:
    000001FB 56 F0                  391 	.dw	PLY_AKG_CHANNEL1_INVERTEDVOLUMEINTEGERANDDECIMAL
    000001FD 57 F0                  392 	.dw	PLY_AKG_CHANNEL1_INVERTEDVOLUMEINTEGER
    000001FF 99 F0                  393 	.dw	PLY_AKG_CHANNEL2_INVERTEDVOLUMEINTEGERANDDECIMAL
    00000201 9A F0                  394 	.dw	PLY_AKG_CHANNEL2_INVERTEDVOLUMEINTEGER
    00000203 DC F0                  395 	.dw	PLY_AKG_CHANNEL3_INVERTEDVOLUMEINTEGERANDDECIMAL
    00000205 DD F0                  396 	.dw	PLY_AKG_CHANNEL3_INVERTEDVOLUMEINTEGER
    00000207 58 F0                  397 	.dw	PLY_AKG_CHANNEL1_PITCH
    00000209 59 F0                  398 	.dw	PLY_AKG_CHANNEL1_PITCH+1
    0000020B 9B F0                  399 	.dw	PLY_AKG_CHANNEL2_PITCH
    0000020D 9C F0                  400 	.dw	PLY_AKG_CHANNEL2_PITCH+1
    0000020F DE F0                  401 	.dw	PLY_AKG_CHANNEL3_PITCH
    00000211 DF F0                  402 	.dw	PLY_AKG_CHANNEL3_PITCH+1
    00000213 0A F0                  403 	.dw	PLY_AKG_CHANNEL_RE_READNEXTEFFECTINBLOCK
    00000215                        404 	PLY_AKG_INITTABLE0_END:
    00000215                        405 	PLY_AKG_INITTABLE1:
    00000215 03 F0                  406 	.dw	PLY_AKG_PATTERNDECREASINGHEIGHT
    00000217 04 F0                  407 	.dw	PLY_AKG_TICKDECREASINGCOUNTER
    00000219                        408 	PLY_AKG_INITTABLE1_END:
    00000219                        409 	PLY_AKG_INITTABLEORA:
    00000219 33 F0                  410 	.dw	PLY_AKG_CHANNEL1_ISVOLUMESLIDE
    0000021B 76 F0                  411 	.dw	PLY_AKG_CHANNEL2_ISVOLUMESLIDE
    0000021D B9 F0                  412 	.dw	PLY_AKG_CHANNEL3_ISVOLUMESLIDE
    0000021F 34 F0                  413 	.dw	PLY_AKG_CHANNEL1_ISARPEGGIOTABLE
    00000221 77 F0                  414 	.dw	PLY_AKG_CHANNEL2_ISARPEGGIOTABLE
    00000223 BA F0                  415 	.dw	PLY_AKG_CHANNEL3_ISARPEGGIOTABLE
    00000225 35 F0                  416 	.dw	PLY_AKG_CHANNEL1_ISPITCHTABLE
    00000227 78 F0                  417 	.dw	PLY_AKG_CHANNEL2_ISPITCHTABLE
    00000229 BB F0                  418 	.dw	PLY_AKG_CHANNEL3_ISPITCHTABLE
    0000022B 36 F0                  419 	.dw	PLY_AKG_CHANNEL1_ISPITCH
    0000022D 79 F0                  420 	.dw	PLY_AKG_CHANNEL2_ISPITCH
    0000022F BC F0                  421 	.dw	PLY_AKG_CHANNEL3_ISPITCH
    00000231                        422 	PLY_AKG_INITTABLEORA_END:
    00000231                        423 	PLY_AKG_INITTABLEJP:
    00000231 71 F0                  424 	.dw	PLY_AKG_CHANNEL1_PITCHTRACKINTEGERAFTERADDORSUBJUMPINSTRANDADDRESS
    00000233 B4 F0                  425 	.dw	PLY_AKG_CHANNEL2_PITCHTRACKINTEGERAFTERADDORSUBJUMPINSTRANDADDRESS
    00000235 F7 F0                  426 	.dw	PLY_AKG_CHANNEL3_PITCHTRACKINTEGERAFTERADDORSUBJUMPINSTRANDADDRESS
    00000237 6D F0                  427 	.dw	PLY_AKG_CHANNEL1_PITCHTRACKAFTERADDORSBCJUMPINSTRANDADDRESS
    00000239 B0 F0                  428 	.dw	PLY_AKG_CHANNEL2_PITCHTRACKAFTERADDORSBCJUMPINSTRANDADDRESS
    0000023B F3 F0                  429 	.dw	PLY_AKG_CHANNEL3_PITCHTRACKAFTERADDORSBCJUMPINSTRANDADDRESS
    0000023D 66 F0                  430 	.dw	PLY_AKG_CHANNEL1_PITCHTRACKDECIMALINSTRANDVALUERETURNJP
    0000023F A9 F0                  431 	.dw	PLY_AKG_CHANNEL2_PITCHTRACKDECIMALINSTRANDVALUERETURNJP
    00000241 EC F0                  432 	.dw	PLY_AKG_CHANNEL3_PITCHTRACKDECIMALINSTRANDVALUERETURNJP
    00000243 29 F0                  433 	.dw	PLY_AKG_CHANNEL_READEFFECTS_ENDJUMPINSTRANDADDRESS
    00000245 2E F0                  434 	.dw	PLY_AKG_TEMPPLAYINSTRUMENTJUMPINSTRANDADDRESS
    00000247                        435 	PLY_AKG_INITTABLEJP_END:
    00000247                        436 	_PLY_AKG_STOP::
    00000247                        437 	PLY_AKG_STOP:
    00000247 ED 73 1B F0      [20]  438 	ld	(PLY_AKG_SAVESP), sp
    0000024B AF               [ 4]  439 	xor	a
    0000024C 6F               [ 4]  440 	ld	l, a
    0000024D 67               [ 4]  441 	ld	h, a
    0000024E 32 24 F0         [13]  442 	ld	(PLY_AKG_PSGREG8), a
    00000251 22 25 F0         [16]  443 	ld	(PLY_AKG_PSGREG9_10_INSTR), hl
    00000254 3E BF            [ 7]  444 	ld	a, #0xbf
    00000256 C3r59r08         [10]  445 	jp	PLY_AKG_SENDPSGREGISTERS
    00000259                        446 	_PLY_AKG_PLAY::
    00000259                        447 	PLY_AKG_PLAY:
    00000259 ED 73 1B F0      [20]  448 	ld	(PLY_AKG_SAVESP), sp
    0000025D AF               [ 4]  449 	xor	a
    0000025E 32 00 F0         [13]  450 	ld	(PLY_AKG_EVENT), a
    00000261 3A 04 F0         [13]  451 	ld	a, (PLY_AKG_TICKDECREASINGCOUNTER)
    00000264 3D               [ 4]  452 	dec	a
    00000265 C2rF9r04         [10]  453 	jp	nz, PLY_AKG_SETSPEEDBEFOREPLAYSTREAMS
    00000268 3A 03 F0         [13]  454 	ld	a, (PLY_AKG_PATTERNDECREASINGHEIGHT)
    0000026B 3D               [ 4]  455 	dec	a
    0000026C 20 4A            [12]  456 	jr	nz, PLY_AKG_SETCURRENTLINEBEFOREREADLINE
    0000026E                        457 	PLY_AKG_READLINKER:
    0000026E ED 7B 0B F0      [20]  458 	ld	sp, (PLY_AKG_READLINKER_PTLINKER)
    00000272 E1               [10]  459 	pop	hl
    00000273 7D               [ 4]  460 	ld	a, l
    00000274 B4               [ 4]  461 	or	h
    00000275 20 08            [12]  462 	jr	nz, PLY_AKG_READLINKER_NOLOOP
    00000277 E1               [10]  463 	pop	hl
    00000278 F9               [ 6]  464 	ld	sp, hl
    00000279 E1               [10]  465 	pop	hl
                                    466 ;	MSXgl - Start
    0000027A 3E FF            [ 7]  467 	ld	a, #0xFF
    0000027C 32r00r00         [13]  468 	ld	(_g_AKG_EndOfSong), a
                                    469 ;	MSXgl - End
    0000027F                        470 	PLY_AKG_READLINKER_NOLOOP:
    0000027F 22 46 F0         [16]  471 	ld	(PLY_AKG_CHANNEL1_PTTRACK), hl
    00000282 E1               [10]  472 	pop	hl
    00000283 22 89 F0         [16]  473 	ld	(PLY_AKG_CHANNEL2_PTTRACK), hl
    00000286 E1               [10]  474 	pop	hl
    00000287 22 CC F0         [16]  475 	ld	(PLY_AKG_CHANNEL3_PTTRACK), hl
    0000028A E1               [10]  476 	pop	hl
    0000028B ED 73 0B F0      [20]  477 	ld	(PLY_AKG_READLINKER_PTLINKER), sp
    0000028F F9               [ 6]  478 	ld	sp, hl
    00000290 E1               [10]  479 	pop	hl
    00000291 4D               [ 4]  480 	ld	c, l
    00000292 7C               [ 4]  481 	ld	a, h
    00000293 32 31 F0         [13]  482 	ld	(PLY_AKG_CHANNEL1_SOUNDSTREAM_RELATIVEMODIFIERADDRESS), a
    00000296 E1               [10]  483 	pop	hl
    00000297 7D               [ 4]  484 	ld	a, l
    00000298 32 74 F0         [13]  485 	ld	(PLY_AKG_CHANNEL2_PLAYINSTRUMENT_RELATIVEMODIFIERADDRESS), a
    0000029B 7C               [ 4]  486 	ld	a, h
    0000029C 32 B7 F0         [13]  487 	ld	(PLY_AKG_CHANNEL3_SOUNDSTREAM_RELATIVEMODIFIERADDRESS), a
    0000029F E1               [10]  488 	pop	hl
    000002A0 22 0D F0         [16]  489 	ld	(PLY_AKG_SPEEDTRACK_PTTRACK), hl
    000002A3 E1               [10]  490 	pop	hl
    000002A4 22 0F F0         [16]  491 	ld	(PLY_AKG_EVENTTRACK_PTTRACK), hl
    000002A7 AF               [ 4]  492 	xor	a
    000002A8 32 05 F0         [13]  493 	ld	(PLY_AKG_SPEEDTRACK_WAITCOUNTER), a
    000002AB 32 06 F0         [13]  494 	ld	(PLY_AKG_EVENTTRACK_WAITCOUNTER), a
    000002AE 32 32 F0         [13]  495 	ld	(PLY_AKG_CHANNEL1_WAITCOUNTER), a
    000002B1 32 75 F0         [13]  496 	ld	(PLY_AKG_CHANNEL2_WAITCOUNTER), a
    000002B4 32 B8 F0         [13]  497 	ld	(PLY_AKG_CHANNEL3_WAITCOUNTER), a
    000002B7 79               [ 4]  498 	ld	a, c
    000002B8                        499 	PLY_AKG_SETCURRENTLINEBEFOREREADLINE:
    000002B8 32 03 F0         [13]  500 	ld	(PLY_AKG_PATTERNDECREASINGHEIGHT), a
    000002BB                        501 	PLY_AKG_READLINE:
    000002BB 3A 05 F0         [13]  502 	ld	a, (PLY_AKG_SPEEDTRACK_WAITCOUNTER)
    000002BE D6 01            [ 7]  503 	sub	#0x1
    000002C0 30 14            [12]  504 	jr	nc, PLY_AKG_SPEEDTRACK_MUSTWAIT
    000002C2 2A 0D F0         [16]  505 	ld	hl, (PLY_AKG_SPEEDTRACK_PTTRACK)
    000002C5 7E               [ 7]  506 	ld	a, (hl)
    000002C6 23               [ 6]  507 	inc	hl
    000002C7 CB 3F            [ 8]  508 	srl	a
    000002C9 38 08            [12]  509 	jr	c, PLY_AKG_SPEEDTRACK_STOREPOINTERANDWAITCOUNTER
    000002CB 20 02            [12]  510 	jr	nz, PLY_AKG_SPEEDTRACK_NORMALVALUE
    000002CD 7E               [ 7]  511 	ld	a, (hl)
    000002CE 23               [ 6]  512 	inc	hl
    000002CF                        513 	PLY_AKG_SPEEDTRACK_NORMALVALUE:
    000002CF 32 01 F0         [13]  514 	ld	(PLY_AKG_CURRENTSPEED), a
    000002D2 AF               [ 4]  515 	xor	a
    000002D3                        516 	PLY_AKG_SPEEDTRACK_STOREPOINTERANDWAITCOUNTER:
    000002D3 22 0D F0         [16]  517 	ld	(PLY_AKG_SPEEDTRACK_PTTRACK), hl
    000002D6                        518 	PLY_AKG_SPEEDTRACK_MUSTWAIT:
    000002D6 32 05 F0         [13]  519 	ld	(PLY_AKG_SPEEDTRACK_WAITCOUNTER), a
    000002D9                        520 	PLY_AKG_SPEEDTRACK_END:
    000002D9 3A 06 F0         [13]  521 	ld	a, (PLY_AKG_EVENTTRACK_WAITCOUNTER)
    000002DC D6 01            [ 7]  522 	sub	#0x1
    000002DE 30 14            [12]  523 	jr	nc, PLY_AKG_EVENTTRACK_MUSTWAIT
    000002E0 2A 0F F0         [16]  524 	ld	hl, (PLY_AKG_EVENTTRACK_PTTRACK)
    000002E3 7E               [ 7]  525 	ld	a, (hl)
    000002E4 23               [ 6]  526 	inc	hl
    000002E5 CB 3F            [ 8]  527 	srl	a
    000002E7 38 08            [12]  528 	jr	c, PLY_AKG_EVENTTRACK_STOREPOINTERANDWAITCOUNTER
    000002E9 20 02            [12]  529 	jr	nz, PLY_AKG_EVENTTRACK_NORMALVALUE
    000002EB 7E               [ 7]  530 	ld	a, (hl)
    000002EC 23               [ 6]  531 	inc	hl
    000002ED                        532 	PLY_AKG_EVENTTRACK_NORMALVALUE:
    000002ED 32 00 F0         [13]  533 	ld	(PLY_AKG_EVENT), a
    000002F0 AF               [ 4]  534 	xor	a
    000002F1                        535 	PLY_AKG_EVENTTRACK_STOREPOINTERANDWAITCOUNTER:
    000002F1 22 0F F0         [16]  536 	ld	(PLY_AKG_EVENTTRACK_PTTRACK), hl
    000002F4                        537 	PLY_AKG_EVENTTRACK_MUSTWAIT:
    000002F4 32 06 F0         [13]  538 	ld	(PLY_AKG_EVENTTRACK_WAITCOUNTER), a
    000002F7                        539 	PLY_AKG_EVENTTRACK_END:
    000002F7 3A 32 F0         [13]  540 	ld	a, (PLY_AKG_CHANNEL1_WAITCOUNTER)
    000002FA D6 01            [ 7]  541 	sub	#0x1
    000002FC 38 06            [12]  542 	jr	c, PLY_AKG_CHANNEL1_READTRACK
    000002FE 32 32 F0         [13]  543 	ld	(PLY_AKG_CHANNEL1_WAITCOUNTER), a
    00000301 C3rA2r03         [10]  544 	jp	PLY_AKG_CHANNEL1_READCELLEND
    00000304                        545 	PLY_AKG_CHANNEL1_READTRACK:
    00000304 2A 46 F0         [16]  546 	ld	hl, (PLY_AKG_CHANNEL1_PTTRACK)
    00000307 4E               [ 7]  547 	ld	c, (hl)
    00000308 23               [ 6]  548 	inc	hl
    00000309 79               [ 4]  549 	ld	a, c
    0000030A E6 3F            [ 7]  550 	and	#0x3f
    0000030C FE 3C            [ 7]  551 	cp	#0x3c
    0000030E 38 2B            [12]  552 	jr	c, PLY_AKG_CHANNEL1_NOTE
    00000310 D6 3C            [ 7]  553 	sub	#0x3c
    00000312 CArE8r08         [10]  554 	jp	z, PLY_AKG_CHANNEL1_MAYBEEFFECTS
    00000315 3D               [ 4]  555 	dec	a
    00000316 28 12            [12]  556 	jr	z, PLY_AKG_CHANNEL1_WAIT
    00000318 3D               [ 4]  557 	dec	a
    00000319 28 04            [12]  558 	jr	z, PLY_AKG_CHANNEL1_SMALLWAIT
    0000031B 7E               [ 7]  559 	ld	a, (hl)
    0000031C 23               [ 6]  560 	inc	hl
    0000031D 18 21            [12]  561 	jr	PLY_AKG_CHANNEL1_AFTERNOTEKNOWN
    0000031F                        562 	PLY_AKG_CHANNEL1_SMALLWAIT:
    0000031F 79               [ 4]  563 	ld	a, c
    00000320 07               [ 4]  564 	rlca
    00000321 07               [ 4]  565 	rlca
    00000322 E6 03            [ 7]  566 	and	#0x3
    00000324 3C               [ 4]  567 	inc	a
    00000325 32 32 F0         [13]  568 	ld	(PLY_AKG_CHANNEL1_WAITCOUNTER), a
    00000328 18 75            [12]  569 	jr	PLY_AKG_CHANNEL1_BEFOREEND_STORECELLPOINTER
    0000032A                        570 	PLY_AKG_CHANNEL1_WAIT:
    0000032A 7E               [ 7]  571 	ld	a, (hl)
    0000032B 32 32 F0         [13]  572 	ld	(PLY_AKG_CHANNEL1_WAITCOUNTER), a
    0000032E 23               [ 6]  573 	inc	hl
    0000032F 18 6E            [12]  574 	jr	PLY_AKG_CHANNEL1_BEFOREEND_STORECELLPOINTER
    00000331                        575 	PLY_AKG_CHANNEL1_SAMEINSTRUMENT:
    00000331 ED 5B 5C F0      [20]  576 	ld	de, (PLY_AKG_CHANNEL1_PTBASEINSTRUMENT)
    00000335 ED 53 5A F0      [20]  577 	ld	(PLY_AKG_CHANNEL1_PTINSTRUMENT), de
    00000339 18 2B            [12]  578 	jr	PLY_AKG_CHANNEL1_AFTERINSTRUMENT
    0000033B                        579 	PLY_AKG_CHANNEL1_NOTE:
    0000033B 47               [ 4]  580 	ld	b, a
    0000033C 3A 02 F0         [13]  581 	ld	a, (PLY_AKG_BASENOTEINDEX)
    0000033F 80               [ 4]  582 	add	a, b
    00000340                        583 	PLY_AKG_CHANNEL1_AFTERNOTEKNOWN:
    00000340 47               [ 4]  584 	ld	b, a
    00000341 3A 31 F0         [13]  585 	ld	a, (PLY_AKG_CHANNEL1_SOUNDSTREAM_RELATIVEMODIFIERADDRESS)
    00000344 80               [ 4]  586 	add	a, b
    00000345 32 43 F0         [13]  587 	ld	(PLY_AKG_CHANNEL1_TRACKNOTE), a
    00000348 CB 11            [ 8]  588 	rl	c
    0000034A 30 E5            [12]  589 	jr	nc, PLY_AKG_CHANNEL1_SAMEINSTRUMENT
    0000034C 7E               [ 7]  590 	ld	a, (hl)
    0000034D 23               [ 6]  591 	inc	hl
    0000034E D9               [ 4]  592 	exx
    0000034F 6F               [ 4]  593 	ld	l, a
    00000350 26 00            [ 7]  594 	ld	h, #0x0
    00000352 29               [11]  595 	add	hl, hl
    00000353 ED 5B 15 F0      [20]  596 	ld	de, (PLY_AKG_INSTRUMENTSTABLE)
    00000357 19               [11]  597 	add	hl, de
    00000358 F9               [ 6]  598 	ld	sp, hl
    00000359 E1               [10]  599 	pop	hl
    0000035A 7E               [ 7]  600 	ld	a, (hl)
    0000035B 23               [ 6]  601 	inc	hl
    0000035C 32 37 F0         [13]  602 	ld	(PLY_AKG_CHANNEL1_INSTRUMENTORIGINALSPEED), a
    0000035F 22 5A F0         [16]  603 	ld	(PLY_AKG_CHANNEL1_PTINSTRUMENT), hl
    00000362 22 5C F0         [16]  604 	ld	(PLY_AKG_CHANNEL1_PTBASEINSTRUMENT), hl
    00000365 D9               [ 4]  605 	exx
    00000366                        606 	PLY_AKG_CHANNEL1_AFTERINSTRUMENT:
    00000366 EB               [ 4]  607 	ex	de, hl
    00000367 AF               [ 4]  608 	xor	a
    00000368 6F               [ 4]  609 	ld	l, a
    00000369 67               [ 4]  610 	ld	h, a
    0000036A 22 58 F0         [16]  611 	ld	(PLY_AKG_CHANNEL1_PITCH), hl
    0000036D 32 3A F0         [13]  612 	ld	(PLY_AKG_CHANNEL1_ARPEGGIOTABLECURRENTSTEP), a
    00000370 32 3E F0         [13]  613 	ld	(PLY_AKG_CHANNEL1_PITCHTABLECURRENTSTEP), a
    00000373 32 39 F0         [13]  614 	ld	(PLY_AKG_CHANNEL1_INSTRUMENTSTEP), a
    00000376 3A 37 F0         [13]  615 	ld	a, (PLY_AKG_CHANNEL1_INSTRUMENTORIGINALSPEED)
    00000379 32 38 F0         [13]  616 	ld	(PLY_AKG_CHANNEL1_INSTRUMENTSPEED), a
    0000037C 3E 00            [ 7]  617 	ld	a, #0x0
    0000037E 32 36 F0         [13]  618 	ld	(PLY_AKG_CHANNEL1_ISPITCH), a
    00000381 3A 3C F0         [13]  619 	ld	a, (PLY_AKG_CHANNEL1_ARPEGGIOBASESPEED)
    00000384 32 3D F0         [13]  620 	ld	(PLY_AKG_CHANNEL1_ARPEGGIOTABLESPEED), a
    00000387 3A 3F F0         [13]  621 	ld	a, (PLY_AKG_CHANNEL1_PITCHBASESPEED)
    0000038A 32 40 F0         [13]  622 	ld	(PLY_AKG_CHANNEL1_PITCHTABLESPEED), a
    0000038D 2A 4A F0         [16]  623 	ld	hl, (PLY_AKG_CHANNEL1_ARPEGGIOTABLEBASE)
    00000390 22 48 F0         [16]  624 	ld	(PLY_AKG_CHANNEL1_ARPEGGIOTABLE), hl
    00000393 2A 50 F0         [16]  625 	ld	hl, (PLY_AKG_CHANNEL1_PITCHTABLEBASE)
    00000396 22 4E F0         [16]  626 	ld	(PLY_AKG_CHANNEL1_PITCHTABLE), hl
    00000399 EB               [ 4]  627 	ex	de, hl
    0000039A CB 11            [ 8]  628 	rl	c
    0000039C DArF0r08         [10]  629 	jp	c, PLY_AKG_CHANNEL1_READEFFECTS
    0000039F                        630 	PLY_AKG_CHANNEL1_BEFOREEND_STORECELLPOINTER:
    0000039F 22 46 F0         [16]  631 	ld	(PLY_AKG_CHANNEL1_PTTRACK), hl
    000003A2                        632 	PLY_AKG_CHANNEL1_READCELLEND:
    000003A2 3A 75 F0         [13]  633 	ld	a, (PLY_AKG_CHANNEL2_WAITCOUNTER)
    000003A5 D6 01            [ 7]  634 	sub	#0x1
    000003A7 38 06            [12]  635 	jr	c, PLY_AKG_CHANNEL2_READTRACK
    000003A9 32 75 F0         [13]  636 	ld	(PLY_AKG_CHANNEL2_WAITCOUNTER), a
    000003AC C3r4Cr04         [10]  637 	jp	PLY_AKG_CHANNEL2_READCELLEND
    000003AF                        638 	PLY_AKG_CHANNEL2_READTRACK:
    000003AF 2A 89 F0         [16]  639 	ld	hl, (PLY_AKG_CHANNEL2_PTTRACK)
    000003B2 4E               [ 7]  640 	ld	c, (hl)
    000003B3 23               [ 6]  641 	inc	hl
    000003B4 79               [ 4]  642 	ld	a, c
    000003B5 E6 3F            [ 7]  643 	and	#0x3f
    000003B7 FE 3C            [ 7]  644 	cp	#0x3c
    000003B9 38 2B            [12]  645 	jr	c, PLY_AKG_CHANNEL2_NOTE
    000003BB D6 3C            [ 7]  646 	sub	#0x3c
    000003BD CArFDr08         [10]  647 	jp	z, PLY_AKG_CHANNEL1_READEFFECTSEND
    000003C0 3D               [ 4]  648 	dec	a
    000003C1 28 12            [12]  649 	jr	z, PLY_AKG_CHANNEL2_WAIT
    000003C3 3D               [ 4]  650 	dec	a
    000003C4 28 04            [12]  651 	jr	z, PLY_AKG_CHANNEL2_SMALLWAIT
    000003C6 7E               [ 7]  652 	ld	a, (hl)
    000003C7 23               [ 6]  653 	inc	hl
    000003C8 18 21            [12]  654 	jr	PLY_AKG_CHANNEL2_AFTERNOTEKNOWN
    000003CA                        655 	PLY_AKG_CHANNEL2_SMALLWAIT:
    000003CA 79               [ 4]  656 	ld	a, c
    000003CB 07               [ 4]  657 	rlca
    000003CC 07               [ 4]  658 	rlca
    000003CD E6 03            [ 7]  659 	and	#0x3
    000003CF 3C               [ 4]  660 	inc	a
    000003D0 32 75 F0         [13]  661 	ld	(PLY_AKG_CHANNEL2_WAITCOUNTER), a
    000003D3 18 74            [12]  662 	jr	PLY_AKG_CHANNEL2_BEFOREEND_STORECELLPOINTER
    000003D5                        663 	PLY_AKG_CHANNEL2_WAIT:
    000003D5 7E               [ 7]  664 	ld	a, (hl)
    000003D6 32 75 F0         [13]  665 	ld	(PLY_AKG_CHANNEL2_WAITCOUNTER), a
    000003D9 23               [ 6]  666 	inc	hl
    000003DA 18 6D            [12]  667 	jr	PLY_AKG_CHANNEL2_BEFOREEND_STORECELLPOINTER
    000003DC                        668 	PLY_AKG_CHANNEL2_SAMEINSTRUMENT:
    000003DC ED 5B 9F F0      [20]  669 	ld	de, (PLY_AKG_CHANNEL2_PTBASEINSTRUMENT)
    000003E0 ED 53 9D F0      [20]  670 	ld	(PLY_AKG_CHANNEL2_PTINSTRUMENT), de
    000003E4 18 2A            [12]  671 	jr	PLY_AKG_CHANNEL2_AFTERINSTRUMENT
    000003E6                        672 	PLY_AKG_CHANNEL2_NOTE:
    000003E6 47               [ 4]  673 	ld	b, a
    000003E7 3A 02 F0         [13]  674 	ld	a, (PLY_AKG_BASENOTEINDEX)
    000003EA 80               [ 4]  675 	add	a, b
    000003EB                        676 	PLY_AKG_CHANNEL2_AFTERNOTEKNOWN:
    000003EB 47               [ 4]  677 	ld	b, a
    000003EC 3A 74 F0         [13]  678 	ld	a, (PLY_AKG_CHANNEL2_PLAYINSTRUMENT_RELATIVEMODIFIERADDRESS)
    000003EF 80               [ 4]  679 	add	a, b
    000003F0 32 86 F0         [13]  680 	ld	(PLY_AKG_CHANNEL2_TRACKNOTE), a
    000003F3 CB 11            [ 8]  681 	rl	c
    000003F5 30 E5            [12]  682 	jr	nc, PLY_AKG_CHANNEL2_SAMEINSTRUMENT
    000003F7 7E               [ 7]  683 	ld	a, (hl)
    000003F8 23               [ 6]  684 	inc	hl
    000003F9 D9               [ 4]  685 	exx
    000003FA 5F               [ 4]  686 	ld	e, a
    000003FB 16 00            [ 7]  687 	ld	d, #0x0
    000003FD 2A 15 F0         [16]  688 	ld	hl, (PLY_AKG_INSTRUMENTSTABLE)
    00000400 19               [11]  689 	add	hl, de
    00000401 19               [11]  690 	add	hl, de
    00000402 F9               [ 6]  691 	ld	sp, hl
    00000403 E1               [10]  692 	pop	hl
    00000404 7E               [ 7]  693 	ld	a, (hl)
    00000405 23               [ 6]  694 	inc	hl
    00000406 32 7A F0         [13]  695 	ld	(PLY_AKG_CHANNEL2_INSTRUMENTORIGINALSPEED), a
    00000409 22 9D F0         [16]  696 	ld	(PLY_AKG_CHANNEL2_PTINSTRUMENT), hl
    0000040C 22 9F F0         [16]  697 	ld	(PLY_AKG_CHANNEL2_PTBASEINSTRUMENT), hl
    0000040F D9               [ 4]  698 	exx
    00000410                        699 	PLY_AKG_CHANNEL2_AFTERINSTRUMENT:
    00000410 EB               [ 4]  700 	ex	de, hl
    00000411 AF               [ 4]  701 	xor	a
    00000412 6F               [ 4]  702 	ld	l, a
    00000413 67               [ 4]  703 	ld	h, a
    00000414 22 9B F0         [16]  704 	ld	(PLY_AKG_CHANNEL2_PITCH), hl
    00000417 32 7D F0         [13]  705 	ld	(PLY_AKG_CHANNEL2_ARPEGGIOTABLECURRENTSTEP), a
    0000041A 32 81 F0         [13]  706 	ld	(PLY_AKG_CHANNEL2_PITCHTABLECURRENTSTEP), a
    0000041D 32 7C F0         [13]  707 	ld	(PLY_AKG_CHANNEL2_INSTRUMENTSTEP), a
    00000420 3A 7A F0         [13]  708 	ld	a, (PLY_AKG_CHANNEL2_INSTRUMENTORIGINALSPEED)
    00000423 32 7B F0         [13]  709 	ld	(PLY_AKG_CHANNEL2_INSTRUMENTSPEED), a
    00000426 3E 00            [ 7]  710 	ld	a, #0x0
    00000428 32 79 F0         [13]  711 	ld	(PLY_AKG_CHANNEL2_ISPITCH), a
    0000042B 3A 7F F0         [13]  712 	ld	a, (PLY_AKG_CHANNEL2_ARPEGGIOBASESPEED)
    0000042E 32 80 F0         [13]  713 	ld	(PLY_AKG_CHANNEL2_ARPEGGIOTABLESPEED), a
    00000431 3A 82 F0         [13]  714 	ld	a, (PLY_AKG_CHANNEL2_PITCHBASESPEED)
    00000434 32 83 F0         [13]  715 	ld	(PLY_AKG_CHANNEL2_PITCHTABLESPEED), a
    00000437 2A 8D F0         [16]  716 	ld	hl, (PLY_AKG_CHANNEL2_ARPEGGIOTABLEBASE)
    0000043A 22 8B F0         [16]  717 	ld	(PLY_AKG_CHANNEL2_ARPEGGIOTABLE), hl
    0000043D 2A 93 F0         [16]  718 	ld	hl, (PLY_AKG_CHANNEL2_PITCHTABLEBASE)
    00000440 22 91 F0         [16]  719 	ld	(PLY_AKG_CHANNEL2_PITCHTABLE), hl
    00000443 EB               [ 4]  720 	ex	de, hl
    00000444 CB 11            [ 8]  721 	rl	c
    00000446 DAr05r09         [10]  722 	jp	c, PLY_AKG_CHANNEL2_READEFFECTS
    00000449                        723 	PLY_AKG_CHANNEL2_BEFOREEND_STORECELLPOINTER:
    00000449 22 89 F0         [16]  724 	ld	(PLY_AKG_CHANNEL2_PTTRACK), hl
    0000044C                        725 	PLY_AKG_CHANNEL2_READCELLEND:
    0000044C 3A B8 F0         [13]  726 	ld	a, (PLY_AKG_CHANNEL3_WAITCOUNTER)
    0000044F D6 01            [ 7]  727 	sub	#0x1
    00000451 38 06            [12]  728 	jr	c, PLY_AKG_CHANNEL3_READTRACK
    00000453 32 B8 F0         [13]  729 	ld	(PLY_AKG_CHANNEL3_WAITCOUNTER), a
    00000456 C3rF6r04         [10]  730 	jp	PLY_AKG_CHANNEL3_READCELLEND
    00000459                        731 	PLY_AKG_CHANNEL3_READTRACK:
    00000459 2A CC F0         [16]  732 	ld	hl, (PLY_AKG_CHANNEL3_PTTRACK)
    0000045C 4E               [ 7]  733 	ld	c, (hl)
    0000045D 23               [ 6]  734 	inc	hl
    0000045E 79               [ 4]  735 	ld	a, c
    0000045F E6 3F            [ 7]  736 	and	#0x3f
    00000461 FE 3C            [ 7]  737 	cp	#0x3c
    00000463 38 2B            [12]  738 	jr	c, PLY_AKG_CHANNEL3_NOTE
    00000465 D6 3C            [ 7]  739 	sub	#0x3c
    00000467 CAr12r09         [10]  740 	jp	z, PLY_AKG_CHANNEL2_READEFFECTSEND
    0000046A 3D               [ 4]  741 	dec	a
    0000046B 28 12            [12]  742 	jr	z, PLY_AKG_CHANNEL3_WAIT
    0000046D 3D               [ 4]  743 	dec	a
    0000046E 28 04            [12]  744 	jr	z, PLY_AKG_CHANNEL3_SMALLWAIT
    00000470 7E               [ 7]  745 	ld	a, (hl)
    00000471 23               [ 6]  746 	inc	hl
    00000472 18 21            [12]  747 	jr	PLY_AKG_CHANNEL3_AFTERNOTEKNOWN
    00000474                        748 	PLY_AKG_CHANNEL3_SMALLWAIT:
    00000474 79               [ 4]  749 	ld	a, c
    00000475 07               [ 4]  750 	rlca
    00000476 07               [ 4]  751 	rlca
    00000477 E6 03            [ 7]  752 	and	#0x3
    00000479 3C               [ 4]  753 	inc	a
    0000047A 32 B8 F0         [13]  754 	ld	(PLY_AKG_CHANNEL3_WAITCOUNTER), a
    0000047D 18 74            [12]  755 	jr	PLY_AKG_CHANNEL3_BEFOREEND_STORECELLPOINTER
    0000047F                        756 	PLY_AKG_CHANNEL3_WAIT:
    0000047F 7E               [ 7]  757 	ld	a, (hl)
    00000480 32 B8 F0         [13]  758 	ld	(PLY_AKG_CHANNEL3_WAITCOUNTER), a
    00000483 23               [ 6]  759 	inc	hl
    00000484 18 6D            [12]  760 	jr	PLY_AKG_CHANNEL3_BEFOREEND_STORECELLPOINTER
    00000486                        761 	PLY_AKG_CHANNEL3_SAMEINSTRUMENT:
    00000486 ED 5B E2 F0      [20]  762 	ld	de, (PLY_AKG_CHANNEL3_PTBASEINSTRUMENT)
    0000048A ED 53 E0 F0      [20]  763 	ld	(PLY_AKG_CHANNEL3_PTINSTRUMENT), de
    0000048E 18 2A            [12]  764 	jr	PLY_AKG_CHANNEL3_AFTERINSTRUMENT
    00000490                        765 	PLY_AKG_CHANNEL3_NOTE:
    00000490 47               [ 4]  766 	ld	b, a
    00000491 3A 02 F0         [13]  767 	ld	a, (PLY_AKG_BASENOTEINDEX)
    00000494 80               [ 4]  768 	add	a, b
    00000495                        769 	PLY_AKG_CHANNEL3_AFTERNOTEKNOWN:
    00000495 47               [ 4]  770 	ld	b, a
    00000496 3A B7 F0         [13]  771 	ld	a, (PLY_AKG_CHANNEL3_SOUNDSTREAM_RELATIVEMODIFIERADDRESS)
    00000499 80               [ 4]  772 	add	a, b
    0000049A 32 C9 F0         [13]  773 	ld	(PLY_AKG_CHANNEL3_TRACKNOTE), a
    0000049D CB 11            [ 8]  774 	rl	c
    0000049F 30 E5            [12]  775 	jr	nc, PLY_AKG_CHANNEL3_SAMEINSTRUMENT
    000004A1 7E               [ 7]  776 	ld	a, (hl)
    000004A2 23               [ 6]  777 	inc	hl
    000004A3 D9               [ 4]  778 	exx
    000004A4 5F               [ 4]  779 	ld	e, a
    000004A5 16 00            [ 7]  780 	ld	d, #0x0
    000004A7 2A 15 F0         [16]  781 	ld	hl, (PLY_AKG_INSTRUMENTSTABLE)
    000004AA 19               [11]  782 	add	hl, de
    000004AB 19               [11]  783 	add	hl, de
    000004AC F9               [ 6]  784 	ld	sp, hl
    000004AD E1               [10]  785 	pop	hl
    000004AE 7E               [ 7]  786 	ld	a, (hl)
    000004AF 23               [ 6]  787 	inc	hl
    000004B0 32 BD F0         [13]  788 	ld	(PLY_AKG_CHANNEL3_INSTRUMENTORIGINALSPEED), a
    000004B3 22 E0 F0         [16]  789 	ld	(PLY_AKG_CHANNEL3_PTINSTRUMENT), hl
    000004B6 22 E2 F0         [16]  790 	ld	(PLY_AKG_CHANNEL3_PTBASEINSTRUMENT), hl
    000004B9 D9               [ 4]  791 	exx
    000004BA                        792 	PLY_AKG_CHANNEL3_AFTERINSTRUMENT:
    000004BA EB               [ 4]  793 	ex	de, hl
    000004BB AF               [ 4]  794 	xor	a
    000004BC 6F               [ 4]  795 	ld	l, a
    000004BD 67               [ 4]  796 	ld	h, a
    000004BE 22 DE F0         [16]  797 	ld	(PLY_AKG_CHANNEL3_PITCH), hl
    000004C1 32 C0 F0         [13]  798 	ld	(PLY_AKG_CHANNEL3_ARPEGGIOTABLECURRENTSTEP), a
    000004C4 32 C4 F0         [13]  799 	ld	(PLY_AKG_CHANNEL3_PITCHTABLECURRENTSTEP), a
    000004C7 32 BF F0         [13]  800 	ld	(PLY_AKG_CHANNEL3_INSTRUMENTSTEP), a
    000004CA 3A BD F0         [13]  801 	ld	a, (PLY_AKG_CHANNEL3_INSTRUMENTORIGINALSPEED)
    000004CD 32 BE F0         [13]  802 	ld	(PLY_AKG_CHANNEL3_INSTRUMENTSPEED), a
    000004D0 3E 00            [ 7]  803 	ld	a, #0x0
    000004D2 32 BC F0         [13]  804 	ld	(PLY_AKG_CHANNEL3_ISPITCH), a
    000004D5 3A C2 F0         [13]  805 	ld	a, (PLY_AKG_CHANNEL3_ARPEGGIOBASESPEED)
    000004D8 32 C3 F0         [13]  806 	ld	(PLY_AKG_CHANNEL3_ARPEGGIOTABLESPEED), a
    000004DB 3A C5 F0         [13]  807 	ld	a, (PLY_AKG_CHANNEL3_PITCHBASESPEED)
    000004DE 32 C6 F0         [13]  808 	ld	(PLY_AKG_CHANNEL3_PITCHTABLESPEED), a
    000004E1 2A D0 F0         [16]  809 	ld	hl, (PLY_AKG_CHANNEL3_ARPEGGIOTABLEBASE)
    000004E4 22 CE F0         [16]  810 	ld	(PLY_AKG_CHANNEL3_ARPEGGIOTABLE), hl
    000004E7 2A D6 F0         [16]  811 	ld	hl, (PLY_AKG_CHANNEL3_PITCHTABLEBASE)
    000004EA 22 D4 F0         [16]  812 	ld	(PLY_AKG_CHANNEL3_PITCHTABLE), hl
    000004ED EB               [ 4]  813 	ex	de, hl
    000004EE CB 11            [ 8]  814 	rl	c
    000004F0 DAr1Ar09         [10]  815 	jp	c, PLY_AKG_CHANNEL3_READEFFECTS
    000004F3                        816 	PLY_AKG_CHANNEL3_BEFOREEND_STORECELLPOINTER:
    000004F3 22 CC F0         [16]  817 	ld	(PLY_AKG_CHANNEL3_PTTRACK), hl
    000004F6                        818 	PLY_AKG_CHANNEL3_READCELLEND:
    000004F6 3A 01 F0         [13]  819 	ld	a, (PLY_AKG_CURRENTSPEED)
    000004F9                        820 	PLY_AKG_SETSPEEDBEFOREPLAYSTREAMS:
    000004F9 32 04 F0         [13]  821 	ld	(PLY_AKG_TICKDECREASINGCOUNTER), a
    000004FC 2A 56 F0         [16]  822 	ld	hl, (PLY_AKG_CHANNEL1_INVERTEDVOLUMEINTEGERANDDECIMAL)
    000004FF 3A 33 F0         [13]  823 	ld	a, (PLY_AKG_CHANNEL1_ISVOLUMESLIDE)
    00000502 87               [ 4]  824 	add	a, a
    00000503 30 17            [12]  825 	jr	nc, PLY_AKG_CHANNEL1_VOLUMESLIDE_END
    00000505 ED 5B 5E F0      [20]  826 	ld	de, (PLY_AKG_CHANNEL1_VOLUMESLIDEVALUE)
    00000509 19               [11]  827 	add	hl, de
    0000050A CB 7C            [ 8]  828 	bit	7, h
    0000050C 28 04            [12]  829 	jr	z, PLY_AKG_CHANNEL1_VOLUMENOTOVERFLOW
    0000050E 26 00            [ 7]  830 	ld	h, #0x0
    00000510 18 07            [12]  831 	jr	PLY_AKG_CHANNEL1_VOLUMESETAGAIN
    00000512                        832 	PLY_AKG_CHANNEL1_VOLUMENOTOVERFLOW:
    00000512 7C               [ 4]  833 	ld	a, h
    00000513 FE 10            [ 7]  834 	cp	#0x10
    00000515 38 02            [12]  835 	jr	c, PLY_AKG_CHANNEL1_VOLUMESETAGAIN
    00000517 26 0F            [ 7]  836 	ld	h, #0xf
    00000519                        837 	PLY_AKG_CHANNEL1_VOLUMESETAGAIN:
    00000519 22 56 F0         [16]  838 	ld	(PLY_AKG_CHANNEL1_INVERTEDVOLUMEINTEGERANDDECIMAL), hl
    0000051C                        839 	PLY_AKG_CHANNEL1_VOLUMESLIDE_END:
    0000051C 7C               [ 4]  840 	ld	a, h
    0000051D 32 45 F0         [13]  841 	ld	(PLY_AKG_CHANNEL1_GENERATEDCURRENTINVERTEDVOLUME), a
    00000520 0E 00            [ 7]  842 	ld	c, #0x0
    00000522 3A 34 F0         [13]  843 	ld	a, (PLY_AKG_CHANNEL1_ISARPEGGIOTABLE)
    00000525 87               [ 4]  844 	add	a, a
    00000526 30 22            [12]  845 	jr	nc, PLY_AKG_CHANNEL1_ARPEGGIOTABLE_END
    00000528 2A 48 F0         [16]  846 	ld	hl, (PLY_AKG_CHANNEL1_ARPEGGIOTABLE)
    0000052B 7E               [ 7]  847 	ld	a, (hl)
    0000052C FE 80            [ 7]  848 	cp	#0x80
    0000052E 20 06            [12]  849 	jr	nz, PLY_AKG_CHANNEL1_ARPEGGIOTABLE_AFTERLOOPTEST
    00000530 23               [ 6]  850 	inc	hl
    00000531 7E               [ 7]  851 	ld	a, (hl)
    00000532 23               [ 6]  852 	inc	hl
    00000533 66               [ 7]  853 	ld	h, (hl)
    00000534 6F               [ 4]  854 	ld	l, a
    00000535 7E               [ 7]  855 	ld	a, (hl)
    00000536                        856 	PLY_AKG_CHANNEL1_ARPEGGIOTABLE_AFTERLOOPTEST:
    00000536 4F               [ 4]  857 	ld	c, a
    00000537 3A 3D F0         [13]  858 	ld	a, (PLY_AKG_CHANNEL1_ARPEGGIOTABLESPEED)
    0000053A 57               [ 4]  859 	ld	d, a
    0000053B 3A 3A F0         [13]  860 	ld	a, (PLY_AKG_CHANNEL1_ARPEGGIOTABLECURRENTSTEP)
    0000053E 3C               [ 4]  861 	inc	a
    0000053F BA               [ 4]  862 	cp	d
    00000540 38 05            [12]  863 	jr	c, PLY_AKG_CHANNEL1_ARPEGGIOTABLE_BEFOREEND_SAVESTEP
    00000542 23               [ 6]  864 	inc	hl
    00000543 22 48 F0         [16]  865 	ld	(PLY_AKG_CHANNEL1_ARPEGGIOTABLE), hl
    00000546 AF               [ 4]  866 	xor	a
    00000547                        867 	PLY_AKG_CHANNEL1_ARPEGGIOTABLE_BEFOREEND_SAVESTEP:
    00000547 32 3A F0         [13]  868 	ld	(PLY_AKG_CHANNEL1_ARPEGGIOTABLECURRENTSTEP), a
    0000054A                        869 	PLY_AKG_CHANNEL1_ARPEGGIOTABLE_END:
    0000054A 11 00 00         [10]  870 	ld	de, #0x0
    0000054D 3A 35 F0         [13]  871 	ld	a, (PLY_AKG_CHANNEL1_ISPITCHTABLE)
    00000550 87               [ 4]  872 	add	a, a
    00000551 30 18            [12]  873 	jr	nc, PLY_AKG_CHANNEL1_PITCHTABLE_END
    00000553 ED 7B 4E F0      [20]  874 	ld	sp, (PLY_AKG_CHANNEL1_PITCHTABLE)
    00000557 D1               [10]  875 	pop	de
    00000558 E1               [10]  876 	pop	hl
    00000559 3A 40 F0         [13]  877 	ld	a, (PLY_AKG_CHANNEL1_PITCHTABLESPEED)
    0000055C 47               [ 4]  878 	ld	b, a
    0000055D 3A 3E F0         [13]  879 	ld	a, (PLY_AKG_CHANNEL1_PITCHTABLECURRENTSTEP)
    00000560 3C               [ 4]  880 	inc	a
    00000561 B8               [ 4]  881 	cp	b
    00000562 38 04            [12]  882 	jr	c, PLY_AKG_CHANNEL1_PITCHTABLE_BEFOREEND_SAVESTEP
    00000564 22 4E F0         [16]  883 	ld	(PLY_AKG_CHANNEL1_PITCHTABLE), hl
    00000567 AF               [ 4]  884 	xor	a
    00000568                        885 	PLY_AKG_CHANNEL1_PITCHTABLE_BEFOREEND_SAVESTEP:
    00000568 32 3E F0         [13]  886 	ld	(PLY_AKG_CHANNEL1_PITCHTABLECURRENTSTEP), a
    0000056B                        887 	PLY_AKG_CHANNEL1_PITCHTABLE_END:
    0000056B 2A 58 F0         [16]  888 	ld	hl, (PLY_AKG_CHANNEL1_PITCH)
    0000056E 3A 36 F0         [13]  889 	ld	a, (PLY_AKG_CHANNEL1_ISPITCH)
    00000571 87               [ 4]  890 	add	a, a
    00000572 30 63            [12]  891 	jr	nc, PLY_AKG_CHANNEL1_PITCH_END
    00000574 DD                     892 	.db	0xdd
    00000575 69                     893 	.db	0x69
    00000576 ED 4B 4C F0      [20]  894 	ld	bc, (PLY_AKG_CHANNEL1_PITCHTRACK)
    0000057A B7               [ 4]  895 	or	a
    0000057B C3 6B F0         [10]  896 	jp	PLY_AKG_CHANNEL1_PITCHTRACKADDORSBC_16BITS
    0000057E                        897 	PLY_AKG_CHANNEL1_PITCHTRACKADDORSBC_16BITSRETURN:
    0000057E 3A 65 F0         [13]  898 	ld	a, (PLY_AKG_CHANNEL1_PITCHTRACKDECIMALVALUE)
    00000581 47               [ 4]  899 	ld	b, a
    00000582 3A 42 F0         [13]  900 	ld	a, (PLY_AKG_CHANNEL1_PITCHTRACKDECIMALCOUNTER)
    00000585 C3 64 F0         [10]  901 	jp	PLY_AKG_CHANNEL1_PITCHTRACKDECIMALINSTR
    00000588                        902 	PLY_AKG_CHANNEL1_PITCHTRACKDECIMALINSTRANDVALUERETURNAFTERJP:
    00000588 32 42 F0         [13]  903 	ld	(PLY_AKG_CHANNEL1_PITCHTRACKDECIMALCOUNTER), a
    0000058B 30 03            [12]  904 	jr	nc, PLY_AKG_CHANNEL1_PITCHTRACKINTEGERADDORSUBRETURN
    0000058D C3 70 F0         [10]  905 	jp	PLY_AKG_CHANNEL1_PITCHTRACKINTEGERADDORSUB
    00000590                        906 	PLY_AKG_CHANNEL1_PITCHTRACKINTEGERADDORSUBRETURN:
    00000590                        907 	PLY_AKG_CHANNEL1_PITCHNOCARRY:
    00000590 22 58 F0         [16]  908 	ld	(PLY_AKG_CHANNEL1_PITCH), hl
    00000593 3A 44 F0         [13]  909 	ld	a, (PLY_AKG_CHANNEL1_GLIDEDIRECTION)
    00000596 B7               [ 4]  910 	or	a
    00000597 28 3C            [12]  911 	jr	z, PLY_AKG_CHANNEL1_GLIDE_END
    00000599 22 62 F0         [16]  912 	ld	(PLY_AKG_CHANNEL1_GLIDE_SAVEHL), hl
    0000059C 4D               [ 4]  913 	ld	c, l
    0000059D 44               [ 4]  914 	ld	b, h
    0000059E 08               [ 4]  915 	ex	af, af';'
    0000059F 3A 43 F0         [13]  916 	ld	a, (PLY_AKG_CHANNEL1_TRACKNOTE)
    000005A2 87               [ 4]  917 	add	a, a
    000005A3 6F               [ 4]  918 	ld	l, a
    000005A4 08               [ 4]  919 	ex	af, af';'
    000005A5 26 00            [ 7]  920 	ld	h, #0x0
    000005A7 31rBCr0C         [10]  921 	ld	sp, #PLY_AKG_PERIODTABLE
    000005AA 39               [11]  922 	add	hl, sp
    000005AB F9               [ 6]  923 	ld	sp, hl
    000005AC E1               [10]  924 	pop	hl
    000005AD 3B               [ 6]  925 	dec	sp
    000005AE 3B               [ 6]  926 	dec	sp
    000005AF 09               [11]  927 	add	hl, bc
    000005B0 ED 4B 60 F0      [20]  928 	ld	bc, (PLY_AKG_CHANNEL1_GLIDETOREACH)
    000005B4 1F               [ 4]  929 	rra
    000005B5 30 07            [12]  930 	jr	nc, PLY_AKG_CHANNEL1_GLIDEDOWNCHECK
    000005B7 B7               [ 4]  931 	or	a
    000005B8 ED 42            [15]  932 	sbc	hl, bc
    000005BA 30 16            [12]  933 	jr	nc, PLY_AKG_CHANNEL1_GLIDE_BEFOREEND
    000005BC 18 04            [12]  934 	jr	PLY_AKG_CHANNEL1_GLIDEOVER
    000005BE                        935 	PLY_AKG_CHANNEL1_GLIDEDOWNCHECK:
    000005BE ED 42            [15]  936 	sbc	hl, bc
    000005C0 38 10            [12]  937 	jr	c, PLY_AKG_CHANNEL1_GLIDE_BEFOREEND
    000005C2                        938 	PLY_AKG_CHANNEL1_GLIDEOVER:
    000005C2 69               [ 4]  939 	ld	l, c
    000005C3 60               [ 4]  940 	ld	h, b
    000005C4 C1               [10]  941 	pop	bc
    000005C5 B7               [ 4]  942 	or	a
    000005C6 ED 42            [15]  943 	sbc	hl, bc
    000005C8 22 58 F0         [16]  944 	ld	(PLY_AKG_CHANNEL1_PITCH), hl
    000005CB 3E 00            [ 7]  945 	ld	a, #0x0
    000005CD 32 36 F0         [13]  946 	ld	(PLY_AKG_CHANNEL1_ISPITCH), a
    000005D0 18 03            [12]  947 	jr	PLY_AKG_CHANNEL1_GLIDE_END
    000005D2                        948 	PLY_AKG_CHANNEL1_GLIDE_BEFOREEND:
    000005D2 2A 62 F0         [16]  949 	ld	hl, (PLY_AKG_CHANNEL1_GLIDE_SAVEHL)
    000005D5                        950 	PLY_AKG_CHANNEL1_GLIDE_END:
    000005D5 DD                     951 	.db	0xdd
    000005D6 4D                     952 	.db	0x4d
    000005D7                        953 	PLY_AKG_CHANNEL1_PITCH_END:
    000005D7 19               [11]  954 	add	hl, de
    000005D8 22 69 F0         [16]  955 	ld	(PLY_AKG_CHANNEL1_GENERATEDCURRENTPITCH), hl
    000005DB 79               [ 4]  956 	ld	a, c
    000005DC 32 3B F0         [13]  957 	ld	(PLY_AKG_CHANNEL1_GENERATEDCURRENTARPNOTE), a
    000005DF 2A 99 F0         [16]  958 	ld	hl, (PLY_AKG_CHANNEL2_INVERTEDVOLUMEINTEGERANDDECIMAL)
    000005E2 3A 76 F0         [13]  959 	ld	a, (PLY_AKG_CHANNEL2_ISVOLUMESLIDE)
    000005E5 87               [ 4]  960 	add	a, a
    000005E6 30 17            [12]  961 	jr	nc, PLY_AKG_CHANNEL2_VOLUMESLIDE_END
    000005E8 ED 5B A1 F0      [20]  962 	ld	de, (PLY_AKG_CHANNEL2_VOLUMESLIDEVALUE)
    000005EC 19               [11]  963 	add	hl, de
    000005ED CB 7C            [ 8]  964 	bit	7, h
    000005EF 28 04            [12]  965 	jr	z, PLY_AKG_CHANNEL2_VOLUMENOTOVERFLOW
    000005F1 26 00            [ 7]  966 	ld	h, #0x0
    000005F3 18 07            [12]  967 	jr	PLY_AKG_CHANNEL2_VOLUMESETAGAIN
    000005F5                        968 	PLY_AKG_CHANNEL2_VOLUMENOTOVERFLOW:
    000005F5 7C               [ 4]  969 	ld	a, h
    000005F6 FE 10            [ 7]  970 	cp	#0x10
    000005F8 38 02            [12]  971 	jr	c, PLY_AKG_CHANNEL2_VOLUMESETAGAIN
    000005FA 26 0F            [ 7]  972 	ld	h, #0xf
    000005FC                        973 	PLY_AKG_CHANNEL2_VOLUMESETAGAIN:
    000005FC 22 99 F0         [16]  974 	ld	(PLY_AKG_CHANNEL2_INVERTEDVOLUMEINTEGERANDDECIMAL), hl
    000005FF                        975 	PLY_AKG_CHANNEL2_VOLUMESLIDE_END:
    000005FF 7C               [ 4]  976 	ld	a, h
    00000600 32 88 F0         [13]  977 	ld	(PLY_AKG_CHANNEL2_GENERATEDCURRENTINVERTEDVOLUME), a
    00000603 0E 00            [ 7]  978 	ld	c, #0x0
    00000605 3A 77 F0         [13]  979 	ld	a, (PLY_AKG_CHANNEL2_ISARPEGGIOTABLE)
    00000608 87               [ 4]  980 	add	a, a
    00000609 30 22            [12]  981 	jr	nc, PLY_AKG_CHANNEL2_ARPEGGIOTABLE_END
    0000060B 2A 8B F0         [16]  982 	ld	hl, (PLY_AKG_CHANNEL2_ARPEGGIOTABLE)
    0000060E 7E               [ 7]  983 	ld	a, (hl)
    0000060F FE 80            [ 7]  984 	cp	#0x80
    00000611 20 06            [12]  985 	jr	nz, PLY_AKG_CHANNEL2_ARPEGGIOTABLE_AFTERLOOPTEST
    00000613 23               [ 6]  986 	inc	hl
    00000614 7E               [ 7]  987 	ld	a, (hl)
    00000615 23               [ 6]  988 	inc	hl
    00000616 66               [ 7]  989 	ld	h, (hl)
    00000617 6F               [ 4]  990 	ld	l, a
    00000618 7E               [ 7]  991 	ld	a, (hl)
    00000619                        992 	PLY_AKG_CHANNEL2_ARPEGGIOTABLE_AFTERLOOPTEST:
    00000619 4F               [ 4]  993 	ld	c, a
    0000061A 3A 80 F0         [13]  994 	ld	a, (PLY_AKG_CHANNEL2_ARPEGGIOTABLESPEED)
    0000061D 57               [ 4]  995 	ld	d, a
    0000061E 3A 7D F0         [13]  996 	ld	a, (PLY_AKG_CHANNEL2_ARPEGGIOTABLECURRENTSTEP)
    00000621 3C               [ 4]  997 	inc	a
    00000622 BA               [ 4]  998 	cp	d
    00000623 38 05            [12]  999 	jr	c, PLY_AKG_CHANNEL2_ARPEGGIOTABLE_BEFOREEND_SAVESTEP
    00000625 23               [ 6] 1000 	inc	hl
    00000626 22 8B F0         [16] 1001 	ld	(PLY_AKG_CHANNEL2_ARPEGGIOTABLE), hl
    00000629 AF               [ 4] 1002 	xor	a
    0000062A                       1003 	PLY_AKG_CHANNEL2_ARPEGGIOTABLE_BEFOREEND_SAVESTEP:
    0000062A 32 7D F0         [13] 1004 	ld	(PLY_AKG_CHANNEL2_ARPEGGIOTABLECURRENTSTEP), a
    0000062D                       1005 	PLY_AKG_CHANNEL2_ARPEGGIOTABLE_END:
    0000062D 11 00 00         [10] 1006 	ld	de, #0x0
    00000630 3A 78 F0         [13] 1007 	ld	a, (PLY_AKG_CHANNEL2_ISPITCHTABLE)
    00000633 87               [ 4] 1008 	add	a, a
    00000634 30 18            [12] 1009 	jr	nc, PLY_AKG_CHANNEL2_PITCHTABLE_END
    00000636 ED 7B 91 F0      [20] 1010 	ld	sp, (PLY_AKG_CHANNEL2_PITCHTABLE)
    0000063A D1               [10] 1011 	pop	de
    0000063B E1               [10] 1012 	pop	hl
    0000063C 3A 83 F0         [13] 1013 	ld	a, (PLY_AKG_CHANNEL2_PITCHTABLESPEED)
    0000063F 47               [ 4] 1014 	ld	b, a
    00000640 3A 81 F0         [13] 1015 	ld	a, (PLY_AKG_CHANNEL2_PITCHTABLECURRENTSTEP)
    00000643 3C               [ 4] 1016 	inc	a
    00000644 B8               [ 4] 1017 	cp	b
    00000645 38 04            [12] 1018 	jr	c, PLY_AKG_CHANNEL2_PITCHTABLE_BEFOREEND_SAVESTEP
    00000647 22 91 F0         [16] 1019 	ld	(PLY_AKG_CHANNEL2_PITCHTABLE), hl
    0000064A AF               [ 4] 1020 	xor	a
    0000064B                       1021 	PLY_AKG_CHANNEL2_PITCHTABLE_BEFOREEND_SAVESTEP:
    0000064B 32 81 F0         [13] 1022 	ld	(PLY_AKG_CHANNEL2_PITCHTABLECURRENTSTEP), a
    0000064E                       1023 	PLY_AKG_CHANNEL2_PITCHTABLE_END:
    0000064E 2A 9B F0         [16] 1024 	ld	hl, (PLY_AKG_CHANNEL2_PITCH)
    00000651 3A 79 F0         [13] 1025 	ld	a, (PLY_AKG_CHANNEL2_ISPITCH)
    00000654 87               [ 4] 1026 	add	a, a
    00000655 30 63            [12] 1027 	jr	nc, PLY_AKG_CHANNEL2_PITCH_END
    00000657 DD                    1028 	.db	0xdd
    00000658 69                    1029 	.db	0x69
    00000659 ED 4B 8F F0      [20] 1030 	ld	bc, (PLY_AKG_CHANNEL2_PITCHTRACK)
    0000065D B7               [ 4] 1031 	or	a
    0000065E C3 AE F0         [10] 1032 	jp	PLY_AKG_CHANNEL2_PITCHTRACKADDORSBC_16BITS
    00000661                       1033 	PLY_AKG_CHANNEL2_PITCHTRACKADDORSBC_16BITSRETURN:
    00000661 3A A8 F0         [13] 1034 	ld	a, (PLY_AKG_CHANNEL2_PITCHTRACKDECIMALVALUE)
    00000664 47               [ 4] 1035 	ld	b, a
    00000665 3A 85 F0         [13] 1036 	ld	a, (PLY_AKG_CHANNEL2_PITCHTRACKDECIMALCOUNTER)
    00000668 C3 A7 F0         [10] 1037 	jp	PLY_AKG_CHANNEL2_PITCHTRACKDECIMALINSTR
    0000066B                       1038 	PLY_AKG_CHANNEL2_PITCHTRACKDECIMALINSTRANDVALUERETURNAFTERJP:
    0000066B 32 85 F0         [13] 1039 	ld	(PLY_AKG_CHANNEL2_PITCHTRACKDECIMALCOUNTER), a
    0000066E 30 03            [12] 1040 	jr	nc, PLY_AKG_CHANNEL2_PITCHTRACKINTEGERADDORSUBRETURN
    00000670 C3 B3 F0         [10] 1041 	jp	PLY_AKG_CHANNEL2_PITCHTRACKINTEGERADDORSUB
    00000673                       1042 	PLY_AKG_CHANNEL2_PITCHTRACKINTEGERADDORSUBRETURN:
    00000673                       1043 	PLY_AKG_CHANNEL2_PITCHNOCARRY:
    00000673 22 9B F0         [16] 1044 	ld	(PLY_AKG_CHANNEL2_PITCH), hl
    00000676 3A 87 F0         [13] 1045 	ld	a, (PLY_AKG_CHANNEL2_GLIDEDIRECTION)
    00000679 B7               [ 4] 1046 	or	a
    0000067A 28 3C            [12] 1047 	jr	z, PLY_AKG_CHANNEL2_GLIDE_END
    0000067C 22 A5 F0         [16] 1048 	ld	(PLY_AKG_CHANNEL2_GLIDE_SAVEHL), hl
    0000067F 4D               [ 4] 1049 	ld	c, l
    00000680 44               [ 4] 1050 	ld	b, h
    00000681 08               [ 4] 1051 	ex	af, af';'
    00000682 3A 86 F0         [13] 1052 	ld	a, (PLY_AKG_CHANNEL2_TRACKNOTE)
    00000685 87               [ 4] 1053 	add	a, a
    00000686 6F               [ 4] 1054 	ld	l, a
    00000687 08               [ 4] 1055 	ex	af, af';'
    00000688 26 00            [ 7] 1056 	ld	h, #0x0
    0000068A 31rBCr0C         [10] 1057 	ld	sp, #PLY_AKG_PERIODTABLE
    0000068D 39               [11] 1058 	add	hl, sp
    0000068E F9               [ 6] 1059 	ld	sp, hl
    0000068F E1               [10] 1060 	pop	hl
    00000690 3B               [ 6] 1061 	dec	sp
    00000691 3B               [ 6] 1062 	dec	sp
    00000692 09               [11] 1063 	add	hl, bc
    00000693 ED 4B A3 F0      [20] 1064 	ld	bc, (PLY_AKG_CHANNEL2_GLIDETOREACH)
    00000697 1F               [ 4] 1065 	rra
    00000698 30 07            [12] 1066 	jr	nc, PLY_AKG_CHANNEL2_GLIDEDOWNCHECK
    0000069A B7               [ 4] 1067 	or	a
    0000069B ED 42            [15] 1068 	sbc	hl, bc
    0000069D 30 16            [12] 1069 	jr	nc, PLY_AKG_CHANNEL2_GLIDE_BEFOREEND
    0000069F 18 04            [12] 1070 	jr	PLY_AKG_CHANNEL2_GLIDEOVER
    000006A1                       1071 	PLY_AKG_CHANNEL2_GLIDEDOWNCHECK:
    000006A1 ED 42            [15] 1072 	sbc	hl, bc
    000006A3 38 10            [12] 1073 	jr	c, PLY_AKG_CHANNEL2_GLIDE_BEFOREEND
    000006A5                       1074 	PLY_AKG_CHANNEL2_GLIDEOVER:
    000006A5 69               [ 4] 1075 	ld	l, c
    000006A6 60               [ 4] 1076 	ld	h, b
    000006A7 C1               [10] 1077 	pop	bc
    000006A8 B7               [ 4] 1078 	or	a
    000006A9 ED 42            [15] 1079 	sbc	hl, bc
    000006AB 22 9B F0         [16] 1080 	ld	(PLY_AKG_CHANNEL2_PITCH), hl
    000006AE 3E 00            [ 7] 1081 	ld	a, #0x0
    000006B0 32 79 F0         [13] 1082 	ld	(PLY_AKG_CHANNEL2_ISPITCH), a
    000006B3 18 03            [12] 1083 	jr	PLY_AKG_CHANNEL2_GLIDE_END
    000006B5                       1084 	PLY_AKG_CHANNEL2_GLIDE_BEFOREEND:
    000006B5 2A A5 F0         [16] 1085 	ld	hl, (PLY_AKG_CHANNEL2_GLIDE_SAVEHL)
    000006B8                       1086 	PLY_AKG_CHANNEL2_GLIDE_END:
    000006B8 DD                    1087 	.db	0xdd
    000006B9 4D                    1088 	.db	0x4d
    000006BA                       1089 	PLY_AKG_CHANNEL2_PITCH_END:
    000006BA 19               [11] 1090 	add	hl, de
    000006BB 22 AC F0         [16] 1091 	ld	(PLY_AKG_CHANNEL2_GENERATEDCURRENTPITCH), hl
    000006BE 79               [ 4] 1092 	ld	a, c
    000006BF 32 7E F0         [13] 1093 	ld	(PLY_AKG_CHANNEL2_GENERATEDCURRENTARPNOTE), a
    000006C2 2A DC F0         [16] 1094 	ld	hl, (PLY_AKG_CHANNEL3_INVERTEDVOLUMEINTEGERANDDECIMAL)
    000006C5 3A B9 F0         [13] 1095 	ld	a, (PLY_AKG_CHANNEL3_ISVOLUMESLIDE)
    000006C8 87               [ 4] 1096 	add	a, a
    000006C9 30 17            [12] 1097 	jr	nc, PLY_AKG_CHANNEL3_VOLUMESLIDE_END
    000006CB ED 5B E4 F0      [20] 1098 	ld	de, (PLY_AKG_CHANNEL3_VOLUMESLIDEVALUE)
    000006CF 19               [11] 1099 	add	hl, de
    000006D0 CB 7C            [ 8] 1100 	bit	7, h
    000006D2 28 04            [12] 1101 	jr	z, PLY_AKG_CHANNEL3_VOLUMENOTOVERFLOW
    000006D4 26 00            [ 7] 1102 	ld	h, #0x0
    000006D6 18 07            [12] 1103 	jr	PLY_AKG_CHANNEL3_VOLUMESETAGAIN
    000006D8                       1104 	PLY_AKG_CHANNEL3_VOLUMENOTOVERFLOW:
    000006D8 7C               [ 4] 1105 	ld	a, h
    000006D9 FE 10            [ 7] 1106 	cp	#0x10
    000006DB 38 02            [12] 1107 	jr	c, PLY_AKG_CHANNEL3_VOLUMESETAGAIN
    000006DD 26 0F            [ 7] 1108 	ld	h, #0xf
    000006DF                       1109 	PLY_AKG_CHANNEL3_VOLUMESETAGAIN:
    000006DF 22 DC F0         [16] 1110 	ld	(PLY_AKG_CHANNEL3_INVERTEDVOLUMEINTEGERANDDECIMAL), hl
    000006E2                       1111 	PLY_AKG_CHANNEL3_VOLUMESLIDE_END:
    000006E2 7C               [ 4] 1112 	ld	a, h
    000006E3 32 CB F0         [13] 1113 	ld	(PLY_AKG_CHANNEL3_GENERATEDCURRENTINVERTEDVOLUME), a
    000006E6 0E 00            [ 7] 1114 	ld	c, #0x0
    000006E8 3A BA F0         [13] 1115 	ld	a, (PLY_AKG_CHANNEL3_ISARPEGGIOTABLE)
    000006EB 87               [ 4] 1116 	add	a, a
    000006EC 30 22            [12] 1117 	jr	nc, PLY_AKG_CHANNEL3_ARPEGGIOTABLE_END
    000006EE 2A CE F0         [16] 1118 	ld	hl, (PLY_AKG_CHANNEL3_ARPEGGIOTABLE)
    000006F1 7E               [ 7] 1119 	ld	a, (hl)
    000006F2 FE 80            [ 7] 1120 	cp	#0x80
    000006F4 20 06            [12] 1121 	jr	nz, PLY_AKG_CHANNEL3_ARPEGGIOTABLE_AFTERLOOPTEST
    000006F6 23               [ 6] 1122 	inc	hl
    000006F7 7E               [ 7] 1123 	ld	a, (hl)
    000006F8 23               [ 6] 1124 	inc	hl
    000006F9 66               [ 7] 1125 	ld	h, (hl)
    000006FA 6F               [ 4] 1126 	ld	l, a
    000006FB 7E               [ 7] 1127 	ld	a, (hl)
    000006FC                       1128 	PLY_AKG_CHANNEL3_ARPEGGIOTABLE_AFTERLOOPTEST:
    000006FC 4F               [ 4] 1129 	ld	c, a
    000006FD 3A C3 F0         [13] 1130 	ld	a, (PLY_AKG_CHANNEL3_ARPEGGIOTABLESPEED)
    00000700 57               [ 4] 1131 	ld	d, a
    00000701 3A C0 F0         [13] 1132 	ld	a, (PLY_AKG_CHANNEL3_ARPEGGIOTABLECURRENTSTEP)
    00000704 3C               [ 4] 1133 	inc	a
    00000705 BA               [ 4] 1134 	cp	d
    00000706 38 05            [12] 1135 	jr	c, PLY_AKG_CHANNEL3_ARPEGGIOTABLE_BEFOREEND_SAVESTEP
    00000708 23               [ 6] 1136 	inc	hl
    00000709 22 CE F0         [16] 1137 	ld	(PLY_AKG_CHANNEL3_ARPEGGIOTABLE), hl
    0000070C AF               [ 4] 1138 	xor	a
    0000070D                       1139 	PLY_AKG_CHANNEL3_ARPEGGIOTABLE_BEFOREEND_SAVESTEP:
    0000070D 32 C0 F0         [13] 1140 	ld	(PLY_AKG_CHANNEL3_ARPEGGIOTABLECURRENTSTEP), a
    00000710                       1141 	PLY_AKG_CHANNEL3_ARPEGGIOTABLE_END:
    00000710 11 00 00         [10] 1142 	ld	de, #0x0
    00000713 3A BB F0         [13] 1143 	ld	a, (PLY_AKG_CHANNEL3_ISPITCHTABLE)
    00000716 87               [ 4] 1144 	add	a, a
    00000717 30 18            [12] 1145 	jr	nc, PLY_AKG_CHANNEL3_PITCHTABLE_END
    00000719 ED 7B D4 F0      [20] 1146 	ld	sp, (PLY_AKG_CHANNEL3_PITCHTABLE)
    0000071D D1               [10] 1147 	pop	de
    0000071E E1               [10] 1148 	pop	hl
    0000071F 3A C6 F0         [13] 1149 	ld	a, (PLY_AKG_CHANNEL3_PITCHTABLESPEED)
    00000722 47               [ 4] 1150 	ld	b, a
    00000723 3A C4 F0         [13] 1151 	ld	a, (PLY_AKG_CHANNEL3_PITCHTABLECURRENTSTEP)
    00000726 3C               [ 4] 1152 	inc	a
    00000727 B8               [ 4] 1153 	cp	b
    00000728 38 04            [12] 1154 	jr	c, PLY_AKG_CHANNEL3_PITCHTABLE_BEFOREEND_SAVESTEP
    0000072A 22 D4 F0         [16] 1155 	ld	(PLY_AKG_CHANNEL3_PITCHTABLE), hl
    0000072D AF               [ 4] 1156 	xor	a
    0000072E                       1157 	PLY_AKG_CHANNEL3_PITCHTABLE_BEFOREEND_SAVESTEP:
    0000072E 32 C4 F0         [13] 1158 	ld	(PLY_AKG_CHANNEL3_PITCHTABLECURRENTSTEP), a
    00000731                       1159 	PLY_AKG_CHANNEL3_PITCHTABLE_END:
    00000731 2A DE F0         [16] 1160 	ld	hl, (PLY_AKG_CHANNEL3_PITCH)
    00000734 3A BC F0         [13] 1161 	ld	a, (PLY_AKG_CHANNEL3_ISPITCH)
    00000737 87               [ 4] 1162 	add	a, a
    00000738 30 63            [12] 1163 	jr	nc, PLY_AKG_CHANNEL3_PITCH_END
    0000073A DD                    1164 	.db	0xdd
    0000073B 69                    1165 	.db	0x69
    0000073C ED 4B D2 F0      [20] 1166 	ld	bc, (PLY_AKG_CHANNEL3_PITCHTRACK)
    00000740 B7               [ 4] 1167 	or	a
    00000741 C3 F1 F0         [10] 1168 	jp	PLY_AKG_CHANNEL3_PITCHTRACKADDORSBC_16BITS
    00000744                       1169 	PLY_AKG_CHANNEL3_PITCHTRACKADDORSBC_16BITSRETURN:
    00000744 3A EB F0         [13] 1170 	ld	a, (PLY_AKG_CHANNEL3_PITCHTRACKDECIMALVALUE)
    00000747 47               [ 4] 1171 	ld	b, a
    00000748 3A C8 F0         [13] 1172 	ld	a, (PLY_AKG_CHANNEL3_PITCHTRACKDECIMALCOUNTER)
    0000074B C3 EA F0         [10] 1173 	jp	PLY_AKG_CHANNEL3_PITCHTRACKDECIMALINSTR
    0000074E                       1174 	PLY_AKG_CHANNEL3_PITCHTRACKDECIMALINSTRANDVALUERETURNAFTERJP:
    0000074E 32 C8 F0         [13] 1175 	ld	(PLY_AKG_CHANNEL3_PITCHTRACKDECIMALCOUNTER), a
    00000751 30 03            [12] 1176 	jr	nc, PLY_AKG_CHANNEL3_PITCHTRACKINTEGERADDORSUBRETURN
    00000753 C3 F6 F0         [10] 1177 	jp	PLY_AKG_CHANNEL3_PITCHTRACKINTEGERADDORSUB
    00000756                       1178 	PLY_AKG_CHANNEL3_PITCHTRACKINTEGERADDORSUBRETURN:
    00000756                       1179 	PLY_AKG_CHANNEL3_PITCHNOCARRY:
    00000756 22 DE F0         [16] 1180 	ld	(PLY_AKG_CHANNEL3_PITCH), hl
    00000759 3A CA F0         [13] 1181 	ld	a, (PLY_AKG_CHANNEL3_GLIDEDIRECTION)
    0000075C B7               [ 4] 1182 	or	a
    0000075D 28 3C            [12] 1183 	jr	z, PLY_AKG_CHANNEL3_GLIDE_END
    0000075F 22 E8 F0         [16] 1184 	ld	(PLY_AKG_CHANNEL3_GLIDE_SAVEHL), hl
    00000762 4D               [ 4] 1185 	ld	c, l
    00000763 44               [ 4] 1186 	ld	b, h
    00000764 08               [ 4] 1187 	ex	af, af';'
    00000765 3A C9 F0         [13] 1188 	ld	a, (PLY_AKG_CHANNEL3_TRACKNOTE)
    00000768 87               [ 4] 1189 	add	a, a
    00000769 6F               [ 4] 1190 	ld	l, a
    0000076A 08               [ 4] 1191 	ex	af, af';'
    0000076B 26 00            [ 7] 1192 	ld	h, #0x0
    0000076D 31rBCr0C         [10] 1193 	ld	sp, #PLY_AKG_PERIODTABLE
    00000770 39               [11] 1194 	add	hl, sp
    00000771 F9               [ 6] 1195 	ld	sp, hl
    00000772 E1               [10] 1196 	pop	hl
    00000773 3B               [ 6] 1197 	dec	sp
    00000774 3B               [ 6] 1198 	dec	sp
    00000775 09               [11] 1199 	add	hl, bc
    00000776 ED 4B E6 F0      [20] 1200 	ld	bc, (PLY_AKG_CHANNEL3_GLIDETOREACH)
    0000077A 1F               [ 4] 1201 	rra
    0000077B 30 07            [12] 1202 	jr	nc, PLY_AKG_CHANNEL3_GLIDEDOWNCHECK
    0000077D B7               [ 4] 1203 	or	a
    0000077E ED 42            [15] 1204 	sbc	hl, bc
    00000780 30 16            [12] 1205 	jr	nc, PLY_AKG_CHANNEL3_GLIDE_BEFOREEND
    00000782 18 04            [12] 1206 	jr	PLY_AKG_CHANNEL3_GLIDEOVER
    00000784                       1207 	PLY_AKG_CHANNEL3_GLIDEDOWNCHECK:
    00000784 ED 42            [15] 1208 	sbc	hl, bc
    00000786 38 10            [12] 1209 	jr	c, PLY_AKG_CHANNEL3_GLIDE_BEFOREEND
    00000788                       1210 	PLY_AKG_CHANNEL3_GLIDEOVER:
    00000788 69               [ 4] 1211 	ld	l, c
    00000789 60               [ 4] 1212 	ld	h, b
    0000078A C1               [10] 1213 	pop	bc
    0000078B B7               [ 4] 1214 	or	a
    0000078C ED 42            [15] 1215 	sbc	hl, bc
    0000078E 22 DE F0         [16] 1216 	ld	(PLY_AKG_CHANNEL3_PITCH), hl
    00000791 3E 00            [ 7] 1217 	ld	a, #0x0
    00000793 32 BC F0         [13] 1218 	ld	(PLY_AKG_CHANNEL3_ISPITCH), a
    00000796 18 03            [12] 1219 	jr	PLY_AKG_CHANNEL3_GLIDE_END
    00000798                       1220 	PLY_AKG_CHANNEL3_GLIDE_BEFOREEND:
    00000798 2A E8 F0         [16] 1221 	ld	hl, (PLY_AKG_CHANNEL3_GLIDE_SAVEHL)
    0000079B                       1222 	PLY_AKG_CHANNEL3_GLIDE_END:
    0000079B DD                    1223 	.db	0xdd
    0000079C 4D                    1224 	.db	0x4d
    0000079D                       1225 	PLY_AKG_CHANNEL3_PITCH_END:
    0000079D 19               [11] 1226 	add	hl, de
    0000079E 22 EF F0         [16] 1227 	ld	(PLY_AKG_CHANNEL3_GENERATEDCURRENTPITCH), hl
    000007A1 79               [ 4] 1228 	ld	a, c
    000007A2 32 C1 F0         [13] 1229 	ld	(PLY_AKG_CHANNEL3_GENERATEDCURRENTARPNOTE), a
    000007A5 ED 7B 1B F0      [20] 1230 	ld	sp, (PLY_AKG_SAVESP)
    000007A9 2A 69 F0         [16] 1231 	ld	hl, (PLY_AKG_CHANNEL1_GENERATEDCURRENTPITCH)
    000007AC 3A 43 F0         [13] 1232 	ld	a, (PLY_AKG_CHANNEL1_TRACKNOTE)
    000007AF 5F               [ 4] 1233 	ld	e, a
    000007B0 3A 3B F0         [13] 1234 	ld	a, (PLY_AKG_CHANNEL1_GENERATEDCURRENTARPNOTE)
    000007B3 83               [ 4] 1235 	add	a, e
    000007B4 5F               [ 4] 1236 	ld	e, a
    000007B5 16 00            [ 7] 1237 	ld	d, #0x0
    000007B7 D9               [ 4] 1238 	exx
    000007B8 3A 39 F0         [13] 1239 	ld	a, (PLY_AKG_CHANNEL1_INSTRUMENTSTEP)
    000007BB FD                    1240 	.db	0xfd
    000007BC 6F                    1241 	.db	0x6f
    000007BD 2A 5A F0         [16] 1242 	ld	hl, (PLY_AKG_CHANNEL1_PTINSTRUMENT)
    000007C0 3A 45 F0         [13] 1243 	ld	a, (PLY_AKG_CHANNEL1_GENERATEDCURRENTINVERTEDVOLUME)
    000007C3 5F               [ 4] 1244 	ld	e, a
    000007C4 16 E0            [ 7] 1245 	ld	d, #0xe0
    000007C6 CDr68r09         [17] 1246 	call	PLY_AKG_READINSTRUMENTCELL
    000007C9 3A 38 F0         [13] 1247 	ld	a, (PLY_AKG_CHANNEL1_INSTRUMENTSPEED)
    000007CC 47               [ 4] 1248 	ld	b, a
    000007CD FD                    1249 	.db	0xfd
    000007CE 7D                    1250 	.db	0x7d
    000007CF 3C               [ 4] 1251 	inc	a
    000007D0 B8               [ 4] 1252 	cp	b
    000007D1 38 04            [12] 1253 	jr	c, PLY_AKG_CHANNEL1_SETINSTRUMENTSTEP
    000007D3 22 5A F0         [16] 1254 	ld	(PLY_AKG_CHANNEL1_PTINSTRUMENT), hl
    000007D6 AF               [ 4] 1255 	xor	a
    000007D7                       1256 	PLY_AKG_CHANNEL1_SETINSTRUMENTSTEP:
    000007D7 32 39 F0         [13] 1257 	ld	(PLY_AKG_CHANNEL1_INSTRUMENTSTEP), a
    000007DA 7B               [ 4] 1258 	ld	a, e
    000007DB 32 24 F0         [13] 1259 	ld	(PLY_AKG_PSGREG8), a
    000007DE CB 3A            [ 8] 1260 	srl	d
    000007E0 D9               [ 4] 1261 	exx
    000007E1 22 1D F0         [16] 1262 	ld	(PLY_AKG_PSGREG01_INSTR), hl
    000007E4 2A AC F0         [16] 1263 	ld	hl, (PLY_AKG_CHANNEL2_GENERATEDCURRENTPITCH)
    000007E7 3A 86 F0         [13] 1264 	ld	a, (PLY_AKG_CHANNEL2_TRACKNOTE)
    000007EA 5F               [ 4] 1265 	ld	e, a
    000007EB 3A 7E F0         [13] 1266 	ld	a, (PLY_AKG_CHANNEL2_GENERATEDCURRENTARPNOTE)
    000007EE 83               [ 4] 1267 	add	a, e
    000007EF 5F               [ 4] 1268 	ld	e, a
    000007F0 16 00            [ 7] 1269 	ld	d, #0x0
    000007F2 D9               [ 4] 1270 	exx
    000007F3 3A 7C F0         [13] 1271 	ld	a, (PLY_AKG_CHANNEL2_INSTRUMENTSTEP)
    000007F6 FD                    1272 	.db	0xfd
    000007F7 6F                    1273 	.db	0x6f
    000007F8 2A 9D F0         [16] 1274 	ld	hl, (PLY_AKG_CHANNEL2_PTINSTRUMENT)
    000007FB 3A 88 F0         [13] 1275 	ld	a, (PLY_AKG_CHANNEL2_GENERATEDCURRENTINVERTEDVOLUME)
    000007FE 5F               [ 4] 1276 	ld	e, a
    000007FF CDr68r09         [17] 1277 	call	PLY_AKG_READINSTRUMENTCELL
    00000802 3A 7B F0         [13] 1278 	ld	a, (PLY_AKG_CHANNEL2_INSTRUMENTSPEED)
    00000805 47               [ 4] 1279 	ld	b, a
    00000806 FD                    1280 	.db	0xfd
    00000807 7D                    1281 	.db	0x7d
    00000808 3C               [ 4] 1282 	inc	a
    00000809 B8               [ 4] 1283 	cp	b
    0000080A 38 04            [12] 1284 	jr	c, PLY_AKG_CHANNEL2_SETINSTRUMENTSTEP
    0000080C 22 9D F0         [16] 1285 	ld	(PLY_AKG_CHANNEL2_PTINSTRUMENT), hl
    0000080F AF               [ 4] 1286 	xor	a
    00000810                       1287 	PLY_AKG_CHANNEL2_SETINSTRUMENTSTEP:
    00000810 32 7C F0         [13] 1288 	ld	(PLY_AKG_CHANNEL2_INSTRUMENTSTEP), a
    00000813 7B               [ 4] 1289 	ld	a, e
    00000814 32 25 F0         [13] 1290 	ld	(PLY_AKG_PSGREG9_10_INSTR), a
    00000817 37               [ 4] 1291 	scf
    00000818 CB 1A            [ 8] 1292 	rr	d
    0000081A D9               [ 4] 1293 	exx
    0000081B 22 1F F0         [16] 1294 	ld	(PLY_AKG_PSGREG23_INSTR), hl
    0000081E 2A EF F0         [16] 1295 	ld	hl, (PLY_AKG_CHANNEL3_GENERATEDCURRENTPITCH)
    00000821 3A C9 F0         [13] 1296 	ld	a, (PLY_AKG_CHANNEL3_TRACKNOTE)
    00000824 5F               [ 4] 1297 	ld	e, a
    00000825 3A C1 F0         [13] 1298 	ld	a, (PLY_AKG_CHANNEL3_GENERATEDCURRENTARPNOTE)
    00000828 83               [ 4] 1299 	add	a, e
    00000829 5F               [ 4] 1300 	ld	e, a
    0000082A 16 00            [ 7] 1301 	ld	d, #0x0
    0000082C D9               [ 4] 1302 	exx
    0000082D 3A BF F0         [13] 1303 	ld	a, (PLY_AKG_CHANNEL3_INSTRUMENTSTEP)
    00000830 FD                    1304 	.db	0xfd
    00000831 6F                    1305 	.db	0x6f
    00000832 2A E0 F0         [16] 1306 	ld	hl, (PLY_AKG_CHANNEL3_PTINSTRUMENT)
    00000835 3A CB F0         [13] 1307 	ld	a, (PLY_AKG_CHANNEL3_GENERATEDCURRENTINVERTEDVOLUME)
    00000838 5F               [ 4] 1308 	ld	e, a
    00000839 CDr68r09         [17] 1309 	call	PLY_AKG_READINSTRUMENTCELL
    0000083C 3A BE F0         [13] 1310 	ld	a, (PLY_AKG_CHANNEL3_INSTRUMENTSPEED)
    0000083F 47               [ 4] 1311 	ld	b, a
    00000840 FD                    1312 	.db	0xfd
    00000841 7D                    1313 	.db	0x7d
    00000842 3C               [ 4] 1314 	inc	a
    00000843 B8               [ 4] 1315 	cp	b
    00000844 38 04            [12] 1316 	jr	c, PLY_AKG_CHANNEL3_SETINSTRUMENTSTEP
    00000846 22 E0 F0         [16] 1317 	ld	(PLY_AKG_CHANNEL3_PTINSTRUMENT), hl
    00000849 AF               [ 4] 1318 	xor	a
    0000084A                       1319 	PLY_AKG_CHANNEL3_SETINSTRUMENTSTEP:
    0000084A 32 BF F0         [13] 1320 	ld	(PLY_AKG_CHANNEL3_INSTRUMENTSTEP), a
    0000084D 7B               [ 4] 1321 	ld	a, e
    0000084E 32 26 F0         [13] 1322 	ld	(PLY_AKG_PSGREG10), a
    00000851 7A               [ 4] 1323 	ld	a, d
    00000852 D9               [ 4] 1324 	exx
    00000853 22 21 F0         [16] 1325 	ld	(PLY_AKG_PSGREG45_INSTR), hl
    00000856 CDr3Ar00         [17] 1326 	call	PLY_AKG_PLAYSOUNDEFFECTSSTREAM
    00000859                       1327 	PLY_AKG_SENDPSGREGISTERS:
    00000859 47               [ 4] 1328 	ld	b, a
    0000085A 3E 07            [ 7] 1329 	ld	a, #0x7
    0000085C D3 A0            [11] 1330 	out	(0xa0), a
    0000085E 78               [ 4] 1331 	ld	a, b
    0000085F D3 A1            [11] 1332 	out	(0xa1), a
    00000861 2A 1D F0         [16] 1333 	ld	hl, (PLY_AKG_PSGREG01_INSTR)
    00000864 AF               [ 4] 1334 	xor	a
    00000865 D3 A0            [11] 1335 	out	(0xa0), a
    00000867 7D               [ 4] 1336 	ld	a, l
    00000868 D3 A1            [11] 1337 	out	(0xa1), a
    0000086A 3E 01            [ 7] 1338 	ld	a, #0x1
    0000086C D3 A0            [11] 1339 	out	(0xa0), a
    0000086E 7C               [ 4] 1340 	ld	a, h
    0000086F D3 A1            [11] 1341 	out	(0xa1), a
    00000871 2A 1F F0         [16] 1342 	ld	hl, (PLY_AKG_PSGREG23_INSTR)
    00000874 3E 02            [ 7] 1343 	ld	a, #0x2
    00000876 D3 A0            [11] 1344 	out	(0xa0), a
    00000878 7D               [ 4] 1345 	ld	a, l
    00000879 D3 A1            [11] 1346 	out	(0xa1), a
    0000087B 3E 03            [ 7] 1347 	ld	a, #0x3
    0000087D D3 A0            [11] 1348 	out	(0xa0), a
    0000087F 7C               [ 4] 1349 	ld	a, h
    00000880 D3 A1            [11] 1350 	out	(0xa1), a
    00000882 2A 21 F0         [16] 1351 	ld	hl, (PLY_AKG_PSGREG45_INSTR)
    00000885 3E 04            [ 7] 1352 	ld	a, #0x4
    00000887 D3 A0            [11] 1353 	out	(0xa0), a
    00000889 7D               [ 4] 1354 	ld	a, l
    0000088A D3 A1            [11] 1355 	out	(0xa1), a
    0000088C 3E 05            [ 7] 1356 	ld	a, #0x5
    0000088E D3 A0            [11] 1357 	out	(0xa0), a
    00000890 7C               [ 4] 1358 	ld	a, h
    00000891 D3 A1            [11] 1359 	out	(0xa1), a
    00000893 2A 23 F0         [16] 1360 	ld	hl, (PLY_AKG_PSGREG6_8_INSTR)
    00000896 3E 06            [ 7] 1361 	ld	a, #0x6
    00000898 D3 A0            [11] 1362 	out	(0xa0), a
    0000089A 7D               [ 4] 1363 	ld	a, l
    0000089B D3 A1            [11] 1364 	out	(0xa1), a
    0000089D 3E 08            [ 7] 1365 	ld	a, #0x8
    0000089F D3 A0            [11] 1366 	out	(0xa0), a
    000008A1 7C               [ 4] 1367 	ld	a, h
    000008A2 D3 A1            [11] 1368 	out	(0xa1), a
    000008A4 2A 25 F0         [16] 1369 	ld	hl, (PLY_AKG_PSGREG9_10_INSTR)
    000008A7 3E 09            [ 7] 1370 	ld	a, #0x9
    000008A9 D3 A0            [11] 1371 	out	(0xa0), a
    000008AB 7D               [ 4] 1372 	ld	a, l
    000008AC D3 A1            [11] 1373 	out	(0xa1), a
    000008AE 3E 0A            [ 7] 1374 	ld	a, #0xa
    000008B0 D3 A0            [11] 1375 	out	(0xa0), a
    000008B2 7C               [ 4] 1376 	ld	a, h
    000008B3 D3 A1            [11] 1377 	out	(0xa1), a
    000008B5 2A 27 F0         [16] 1378 	ld	hl, (PLY_AKG_PSGHARDWAREPERIOD_INSTR)
    000008B8 3E 0B            [ 7] 1379 	ld	a, #0xb
    000008BA D3 A0            [11] 1380 	out	(0xa0), a
    000008BC 7D               [ 4] 1381 	ld	a, l
    000008BD D3 A1            [11] 1382 	out	(0xa1), a
    000008BF 3E 0C            [ 7] 1383 	ld	a, #0xc
    000008C1 D3 A0            [11] 1384 	out	(0xa0), a
    000008C3 7C               [ 4] 1385 	ld	a, h
    000008C4 D3 A1            [11] 1386 	out	(0xa1), a
    000008C6 3E 0D            [ 7] 1387 	ld	a, #0xd
    000008C8 D3 A0            [11] 1388 	out	(0xa0), a
    000008CA 3A 08 F0         [13] 1389 	ld	a, (PLY_AKG_PSGREG13_INSTR)
    000008CD 6F               [ 4] 1390 	ld	l, a
    000008CE 3A 09 F0         [13] 1391 	ld	a, (PLY_AKG_RETRIG)
    000008D1 67               [ 4] 1392 	ld	h, a
    000008D2 3A 07 F0         [13] 1393 	ld	a, (PLY_AKG_PSGREG13_OLDVALUE)
    000008D5 B4               [ 4] 1394 	or	h
    000008D6 BD               [ 4] 1395 	cp	l
    000008D7 28 0A            [12] 1396 	jr	z, PLY_AKG_PSGREG13_END
    000008D9 7D               [ 4] 1397 	ld	a, l
    000008DA 32 07 F0         [13] 1398 	ld	(PLY_AKG_PSGREG13_OLDVALUE), a
    000008DD D3 A1            [11] 1399 	out	(0xa1), a
    000008DF AF               [ 4] 1400 	xor	a
    000008E0 32 09 F0         [13] 1401 	ld	(PLY_AKG_RETRIG), a
    000008E3                       1402 	PLY_AKG_PSGREG13_END:
    000008E3 ED 7B 1B F0      [20] 1403 	ld	sp, (PLY_AKG_SAVESP)
    000008E7 C9               [10] 1404 	ret
    000008E8                       1405 	PLY_AKG_CHANNEL1_MAYBEEFFECTS:
    000008E8 32 32 F0         [13] 1406 	ld	(PLY_AKG_CHANNEL1_WAITCOUNTER), a
    000008EB CB 71            [ 8] 1407 	bit	6, c
    000008ED CAr9Fr03         [10] 1408 	jp	z, PLY_AKG_CHANNEL1_BEFOREEND_STORECELLPOINTER
    000008F0                       1409 	PLY_AKG_CHANNEL1_READEFFECTS:
    000008F0 FD 21 31 F0      [14] 1410 	ld	iy, #PLY_AKG_CHANNEL1_SOUNDSTREAM_RELATIVEMODIFIERADDRESS
    000008F4 DD 21 31 F0      [14] 1411 	ld	ix, #PLY_AKG_CHANNEL1_SOUNDSTREAM_RELATIVEMODIFIERADDRESS
    000008F8 11r9Fr03         [10] 1412 	ld	de, #PLY_AKG_CHANNEL1_BEFOREEND_STORECELLPOINTER
    000008FB 18 28            [12] 1413 	jr	PLY_AKG_CHANNEL3_READEFFECTSEND
    000008FD                       1414 	PLY_AKG_CHANNEL1_READEFFECTSEND:
    000008FD                       1415 	PLY_AKG_CHANNEL2_MAYBEEFFECTS:
    000008FD 32 75 F0         [13] 1416 	ld	(PLY_AKG_CHANNEL2_WAITCOUNTER), a
    00000900 CB 71            [ 8] 1417 	bit	6, c
    00000902 CAr49r04         [10] 1418 	jp	z, PLY_AKG_CHANNEL2_BEFOREEND_STORECELLPOINTER
    00000905                       1419 	PLY_AKG_CHANNEL2_READEFFECTS:
    00000905 FD 21 74 F0      [14] 1420 	ld	iy, #PLY_AKG_CHANNEL2_PLAYINSTRUMENT_RELATIVEMODIFIERADDRESS
    00000909 DD 21 74 F0      [14] 1421 	ld	ix, #PLY_AKG_CHANNEL2_PLAYINSTRUMENT_RELATIVEMODIFIERADDRESS
    0000090D 11r49r04         [10] 1422 	ld	de, #PLY_AKG_CHANNEL2_BEFOREEND_STORECELLPOINTER
    00000910 18 13            [12] 1423 	jr	PLY_AKG_CHANNEL3_READEFFECTSEND
    00000912                       1424 	PLY_AKG_CHANNEL2_READEFFECTSEND:
    00000912                       1425 	PLY_AKG_CHANNEL3_MAYBEEFFECTS:
    00000912 32 B8 F0         [13] 1426 	ld	(PLY_AKG_CHANNEL3_WAITCOUNTER), a
    00000915 CB 71            [ 8] 1427 	bit	6, c
    00000917 CArF3r04         [10] 1428 	jp	z, PLY_AKG_CHANNEL3_BEFOREEND_STORECELLPOINTER
    0000091A                       1429 	PLY_AKG_CHANNEL3_READEFFECTS:
    0000091A FD 21 B7 F0      [14] 1430 	ld	iy, #PLY_AKG_CHANNEL3_SOUNDSTREAM_RELATIVEMODIFIERADDRESS
    0000091E DD 21 B7 F0      [14] 1431 	ld	ix, #PLY_AKG_CHANNEL3_SOUNDSTREAM_RELATIVEMODIFIERADDRESS
    00000922 11rF3r04         [10] 1432 	ld	de, #PLY_AKG_CHANNEL3_BEFOREEND_STORECELLPOINTER
    00000925                       1433 	PLY_AKG_CHANNEL3_READEFFECTSEND:
    00000925                       1434 	PLY_AKG_CHANNEL_READEFFECTS:
    00000925 ED 53 2A F0      [20] 1435 	ld	(PLY_AKG_CHANNEL_READEFFECTS_ENDJUMPINSTRANDADDRESS+1), de
    00000929 EB               [ 4] 1436 	ex	de, hl
    0000092A 1A               [ 7] 1437 	ld	a, (de)
    0000092B 13               [ 6] 1438 	inc	de
    0000092C CB 27            [ 8] 1439 	sla	a
    0000092E 38 27            [12] 1440 	jr	c, PLY_AKG_CHANNEL_READEFFECTS_RELATIVEADDRESS
    00000930 D9               [ 4] 1441 	exx
    00000931 6F               [ 4] 1442 	ld	l, a
    00000932 26 00            [ 7] 1443 	ld	h, #0x0
    00000934 ED 5B 17 F0      [20] 1444 	ld	de, (PLY_AKG_CHANNEL_READEFFECTS_EFFECTBLOCKS1)
    00000938 19               [11] 1445 	add	hl, de
    00000939 5E               [ 7] 1446 	ld	e, (hl)
    0000093A 23               [ 6] 1447 	inc	hl
    0000093B 56               [ 7] 1448 	ld	d, (hl)
    0000093C                       1449 	PLY_AKG_CHANNEL_RE_EFFECTADDRESSKNOWN:
    0000093C 1A               [ 7] 1450 	ld	a, (de)
    0000093D 13               [ 6] 1451 	inc	de
    0000093E 32 0A F0         [13] 1452 	ld	(PLY_AKG_CHANNEL_RE_READNEXTEFFECTINBLOCK), a
    00000941 E6 FE            [ 7] 1453 	and	#0xfe
    00000943 6F               [ 4] 1454 	ld	l, a
    00000944 26 00            [ 7] 1455 	ld	h, #0x0
    00000946 31r14r0B         [10] 1456 	ld	sp, #PLY_AKG_EFFECTTABLE
    00000949 39               [11] 1457 	add	hl, sp
    0000094A F9               [ 6] 1458 	ld	sp, hl
    0000094B C9               [10] 1459 	ret
    0000094C                       1460 	PLY_AKG_CHANNEL_RE_EFFECTRETURN:
    0000094C 3A 0A F0         [13] 1461 	ld	a, (PLY_AKG_CHANNEL_RE_READNEXTEFFECTINBLOCK)
    0000094F 1F               [ 4] 1462 	rra
    00000950 38 EA            [12] 1463 	jr	c, PLY_AKG_CHANNEL_RE_EFFECTADDRESSKNOWN
    00000952 D9               [ 4] 1464 	exx
    00000953 EB               [ 4] 1465 	ex	de, hl
    00000954 C3 29 F0         [10] 1466 	jp	PLY_AKG_CHANNEL_READEFFECTS_ENDJUMPINSTRANDADDRESS
    00000957                       1467 	PLY_AKG_CHANNEL_READEFFECTS_RELATIVEADDRESS:
    00000957 CB 3F            [ 8] 1468 	srl	a
    00000959 D9               [ 4] 1469 	exx
    0000095A 67               [ 4] 1470 	ld	h, a
    0000095B D9               [ 4] 1471 	exx
    0000095C 1A               [ 7] 1472 	ld	a, (de)
    0000095D 13               [ 6] 1473 	inc	de
    0000095E D9               [ 4] 1474 	exx
    0000095F 6F               [ 4] 1475 	ld	l, a
    00000960 ED 5B 17 F0      [20] 1476 	ld	de, (PLY_AKG_CHANNEL_READEFFECTS_EFFECTBLOCKS1)
    00000964 19               [11] 1477 	add	hl, de
    00000965 EB               [ 4] 1478 	ex	de, hl
    00000966 18 D4            [12] 1479 	jr	PLY_AKG_CHANNEL_RE_EFFECTADDRESSKNOWN
    00000968                       1480 	PLY_AKG_READINSTRUMENTCELL:
    00000968 7E               [ 7] 1481 	ld	a, (hl)
    00000969 23               [ 6] 1482 	inc	hl
    0000096A 47               [ 4] 1483 	ld	b, a
    0000096B 1F               [ 4] 1484 	rra
    0000096C DAr4Dr0A         [10] 1485 	jp	c, PLY_AKG_S_OR_H_OR_SAH_OR_ENDWITHLOOP
    0000096F 1F               [ 4] 1486 	rra
    00000970 DArFDr09         [10] 1487 	jp	c, PLY_AKG_STH_OR_ENDWITHOUTLOOP
    00000973 1F               [ 4] 1488 	rra
    00000974 38 37            [12] 1489 	jr	c, PLY_AKG_HARDTOSOFT
    00000976                       1490 	PLY_AKG_NOSOFTNOHARD:
    00000976 E6 0F            [ 7] 1491 	and	#0xf
    00000978 93               [ 4] 1492 	sub	e
    00000979 30 01            [12] 1493 	jr	nc, PLY_AKG_NOSOFTNOHARD+6
    0000097B AF               [ 4] 1494 	xor	a
    0000097C 5F               [ 4] 1495 	ld	e, a
    0000097D CB 10            [ 8] 1496 	rl	b
    0000097F 30 0A            [12] 1497 	jr	nc, PLY_AKG_NSNH_NONOISE
    00000981 7E               [ 7] 1498 	ld	a, (hl)
    00000982 23               [ 6] 1499 	inc	hl
    00000983 32 23 F0         [13] 1500 	ld	(PLY_AKG_PSGREG6_8_INSTR), a
    00000986 CB D2            [ 8] 1501 	set	2, d
    00000988 CB AA            [ 8] 1502 	res	5, d
    0000098A C9               [10] 1503 	ret
    0000098B                       1504 	PLY_AKG_NSNH_NONOISE:
    0000098B CB D2            [ 8] 1505 	set	2, d
    0000098D C9               [10] 1506 	ret
    0000098E                       1507 	PLY_AKG_SOFT:
    0000098E E6 0F            [ 7] 1508 	and	#0xf
    00000990 93               [ 4] 1509 	sub	e
    00000991 30 01            [12] 1510 	jr	nc, PLY_AKG_SOFTONLY_HARDONLY_TESTSIMPLE_COMMON-1
    00000993 AF               [ 4] 1511 	xor	a
    00000994 5F               [ 4] 1512 	ld	e, a
    00000995                       1513 	PLY_AKG_SOFTONLY_HARDONLY_TESTSIMPLE_COMMON:
    00000995 CB 10            [ 8] 1514 	rl	b
    00000997 30 04            [12] 1515 	jr	nc, PLY_AKG_S_NOTSIMPLE
    00000999 0E 00            [ 7] 1516 	ld	c, #0x0
    0000099B 18 03            [12] 1517 	jr	PLY_AKG_S_AFTERSIMPLETEST
    0000099D                       1518 	PLY_AKG_S_NOTSIMPLE:
    0000099D 46               [ 7] 1519 	ld	b, (hl)
    0000099E 48               [ 4] 1520 	ld	c, b
    0000099F 23               [ 6] 1521 	inc	hl
    000009A0                       1522 	PLY_AKG_S_AFTERSIMPLETEST:
    000009A0 CDr93r0A         [17] 1523 	call	PLY_AKG_S_OR_H_CHECKIFSIMPLEFIRST_CALCULATEPERIOD
    000009A3 79               [ 4] 1524 	ld	a, c
    000009A4 E6 1F            [ 7] 1525 	and	#0x1f
    000009A6 C8               [11] 1526 	ret	z
    000009A7 32 23 F0         [13] 1527 	ld	(PLY_AKG_PSGREG6_8_INSTR), a
    000009AA CB AA            [ 8] 1528 	res	5, d
    000009AC C9               [10] 1529 	ret
    000009AD                       1530 	PLY_AKG_HARDTOSOFT:
    000009AD CDrE4r0A         [17] 1531 	call	PLY_AKG_STOH_HTOS_SANDH_COMMON
    000009B0 D9               [ 4] 1532 	exx
    000009B1 01rC7r09         [10] 1533 	ld	bc, #PLY_AKG_HS_JUMPRATIO
    000009B4 81               [ 4] 1534 	add	a, c
    000009B5 4F               [ 4] 1535 	ld	c, a
    000009B6 78               [ 4] 1536 	ld	a, b
    000009B7 CE 00            [ 7] 1537 	adc	a, #0x0
    000009B9 47               [ 4] 1538 	ld	b, a
    000009BA ED 43 2F F0      [20] 1539 	ld	(PLY_AKG_TEMPPLAYINSTRUMENTJUMPINSTRANDADDRESS+1), bc
    000009BE D9               [ 4] 1540 	exx
    000009BF 78               [ 4] 1541 	ld	a, b
    000009C0 D9               [ 4] 1542 	exx
    000009C1 22 27 F0         [16] 1543 	ld	(PLY_AKG_PSGHARDWAREPERIOD_INSTR), hl
    000009C4 C3 2E F0         [10] 1544 	jp	PLY_AKG_TEMPPLAYINSTRUMENTJUMPINSTRANDADDRESS
    000009C7                       1545 	PLY_AKG_HS_JUMPRATIO:
    000009C7 CB 25            [ 8] 1546 	sla	l
    000009C9 CB 14            [ 8] 1547 	rl	h
    000009CB CB 25            [ 8] 1548 	sla	l
    000009CD CB 14            [ 8] 1549 	rl	h
    000009CF CB 25            [ 8] 1550 	sla	l
    000009D1 CB 14            [ 8] 1551 	rl	h
    000009D3 CB 25            [ 8] 1552 	sla	l
    000009D5 CB 14            [ 8] 1553 	rl	h
    000009D7 CB 25            [ 8] 1554 	sla	l
    000009D9 CB 14            [ 8] 1555 	rl	h
    000009DB CB 25            [ 8] 1556 	sla	l
    000009DD CB 14            [ 8] 1557 	rl	h
    000009DF CB 25            [ 8] 1558 	sla	l
    000009E1 CB 14            [ 8] 1559 	rl	h
    000009E3 17               [ 4] 1560 	rla
    000009E4 30 0C            [12] 1561 	jr	nc, PLY_AKG_SH_NOSOFTWAREPITCHSHIFT
    000009E6 D9               [ 4] 1562 	exx
    000009E7 7E               [ 7] 1563 	ld	a, (hl)
    000009E8 23               [ 6] 1564 	inc	hl
    000009E9 D9               [ 4] 1565 	exx
    000009EA 85               [ 4] 1566 	add	a, l
    000009EB 6F               [ 4] 1567 	ld	l, a
    000009EC D9               [ 4] 1568 	exx
    000009ED 7E               [ 7] 1569 	ld	a, (hl)
    000009EE 23               [ 6] 1570 	inc	hl
    000009EF D9               [ 4] 1571 	exx
    000009F0 8C               [ 4] 1572 	adc	a, h
    000009F1 67               [ 4] 1573 	ld	h, a
    000009F2                       1574 	PLY_AKG_SH_NOSOFTWAREPITCHSHIFT:
    000009F2 D9               [ 4] 1575 	exx
    000009F3 C9               [10] 1576 	ret
    000009F4                       1577 	PLY_AKG_ENDWITHOUTLOOP:
    000009F4 2A 19 F0         [16] 1578 	ld	hl, (PLY_AKG_EMPTYINSTRUMENTDATAPT)
    000009F7 23               [ 6] 1579 	inc	hl
    000009F8 AF               [ 4] 1580 	xor	a
    000009F9 47               [ 4] 1581 	ld	b, a
    000009FA C3r76r09         [10] 1582 	jp	PLY_AKG_NOSOFTNOHARD
    000009FD                       1583 	PLY_AKG_STH_OR_ENDWITHOUTLOOP:
    000009FD 1F               [ 4] 1584 	rra
    000009FE 38 F4            [12] 1585 	jr	c, PLY_AKG_ENDWITHOUTLOOP
    00000A00 CDrE4r0A         [17] 1586 	call	PLY_AKG_STOH_HTOS_SANDH_COMMON
    00000A03 D9               [ 4] 1587 	exx
    00000A04 01r19r0A         [10] 1588 	ld	bc, #PLY_AKG_SH_JUMPRATIO
    00000A07 81               [ 4] 1589 	add	a, c
    00000A08 4F               [ 4] 1590 	ld	c, a
    00000A09 78               [ 4] 1591 	ld	a, b
    00000A0A CE 00            [ 7] 1592 	adc	a, #0x0
    00000A0C 47               [ 4] 1593 	ld	b, a
    00000A0D ED 43 2F F0      [20] 1594 	ld	(PLY_AKG_TEMPPLAYINSTRUMENTJUMPINSTRANDADDRESS+1), bc
    00000A11 D9               [ 4] 1595 	exx
    00000A12 78               [ 4] 1596 	ld	a, b
    00000A13 D9               [ 4] 1597 	exx
    00000A14 5D               [ 4] 1598 	ld	e, l
    00000A15 54               [ 4] 1599 	ld	d, h
    00000A16 C3 2E F0         [10] 1600 	jp	PLY_AKG_TEMPPLAYINSTRUMENTJUMPINSTRANDADDRESS
    00000A19                       1601 	PLY_AKG_SH_JUMPRATIO:
    00000A19 CB 3C            [ 8] 1602 	srl	h
    00000A1B CB 1D            [ 8] 1603 	rr	l
    00000A1D CB 3C            [ 8] 1604 	srl	h
    00000A1F CB 1D            [ 8] 1605 	rr	l
    00000A21 CB 3C            [ 8] 1606 	srl	h
    00000A23 CB 1D            [ 8] 1607 	rr	l
    00000A25 CB 3C            [ 8] 1608 	srl	h
    00000A27 CB 1D            [ 8] 1609 	rr	l
    00000A29 CB 3C            [ 8] 1610 	srl	h
    00000A2B CB 1D            [ 8] 1611 	rr	l
    00000A2D CB 3C            [ 8] 1612 	srl	h
    00000A2F CB 1D            [ 8] 1613 	rr	l
    00000A31 CB 3C            [ 8] 1614 	srl	h
    00000A33 CB 1D            [ 8] 1615 	rr	l
    00000A35 30 01            [12] 1616 	jr	nc, PLY_AKG_SH_JUMPRATIOEND
    00000A37 23               [ 6] 1617 	inc	hl
    00000A38                       1618 	PLY_AKG_SH_JUMPRATIOEND:
    00000A38 17               [ 4] 1619 	rla
    00000A39 30 0C            [12] 1620 	jr	nc, PLY_AKG_SH_NOHARDWAREPITCHSHIFT
    00000A3B D9               [ 4] 1621 	exx
    00000A3C 7E               [ 7] 1622 	ld	a, (hl)
    00000A3D 23               [ 6] 1623 	inc	hl
    00000A3E D9               [ 4] 1624 	exx
    00000A3F 85               [ 4] 1625 	add	a, l
    00000A40 6F               [ 4] 1626 	ld	l, a
    00000A41 D9               [ 4] 1627 	exx
    00000A42 7E               [ 7] 1628 	ld	a, (hl)
    00000A43 23               [ 6] 1629 	inc	hl
    00000A44 D9               [ 4] 1630 	exx
    00000A45 8C               [ 4] 1631 	adc	a, h
    00000A46 67               [ 4] 1632 	ld	h, a
    00000A47                       1633 	PLY_AKG_SH_NOHARDWAREPITCHSHIFT:
    00000A47 22 27 F0         [16] 1634 	ld	(PLY_AKG_PSGHARDWAREPERIOD_INSTR), hl
    00000A4A EB               [ 4] 1635 	ex	de, hl
    00000A4B D9               [ 4] 1636 	exx
    00000A4C C9               [10] 1637 	ret
    00000A4D                       1638 	PLY_AKG_S_OR_H_OR_SAH_OR_ENDWITHLOOP:
    00000A4D 1F               [ 4] 1639 	rra
    00000A4E 38 17            [12] 1640 	jr	c, PLY_AKG_H_OR_ENDWITHLOOP
    00000A50 1F               [ 4] 1641 	rra
    00000A51 D2r8Er09         [10] 1642 	jp	nc, PLY_AKG_SOFT
    00000A54 D9               [ 4] 1643 	exx
    00000A55 E5               [11] 1644 	push	hl
    00000A56 D5               [11] 1645 	push	de
    00000A57 D9               [ 4] 1646 	exx
    00000A58 CDrE4r0A         [17] 1647 	call	PLY_AKG_STOH_HTOS_SANDH_COMMON
    00000A5B D9               [ 4] 1648 	exx
    00000A5C 22 27 F0         [16] 1649 	ld	(PLY_AKG_PSGHARDWAREPERIOD_INSTR), hl
    00000A5F D1               [10] 1650 	pop	de
    00000A60 E1               [10] 1651 	pop	hl
    00000A61 D9               [ 4] 1652 	exx
    00000A62 CB 10            [ 8] 1653 	rl	b
    00000A64 C3r93r0A         [10] 1654 	jp	PLY_AKG_S_OR_H_CHECKIFSIMPLEFIRST_CALCULATEPERIOD
    00000A67                       1655 	PLY_AKG_H_OR_ENDWITHLOOP:
    00000A67 1F               [ 4] 1656 	rra
    00000A68 38 22            [12] 1657 	jr	c, PLY_AKG_ENDWITHLOOP
    00000A6A 1E 10            [ 7] 1658 	ld	e, #0x10
    00000A6C 1F               [ 4] 1659 	rra
    00000A6D 30 0B            [12] 1660 	jr	nc, PLY_AKG_H_AFTERRETRIG
    00000A6F 4F               [ 4] 1661 	ld	c, a
    00000A70 FD                    1662 	.db	0xfd
    00000A71 7D                    1663 	.db	0x7d
    00000A72 B7               [ 4] 1664 	or	a
    00000A73 20 04            [12] 1665 	jr	nz, PLY_AKG_H_RETRIGEND
    00000A75 7B               [ 4] 1666 	ld	a, e
    00000A76 32 09 F0         [13] 1667 	ld	(PLY_AKG_RETRIG), a
    00000A79                       1668 	PLY_AKG_H_RETRIGEND:
    00000A79 79               [ 4] 1669 	ld	a, c
    00000A7A                       1670 	PLY_AKG_H_AFTERRETRIG:
    00000A7A E6 07            [ 7] 1671 	and	#0x7
    00000A7C C6 08            [ 7] 1672 	add	a, #0x8
    00000A7E 32 08 F0         [13] 1673 	ld	(PLY_AKG_PSGREG13_INSTR), a
    00000A81 CDr95r09         [17] 1674 	call	PLY_AKG_SOFTONLY_HARDONLY_TESTSIMPLE_COMMON
    00000A84 D9               [ 4] 1675 	exx
    00000A85 22 27 F0         [16] 1676 	ld	(PLY_AKG_PSGHARDWAREPERIOD_INSTR), hl
    00000A88 D9               [ 4] 1677 	exx
    00000A89 CB D2            [ 8] 1678 	set	2, d
    00000A8B C9               [10] 1679 	ret
    00000A8C                       1680 	PLY_AKG_ENDWITHLOOP:
    00000A8C 7E               [ 7] 1681 	ld	a, (hl)
    00000A8D 23               [ 6] 1682 	inc	hl
    00000A8E 66               [ 7] 1683 	ld	h, (hl)
    00000A8F 6F               [ 4] 1684 	ld	l, a
    00000A90 C3r68r09         [10] 1685 	jp	PLY_AKG_READINSTRUMENTCELL
    00000A93                       1686 	PLY_AKG_S_OR_H_CHECKIFSIMPLEFIRST_CALCULATEPERIOD:
    00000A93 30 14            [12] 1687 	jr	nc, PLY_AKG_S_OR_H_NEXTBYTE
    00000A95 D9               [ 4] 1688 	exx
    00000A96 EB               [ 4] 1689 	ex	de, hl
    00000A97 29               [11] 1690 	add	hl, hl
    00000A98 01rBCr0C         [10] 1691 	ld	bc, #PLY_AKG_PERIODTABLE
    00000A9B 09               [11] 1692 	add	hl, bc
    00000A9C 7E               [ 7] 1693 	ld	a, (hl)
    00000A9D 23               [ 6] 1694 	inc	hl
    00000A9E 66               [ 7] 1695 	ld	h, (hl)
    00000A9F 6F               [ 4] 1696 	ld	l, a
    00000AA0 19               [11] 1697 	add	hl, de
    00000AA1 D9               [ 4] 1698 	exx
    00000AA2 CB 10            [ 8] 1699 	rl	b
    00000AA4 CB 10            [ 8] 1700 	rl	b
    00000AA6 CB 10            [ 8] 1701 	rl	b
    00000AA8 C9               [10] 1702 	ret
    00000AA9                       1703 	PLY_AKG_S_OR_H_NEXTBYTE:
    00000AA9 CB 10            [ 8] 1704 	rl	b
    00000AAB 38 28            [12] 1705 	jr	c, PLY_AKG_S_OR_H_FORCEDPERIOD
    00000AAD CB 10            [ 8] 1706 	rl	b
    00000AAF 30 06            [12] 1707 	jr	nc, PLY_AKG_S_OR_H_AFTERARPEGGIO
    00000AB1 7E               [ 7] 1708 	ld	a, (hl)
    00000AB2 23               [ 6] 1709 	inc	hl
    00000AB3 D9               [ 4] 1710 	exx
    00000AB4 83               [ 4] 1711 	add	a, e
    00000AB5 5F               [ 4] 1712 	ld	e, a
    00000AB6 D9               [ 4] 1713 	exx
    00000AB7                       1714 	PLY_AKG_S_OR_H_AFTERARPEGGIO:
    00000AB7 CB 10            [ 8] 1715 	rl	b
    00000AB9 30 0C            [12] 1716 	jr	nc, PLY_AKG_S_OR_H_AFTERPITCH
    00000ABB 7E               [ 7] 1717 	ld	a, (hl)
    00000ABC 23               [ 6] 1718 	inc	hl
    00000ABD D9               [ 4] 1719 	exx
    00000ABE 85               [ 4] 1720 	add	a, l
    00000ABF 6F               [ 4] 1721 	ld	l, a
    00000AC0 D9               [ 4] 1722 	exx
    00000AC1 7E               [ 7] 1723 	ld	a, (hl)
    00000AC2 23               [ 6] 1724 	inc	hl
    00000AC3 D9               [ 4] 1725 	exx
    00000AC4 8C               [ 4] 1726 	adc	a, h
    00000AC5 67               [ 4] 1727 	ld	h, a
    00000AC6 D9               [ 4] 1728 	exx
    00000AC7                       1729 	PLY_AKG_S_OR_H_AFTERPITCH:
    00000AC7 D9               [ 4] 1730 	exx
    00000AC8 EB               [ 4] 1731 	ex	de, hl
    00000AC9 29               [11] 1732 	add	hl, hl
    00000ACA 01rBCr0C         [10] 1733 	ld	bc, #PLY_AKG_PERIODTABLE
    00000ACD 09               [11] 1734 	add	hl, bc
    00000ACE 7E               [ 7] 1735 	ld	a, (hl)
    00000ACF 23               [ 6] 1736 	inc	hl
    00000AD0 66               [ 7] 1737 	ld	h, (hl)
    00000AD1 6F               [ 4] 1738 	ld	l, a
    00000AD2 19               [11] 1739 	add	hl, de
    00000AD3 D9               [ 4] 1740 	exx
    00000AD4 C9               [10] 1741 	ret
    00000AD5                       1742 	PLY_AKG_S_OR_H_FORCEDPERIOD:
    00000AD5 7E               [ 7] 1743 	ld	a, (hl)
    00000AD6 23               [ 6] 1744 	inc	hl
    00000AD7 D9               [ 4] 1745 	exx
    00000AD8 6F               [ 4] 1746 	ld	l, a
    00000AD9 D9               [ 4] 1747 	exx
    00000ADA 7E               [ 7] 1748 	ld	a, (hl)
    00000ADB 23               [ 6] 1749 	inc	hl
    00000ADC D9               [ 4] 1750 	exx
    00000ADD 67               [ 4] 1751 	ld	h, a
    00000ADE D9               [ 4] 1752 	exx
    00000ADF CB 10            [ 8] 1753 	rl	b
    00000AE1 CB 10            [ 8] 1754 	rl	b
    00000AE3 C9               [10] 1755 	ret
    00000AE4                       1756 	PLY_AKG_STOH_HTOS_SANDH_COMMON:
    00000AE4 1E 10            [ 7] 1757 	ld	e, #0x10
    00000AE6 1F               [ 4] 1758 	rra
    00000AE7 30 0B            [12] 1759 	jr	nc, PLY_AKG_SHOHS_AFTERRETRIG
    00000AE9 4F               [ 4] 1760 	ld	c, a
    00000AEA FD                    1761 	.db	0xfd
    00000AEB 7D                    1762 	.db	0x7d
    00000AEC B7               [ 4] 1763 	or	a
    00000AED 20 04            [12] 1764 	jr	nz, PLY_AKG_SHOHS_RETRIGEND
    00000AEF 3D               [ 4] 1765 	dec	a
    00000AF0 32 09 F0         [13] 1766 	ld	(PLY_AKG_RETRIG), a
    00000AF3                       1767 	PLY_AKG_SHOHS_RETRIGEND:
    00000AF3 79               [ 4] 1768 	ld	a, c
    00000AF4                       1769 	PLY_AKG_SHOHS_AFTERRETRIG:
    00000AF4 E6 07            [ 7] 1770 	and	#0x7
    00000AF6 C6 08            [ 7] 1771 	add	a, #0x8
    00000AF8 32 08 F0         [13] 1772 	ld	(PLY_AKG_PSGREG13_INSTR), a
    00000AFB CB 10            [ 8] 1773 	rl	b
    00000AFD 30 07            [12] 1774 	jr	nc, PLY_AKG_SHOHS_AFTERNOISE
    00000AFF 7E               [ 7] 1775 	ld	a, (hl)
    00000B00 23               [ 6] 1776 	inc	hl
    00000B01 32 23 F0         [13] 1777 	ld	(PLY_AKG_PSGREG6_8_INSTR), a
    00000B04 CB AA            [ 8] 1778 	res	5, d
    00000B06                       1779 	PLY_AKG_SHOHS_AFTERNOISE:
    00000B06 4E               [ 7] 1780 	ld	c, (hl)
    00000B07 41               [ 4] 1781 	ld	b, c
    00000B08 23               [ 6] 1782 	inc	hl
    00000B09 CB 10            [ 8] 1783 	rl	b
    00000B0B CDr93r0A         [17] 1784 	call	PLY_AKG_S_OR_H_CHECKIFSIMPLEFIRST_CALCULATEPERIOD
    00000B0E 79               [ 4] 1785 	ld	a, c
    00000B0F 17               [ 4] 1786 	rla
    00000B10 17               [ 4] 1787 	rla
    00000B11 E6 1C            [ 7] 1788 	and	#0x1c
    00000B13 C9               [10] 1789 	ret
    00000B14                       1790 	PLY_AKG_EFFECTTABLE:
    00000B14r38r0B                 1791 	.dw	PLY_AKG_EFFECT_RESETFULLVOLUME
    00000B16r3Br0B                 1792 	.dw	PLY_AKG_EFFECT_RESET
    00000B18r58r0B                 1793 	.dw	PLY_AKG_EFFECT_VOLUME
    00000B1Ar64r0B                 1794 	.dw	PLY_AKG_EFFECT_ARPEGGIOTABLE
    00000B1Cr92r0B                 1795 	.dw	PLY_AKG_EFFECT_ARPEGGIOTABLESTOP
    00000B1Er99r0B                 1796 	.dw	PLY_AKG_EFFECT_PITCHTABLE
    00000B20rC7r0B                 1797 	.dw	PLY_AKG_EFFECT_PITCHTABLESTOP
    00000B22rCEr0B                 1798 	.dw	PLY_AKG_EFFECT_VOLUMESLIDE
    00000B24rDFr0B                 1799 	.dw	PLY_AKG_EFFECT_VOLUMESLIDESTOP
    00000B26r0Br0C                 1800 	.dw	PLY_AKG_EFFECT_PITCHUP
    00000B28rE6r0B                 1801 	.dw	PLY_AKG_EFFECT_PITCHDOWN
    00000B2Ar1Dr0C                 1802 	.dw	PLY_AKG_EFFECT_PITCHSTOP
    00000B2Cr24r0C                 1803 	.dw	PLY_AKG_EFFECT_GLIDEWITHNOTE
    00000B2Er68r0C                 1804 	.dw	PLY_AKG_EFFECT_GLIDE_READSPEED
    00000B30r90r0C                 1805 	.dw	PLY_AKG_EFFECT_LEGATO
    00000B32rA4r0C                 1806 	.dw	PLY_AKG_EFFECT_FORCEINSTRUMENTSPEED
    00000B34rACr0C                 1807 	.dw	PLY_AKG_EFFECT_FORCEARPEGGIOSPEED
    00000B36rB4r0C                 1808 	.dw	PLY_AKG_EFFECT_FORCEPITCHSPEED
    00000B38                       1809 	PLY_AKG_EFFECT_RESETFULLVOLUME:
    00000B38 AF               [ 4] 1810 	xor	a
    00000B39 18 02            [12] 1811 	jr	PLY_AKG_EFFECT_RESETVOLUME_AFTERREADING
    00000B3B                       1812 	PLY_AKG_EFFECT_RESET:
    00000B3B 1A               [ 7] 1813 	ld	a, (de)
    00000B3C 13               [ 6] 1814 	inc	de
    00000B3D                       1815 	PLY_AKG_EFFECT_RESETVOLUME_AFTERREADING:
    00000B3D FD 77 26         [19] 1816 	ld	+38(iy), a
    00000B40 AF               [ 4] 1817 	xor	a
    00000B41 FD 77 27         [19] 1818 	ld	+39(iy), a
    00000B44 FD 77 28         [19] 1819 	ld	+40(iy), a
    00000B47 3E 00            [ 7] 1820 	ld	a, #0x0
    00000B49 FD 77 05         [19] 1821 	ld	+5(iy), a
    00000B4C FD 77 04         [19] 1822 	ld	+4(iy), a
    00000B4F FD 77 03         [19] 1823 	ld	+3(iy), a
    00000B52 FD 77 02         [19] 1824 	ld	+2(iy), a
    00000B55 C3r4Cr09         [10] 1825 	jp	PLY_AKG_CHANNEL_RE_EFFECTRETURN
    00000B58                       1826 	PLY_AKG_EFFECT_VOLUME:
    00000B58 1A               [ 7] 1827 	ld	a, (de)
    00000B59 13               [ 6] 1828 	inc	de
    00000B5A FD 77 26         [19] 1829 	ld	+38(iy), a
    00000B5D FD 36 02 00      [19] 1830 	ld	+2(iy), #0x0
    00000B61 C3r4Cr09         [10] 1831 	jp	PLY_AKG_CHANNEL_RE_EFFECTRETURN
    00000B64                       1832 	PLY_AKG_EFFECT_ARPEGGIOTABLE:
    00000B64 1A               [ 7] 1833 	ld	a, (de)
    00000B65 13               [ 6] 1834 	inc	de
    00000B66 6F               [ 4] 1835 	ld	l, a
    00000B67 26 00            [ 7] 1836 	ld	h, #0x0
    00000B69 29               [11] 1837 	add	hl, hl
    00000B6A ED 4B 11 F0      [20] 1838 	ld	bc, (PLY_AKG_ARPEGGIOSTABLE)
    00000B6E 09               [11] 1839 	add	hl, bc
    00000B6F 4E               [ 7] 1840 	ld	c, (hl)
    00000B70 23               [ 6] 1841 	inc	hl
    00000B71 46               [ 7] 1842 	ld	b, (hl)
    00000B72 23               [ 6] 1843 	inc	hl
    00000B73 0A               [ 7] 1844 	ld	a, (bc)
    00000B74 03               [ 6] 1845 	inc	bc
    00000B75 FD 77 0C         [19] 1846 	ld	+12(iy), a
    00000B78 FD 77 0B         [19] 1847 	ld	+11(iy), a
    00000B7B FD 71 17         [19] 1848 	ld	+23(iy), c
    00000B7E FD 70 18         [19] 1849 	ld	+24(iy), b
    00000B81 FD 71 19         [19] 1850 	ld	+25(iy), c
    00000B84 FD 70 1A         [19] 1851 	ld	+26(iy), b
    00000B87 FD 36 03 FF      [19] 1852 	ld	+3(iy), #0xff
    00000B8B AF               [ 4] 1853 	xor	a
    00000B8C FD 77 09         [19] 1854 	ld	+9(iy), a
    00000B8F C3r4Cr09         [10] 1855 	jp	PLY_AKG_CHANNEL_RE_EFFECTRETURN
    00000B92                       1856 	PLY_AKG_EFFECT_ARPEGGIOTABLESTOP:
    00000B92 FD 36 03 00      [19] 1857 	ld	+3(iy), #0x0
    00000B96 C3r4Cr09         [10] 1858 	jp	PLY_AKG_CHANNEL_RE_EFFECTRETURN
    00000B99                       1859 	PLY_AKG_EFFECT_PITCHTABLE:
    00000B99 1A               [ 7] 1860 	ld	a, (de)
    00000B9A 13               [ 6] 1861 	inc	de
    00000B9B 6F               [ 4] 1862 	ld	l, a
    00000B9C 26 00            [ 7] 1863 	ld	h, #0x0
    00000B9E 29               [11] 1864 	add	hl, hl
    00000B9F ED 4B 13 F0      [20] 1865 	ld	bc, (PLY_AKG_PITCHESTABLE)
    00000BA3 09               [11] 1866 	add	hl, bc
    00000BA4 4E               [ 7] 1867 	ld	c, (hl)
    00000BA5 23               [ 6] 1868 	inc	hl
    00000BA6 46               [ 7] 1869 	ld	b, (hl)
    00000BA7 23               [ 6] 1870 	inc	hl
    00000BA8 0A               [ 7] 1871 	ld	a, (bc)
    00000BA9 03               [ 6] 1872 	inc	bc
    00000BAA FD 77 0F         [19] 1873 	ld	+15(iy), a
    00000BAD FD 77 0E         [19] 1874 	ld	+14(iy), a
    00000BB0 FD 71 1D         [19] 1875 	ld	+29(iy), c
    00000BB3 FD 70 1E         [19] 1876 	ld	+30(iy), b
    00000BB6 FD 71 1F         [19] 1877 	ld	+31(iy), c
    00000BB9 FD 70 20         [19] 1878 	ld	+32(iy), b
    00000BBC FD 36 04 FF      [19] 1879 	ld	+4(iy), #0xff
    00000BC0 AF               [ 4] 1880 	xor	a
    00000BC1 FD 77 0D         [19] 1881 	ld	+13(iy), a
    00000BC4 C3r4Cr09         [10] 1882 	jp	PLY_AKG_CHANNEL_RE_EFFECTRETURN
    00000BC7                       1883 	PLY_AKG_EFFECT_PITCHTABLESTOP:
    00000BC7 FD 36 04 00      [19] 1884 	ld	+4(iy), #0x0
    00000BCB C3r4Cr09         [10] 1885 	jp	PLY_AKG_CHANNEL_RE_EFFECTRETURN
    00000BCE                       1886 	PLY_AKG_EFFECT_VOLUMESLIDE:
    00000BCE 1A               [ 7] 1887 	ld	a, (de)
    00000BCF 13               [ 6] 1888 	inc	de
    00000BD0 FD 77 2D         [19] 1889 	ld	+45(iy), a
    00000BD3 1A               [ 7] 1890 	ld	a, (de)
    00000BD4 13               [ 6] 1891 	inc	de
    00000BD5 FD 77 2E         [19] 1892 	ld	+46(iy), a
    00000BD8 FD 36 02 FF      [19] 1893 	ld	+2(iy), #0xff
    00000BDC C3r4Cr09         [10] 1894 	jp	PLY_AKG_CHANNEL_RE_EFFECTRETURN
    00000BDF                       1895 	PLY_AKG_EFFECT_VOLUMESLIDESTOP:
    00000BDF FD 36 02 00      [19] 1896 	ld	+2(iy), #0x0
    00000BE3 C3r4Cr09         [10] 1897 	jp	PLY_AKG_CHANNEL_RE_EFFECTRETURN
    00000BE6                       1898 	PLY_AKG_EFFECT_PITCHDOWN:
    00000BE6 FD 36 3A 00      [19] 1899 	ld	+58(iy), #0x0
    00000BEA FD 36 3B 09      [19] 1900 	ld	+59(iy), #0x9
    00000BEE FD 36 33 C6      [19] 1901 	ld	+51(iy), #0xc6
    00000BF2 FD 36 3F 23      [19] 1902 	ld	+63(iy), #0x23
    00000BF6                       1903 	PLY_AKG_EFFECT_PITCHUPDOWN_COMMON:
    00000BF6 FD 36 05 FF      [19] 1904 	ld	+5(iy), #0xff
    00000BFA FD 36 13 00      [19] 1905 	ld	+19(iy), #0x0
    00000BFE 1A               [ 7] 1906 	ld	a, (de)
    00000BFF 13               [ 6] 1907 	inc	de
    00000C00 FD 77 34         [19] 1908 	ld	+52(iy), a
    00000C03 1A               [ 7] 1909 	ld	a, (de)
    00000C04 13               [ 6] 1910 	inc	de
    00000C05 FD 77 1B         [19] 1911 	ld	+27(iy), a
    00000C08 C3r4Cr09         [10] 1912 	jp	PLY_AKG_CHANNEL_RE_EFFECTRETURN
    00000C0B                       1913 	PLY_AKG_EFFECT_PITCHUP:
    00000C0B FD 36 3A ED      [19] 1914 	ld	+58(iy), #0xed
    00000C0F FD 36 3B 42      [19] 1915 	ld	+59(iy), #0x42
    00000C13 FD 36 33 D6      [19] 1916 	ld	+51(iy), #0xd6
    00000C17 FD 36 3F 2B      [19] 1917 	ld	+63(iy), #0x2b
    00000C1B 18 D9            [12] 1918 	jr	PLY_AKG_EFFECT_PITCHUPDOWN_COMMON
    00000C1D                       1919 	PLY_AKG_EFFECT_PITCHSTOP:
    00000C1D FD 36 05 00      [19] 1920 	ld	+5(iy), #0x0
    00000C21 C3r4Cr09         [10] 1921 	jp	PLY_AKG_CHANNEL_RE_EFFECTRETURN
    00000C24                       1922 	PLY_AKG_EFFECT_GLIDEWITHNOTE:
    00000C24 1A               [ 7] 1923 	ld	a, (de)
    00000C25 13               [ 6] 1924 	inc	de
    00000C26 ED 53 2C F0      [20] 1925 	ld	(PLY_AKG_EFFECT_GLIDEWITHNOTESAVEDE), de
    00000C2A 87               [ 4] 1926 	add	a, a
    00000C2B 6F               [ 4] 1927 	ld	l, a
    00000C2C 26 00            [ 7] 1928 	ld	h, #0x0
    00000C2E 01rBCr0C         [10] 1929 	ld	bc, #PLY_AKG_PERIODTABLE
    00000C31 09               [11] 1930 	add	hl, bc
    00000C32 F9               [ 6] 1931 	ld	sp, hl
    00000C33 D1               [10] 1932 	pop	de
    00000C34 FD 73 2F         [19] 1933 	ld	+47(iy), e
    00000C37 FD 72 30         [19] 1934 	ld	+48(iy), d
    00000C3A DD 7E 12         [19] 1935 	ld	a, +18(ix)
    00000C3D 87               [ 4] 1936 	add	a, a
    00000C3E 6F               [ 4] 1937 	ld	l, a
    00000C3F 26 00            [ 7] 1938 	ld	h, #0x0
    00000C41 09               [11] 1939 	add	hl, bc
    00000C42 F9               [ 6] 1940 	ld	sp, hl
    00000C43 E1               [10] 1941 	pop	hl
    00000C44 FD 4E 27         [19] 1942 	ld	c, +39(iy)
    00000C47 FD 46 28         [19] 1943 	ld	b, +40(iy)
    00000C4A 09               [11] 1944 	add	hl, bc
    00000C4B B7               [ 4] 1945 	or	a
    00000C4C ED 52            [15] 1946 	sbc	hl, de
    00000C4E ED 5B 2C F0      [20] 1947 	ld	de, (PLY_AKG_EFFECT_GLIDEWITHNOTESAVEDE)
    00000C52 38 26            [12] 1948 	jr	c, PLY_AKG_EFFECT_GLIDE_PITCHDOWN
    00000C54 FD 36 13 01      [19] 1949 	ld	+19(iy), #0x1
    00000C58 FD 36 3A ED      [19] 1950 	ld	+58(iy), #0xed
    00000C5C FD 36 3B 42      [19] 1951 	ld	+59(iy), #0x42
    00000C60 FD 36 33 D6      [19] 1952 	ld	+51(iy), #0xd6
    00000C64 FD 36 3F 2B      [19] 1953 	ld	+63(iy), #0x2b
    00000C68                       1954 	PLY_AKG_EFFECT_GLIDE_READSPEED:
    00000C68                       1955 	PLY_AKG_EFFECT_GLIDESPEED:
    00000C68 1A               [ 7] 1956 	ld	a, (de)
    00000C69 13               [ 6] 1957 	inc	de
    00000C6A FD 77 34         [19] 1958 	ld	+52(iy), a
    00000C6D 1A               [ 7] 1959 	ld	a, (de)
    00000C6E 13               [ 6] 1960 	inc	de
    00000C6F FD 77 1B         [19] 1961 	ld	+27(iy), a
    00000C72 3E FF            [ 7] 1962 	ld	a, #0xff
    00000C74 FD 77 05         [19] 1963 	ld	+5(iy), a
    00000C77 C3r4Cr09         [10] 1964 	jp	PLY_AKG_CHANNEL_RE_EFFECTRETURN
    00000C7A                       1965 	PLY_AKG_EFFECT_GLIDE_PITCHDOWN:
    00000C7A FD 36 13 02      [19] 1966 	ld	+19(iy), #0x2
    00000C7E FD 36 3A 00      [19] 1967 	ld	+58(iy), #0x0
    00000C82 FD 36 3B 09      [19] 1968 	ld	+59(iy), #0x9
    00000C86 FD 36 33 C6      [19] 1969 	ld	+51(iy), #0xc6
    00000C8A FD 36 3F 23      [19] 1970 	ld	+63(iy), #0x23
    00000C8E 18 D8            [12] 1971 	jr	PLY_AKG_EFFECT_GLIDE_READSPEED
    00000C90                       1972 	PLY_AKG_EFFECT_LEGATO:
    00000C90 1A               [ 7] 1973 	ld	a, (de)
    00000C91 13               [ 6] 1974 	inc	de
    00000C92 DD 77 12         [19] 1975 	ld	+18(ix), a
    00000C95 3E 00            [ 7] 1976 	ld	a, #0x0
    00000C97 FD 77 05         [19] 1977 	ld	+5(iy), a
    00000C9A AF               [ 4] 1978 	xor	a
    00000C9B FD 77 27         [19] 1979 	ld	+39(iy), a
    00000C9E FD 77 28         [19] 1980 	ld	+40(iy), a
    00000CA1 C3r4Cr09         [10] 1981 	jp	PLY_AKG_CHANNEL_RE_EFFECTRETURN
    00000CA4                       1982 	PLY_AKG_EFFECT_FORCEINSTRUMENTSPEED:
    00000CA4 1A               [ 7] 1983 	ld	a, (de)
    00000CA5 13               [ 6] 1984 	inc	de
    00000CA6 DD 77 07         [19] 1985 	ld	+7(ix), a
    00000CA9 C3r4Cr09         [10] 1986 	jp	PLY_AKG_CHANNEL_RE_EFFECTRETURN
    00000CAC                       1987 	PLY_AKG_EFFECT_FORCEARPEGGIOSPEED:
    00000CAC 1A               [ 7] 1988 	ld	a, (de)
    00000CAD 13               [ 6] 1989 	inc	de
    00000CAE FD 77 0C         [19] 1990 	ld	+12(iy), a
    00000CB1 C3r4Cr09         [10] 1991 	jp	PLY_AKG_CHANNEL_RE_EFFECTRETURN
    00000CB4                       1992 	PLY_AKG_EFFECT_FORCEPITCHSPEED:
    00000CB4 1A               [ 7] 1993 	ld	a, (de)
    00000CB5 13               [ 6] 1994 	inc	de
    00000CB6 FD 77 0F         [19] 1995 	ld	+15(iy), a
    00000CB9 C3r4Cr09         [10] 1996 	jp	PLY_AKG_CHANNEL_RE_EFFECTRETURN
    00000CBC                       1997 	PLY_AKG_PERIODTABLE:
    00000CBC 7A 1A                 1998 	.dw	0x1a7a
    00000CBE FE 18                 1999 	.dw	0x18fe
    00000CC0 97 17                 2000 	.dw	0x1797
    00000CC2 44 16                 2001 	.dw	0x1644
    00000CC4 04 15                 2002 	.dw	0x1504
    00000CC6 D6 13                 2003 	.dw	0x13d6
    00000CC8 B9 12                 2004 	.dw	0x12b9
    00000CCA AC 11                 2005 	.dw	0x11ac
    00000CCC AE 10                 2006 	.dw	0x10ae
    00000CCE BE 0F                 2007 	.dw	0xfbe
    00000CD0 DC 0E                 2008 	.dw	0xedc
    00000CD2 07 0E                 2009 	.dw	0xe07
    00000CD4 3D 0D                 2010 	.dw	0xd3d
    00000CD6 7F 0C                 2011 	.dw	0xc7f
    00000CD8 CB 0B                 2012 	.dw	0xbcb
    00000CDA 22 0B                 2013 	.dw	0xb22
    00000CDC 82 0A                 2014 	.dw	0xa82
    00000CDE EB 09                 2015 	.dw	0x9eb
    00000CE0 5D 09                 2016 	.dw	0x95d
    00000CE2 D6 08                 2017 	.dw	0x8d6
    00000CE4 57 08                 2018 	.dw	0x857
    00000CE6 DF 07                 2019 	.dw	0x7df
    00000CE8 6E 07                 2020 	.dw	0x76e
    00000CEA 03 07                 2021 	.dw	0x703
    00000CEC 9F 06                 2022 	.dw	0x69f
    00000CEE 3F 06                 2023 	.dw	0x63f
    00000CF0 E6 05                 2024 	.dw	0x5e6
    00000CF2 91 05                 2025 	.dw	0x591
    00000CF4 41 05                 2026 	.dw	0x541
    00000CF6 F6 04                 2027 	.dw	0x4f6
    00000CF8 AE 04                 2028 	.dw	0x4ae
    00000CFA 6B 04                 2029 	.dw	0x46b
    00000CFC 2C 04                 2030 	.dw	0x42c
    00000CFE F0 03                 2031 	.dw	0x3f0
    00000D00 B7 03                 2032 	.dw	0x3b7
    00000D02 82 03                 2033 	.dw	0x382
    00000D04 4F 03                 2034 	.dw	0x34f
    00000D06 20 03                 2035 	.dw	0x320
    00000D08 F3 02                 2036 	.dw	0x2f3
    00000D0A C8 02                 2037 	.dw	0x2c8
    00000D0C A1 02                 2038 	.dw	0x2a1
    00000D0E 7B 02                 2039 	.dw	0x27b
    00000D10 57 02                 2040 	.dw	0x257
    00000D12 36 02                 2041 	.dw	0x236
    00000D14 16 02                 2042 	.dw	0x216
    00000D16 F8 01                 2043 	.dw	0x1f8
    00000D18 DC 01                 2044 	.dw	0x1dc
    00000D1A C1 01                 2045 	.dw	0x1c1
    00000D1C A8 01                 2046 	.dw	0x1a8
    00000D1E 90 01                 2047 	.dw	0x190
    00000D20 79 01                 2048 	.dw	0x179
    00000D22 64 01                 2049 	.dw	0x164
    00000D24 50 01                 2050 	.dw	0x150
    00000D26 3D 01                 2051 	.dw	0x13d
    00000D28 2C 01                 2052 	.dw	0x12c
    00000D2A 1B 01                 2053 	.dw	0x11b
    00000D2C 0B 01                 2054 	.dw	0x10b
    00000D2E FC 00                 2055 	.dw	0xfc
    00000D30 EE 00                 2056 	.dw	0xee
    00000D32 E0 00                 2057 	.dw	0xe0
    00000D34 D4 00                 2058 	.dw	0xd4
    00000D36 C8 00                 2059 	.dw	0xc8
    00000D38 BD 00                 2060 	.dw	0xbd
    00000D3A B2 00                 2061 	.dw	0xb2
    00000D3C A8 00                 2062 	.dw	0xa8
    00000D3E 9F 00                 2063 	.dw	0x9f
    00000D40 96 00                 2064 	.dw	0x96
    00000D42 8D 00                 2065 	.dw	0x8d
    00000D44 85 00                 2066 	.dw	0x85
    00000D46 7E 00                 2067 	.dw	0x7e
    00000D48 77 00                 2068 	.dw	0x77
    00000D4A 70 00                 2069 	.dw	0x70
    00000D4C 6A 00                 2070 	.dw	0x6a
    00000D4E 64 00                 2071 	.dw	0x64
    00000D50 5E 00                 2072 	.dw	0x5e
    00000D52 59 00                 2073 	.dw	0x59
    00000D54 54 00                 2074 	.dw	0x54
    00000D56 4F 00                 2075 	.dw	0x4f
    00000D58 4B 00                 2076 	.dw	0x4b
    00000D5A 47 00                 2077 	.dw	0x47
    00000D5C 43 00                 2078 	.dw	0x43
    00000D5E 3F 00                 2079 	.dw	0x3f
    00000D60 3B 00                 2080 	.dw	0x3b
    00000D62 38 00                 2081 	.dw	0x38
    00000D64 35 00                 2082 	.dw	0x35
    00000D66 32 00                 2083 	.dw	0x32
    00000D68 2F 00                 2084 	.dw	0x2f
    00000D6A 2D 00                 2085 	.dw	0x2d
    00000D6C 2A 00                 2086 	.dw	0x2a
    00000D6E 28 00                 2087 	.dw	0x28
    00000D70 25 00                 2088 	.dw	0x25
    00000D72 23 00                 2089 	.dw	0x23
    00000D74 21 00                 2090 	.dw	0x21
    00000D76 1F 00                 2091 	.dw	0x1f
    00000D78 1E 00                 2092 	.dw	0x1e
    00000D7A 1C 00                 2093 	.dw	0x1c
    00000D7C 1A 00                 2094 	.dw	0x1a
    00000D7E 19 00                 2095 	.dw	0x19
    00000D80 18 00                 2096 	.dw	0x18
    00000D82 16 00                 2097 	.dw	0x16
    00000D84 15 00                 2098 	.dw	0x15
    00000D86 14 00                 2099 	.dw	0x14
    00000D88 13 00                 2100 	.dw	0x13
    00000D8A 12 00                 2101 	.dw	0x12
    00000D8C 11 00                 2102 	.dw	0x11
    00000D8E 10 00                 2103 	.dw	0x10
    00000D90 0F 00                 2104 	.dw	0xf
    00000D92 0E 00                 2105 	.dw	0xe
    00000D94 0D 00                 2106 	.dw	0xd
    00000D96 0C 00                 2107 	.dw	0xc
    00000D98 0C 00                 2108 	.dw	0xc
    00000D9A 0B 00                 2109 	.dw	0xb
    00000D9C 0B 00                 2110 	.dw	0xb
    00000D9E 0A 00                 2111 	.dw	0xa
    00000DA0 09 00                 2112 	.dw	0x9
    00000DA2 09 00                 2113 	.dw	0x9
    00000DA4 08 00                 2114 	.dw	0x8
    00000DA6 08 00                 2115 	.dw	0x8
    00000DA8 07 00                 2116 	.dw	0x7
    00000DAA 07 00                 2117 	.dw	0x7
    00000DAC 07 00                 2118 	.dw	0x7
    00000DAE 06 00                 2119 	.dw	0x6
    00000DB0 06 00                 2120 	.dw	0x6
    00000DB2 06 00                 2121 	.dw	0x6
    00000DB4 05 00                 2122 	.dw	0x5
    00000DB6 05 00                 2123 	.dw	0x5
    00000DB8 05 00                 2124 	.dw	0x5
    00000DBA 04 00                 2125 	.dw	0x4
                         0000F011  2126 	PLY_AKG_ARPEGGIOSTABLE	= 0xf011
                         0000F002  2127 	PLY_AKG_BASENOTEINDEX	= 0xf002
                         0000F03C  2128 	PLY_AKG_CHANNEL1_ARPEGGIOBASESPEED	= 0xf03c
                         0000F048  2129 	PLY_AKG_CHANNEL1_ARPEGGIOTABLE	= 0xf048
                         0000F04A  2130 	PLY_AKG_CHANNEL1_ARPEGGIOTABLEBASE	= 0xf04a
                         0000F03A  2131 	PLY_AKG_CHANNEL1_ARPEGGIOTABLECURRENTSTEP	= 0xf03a
                         0000F03D  2132 	PLY_AKG_CHANNEL1_ARPEGGIOTABLESPEED	= 0xf03d
                         0000F03B  2133 	PLY_AKG_CHANNEL1_GENERATEDCURRENTARPNOTE	= 0xf03b
                         0000F045  2134 	PLY_AKG_CHANNEL1_GENERATEDCURRENTINVERTEDVOLUME	= 0xf045
                         0000F069  2135 	PLY_AKG_CHANNEL1_GENERATEDCURRENTPITCH	= 0xf069
                         0000F044  2136 	PLY_AKG_CHANNEL1_GLIDEDIRECTION	= 0xf044
                         0000F060  2137 	PLY_AKG_CHANNEL1_GLIDETOREACH	= 0xf060
                         0000F062  2138 	PLY_AKG_CHANNEL1_GLIDE_SAVEHL	= 0xf062
                         0000F037  2139 	PLY_AKG_CHANNEL1_INSTRUMENTORIGINALSPEED	= 0xf037
                         0000F038  2140 	PLY_AKG_CHANNEL1_INSTRUMENTSPEED	= 0xf038
                         0000F039  2141 	PLY_AKG_CHANNEL1_INSTRUMENTSTEP	= 0xf039
                         0000F057  2142 	PLY_AKG_CHANNEL1_INVERTEDVOLUMEINTEGER	= 0xf057
                         0000F056  2143 	PLY_AKG_CHANNEL1_INVERTEDVOLUMEINTEGERANDDECIMAL	= 0xf056
                         0000F034  2144 	PLY_AKG_CHANNEL1_ISARPEGGIOTABLE	= 0xf034
                         0000F036  2145 	PLY_AKG_CHANNEL1_ISPITCH	= 0xf036
                         0000F035  2146 	PLY_AKG_CHANNEL1_ISPITCHTABLE	= 0xf035
                         0000F033  2147 	PLY_AKG_CHANNEL1_ISVOLUMESLIDE	= 0xf033
                         0000F058  2148 	PLY_AKG_CHANNEL1_PITCH	= 0xf058
                         0000F03F  2149 	PLY_AKG_CHANNEL1_PITCHBASESPEED	= 0xf03f
                         0000F04E  2150 	PLY_AKG_CHANNEL1_PITCHTABLE	= 0xf04e
                         0000F050  2151 	PLY_AKG_CHANNEL1_PITCHTABLEBASE	= 0xf050
                         0000F03E  2152 	PLY_AKG_CHANNEL1_PITCHTABLECURRENTSTEP	= 0xf03e
                         0000F040  2153 	PLY_AKG_CHANNEL1_PITCHTABLESPEED	= 0xf040
                         0000F04C  2154 	PLY_AKG_CHANNEL1_PITCHTRACK	= 0xf04c
                         0000F06B  2155 	PLY_AKG_CHANNEL1_PITCHTRACKADDORSBC_16BITS	= 0xf06b
                         0000F06D  2156 	PLY_AKG_CHANNEL1_PITCHTRACKAFTERADDORSBCJUMPINSTRANDADDRESS	= 0xf06d
                         0000F042  2157 	PLY_AKG_CHANNEL1_PITCHTRACKDECIMALCOUNTER	= 0xf042
                         0000F064  2158 	PLY_AKG_CHANNEL1_PITCHTRACKDECIMALINSTR	= 0xf064
                         0000F066  2159 	PLY_AKG_CHANNEL1_PITCHTRACKDECIMALINSTRANDVALUERETURNJP	= 0xf066
                         0000F065  2160 	PLY_AKG_CHANNEL1_PITCHTRACKDECIMALVALUE	= 0xf065
                         0000F070  2161 	PLY_AKG_CHANNEL1_PITCHTRACKINTEGERADDORSUB	= 0xf070
                         0000F071  2162 	PLY_AKG_CHANNEL1_PITCHTRACKINTEGERAFTERADDORSUBJUMPINSTRANDADDRESS	= 0xf071
                         0000F05C  2163 	PLY_AKG_CHANNEL1_PTBASEINSTRUMENT	= 0xf05c
                         0000F05A  2164 	PLY_AKG_CHANNEL1_PTINSTRUMENT	= 0xf05a
                         0000F046  2165 	PLY_AKG_CHANNEL1_PTTRACK	= 0xf046
                         0000F0FC  2166 	PLY_AKG_CHANNEL1_SOUNDEFFECTDATA	= 0xf0fc
                         0000F031  2167 	PLY_AKG_CHANNEL1_SOUNDSTREAM_RELATIVEMODIFIERADDRESS	= 0xf031
                         0000F043  2168 	PLY_AKG_CHANNEL1_TRACKNOTE	= 0xf043
                         0000F05E  2169 	PLY_AKG_CHANNEL1_VOLUMESLIDEVALUE	= 0xf05e
                         0000F032  2170 	PLY_AKG_CHANNEL1_WAITCOUNTER	= 0xf032
                         0000F07F  2171 	PLY_AKG_CHANNEL2_ARPEGGIOBASESPEED	= 0xf07f
                         0000F08B  2172 	PLY_AKG_CHANNEL2_ARPEGGIOTABLE	= 0xf08b
                         0000F08D  2173 	PLY_AKG_CHANNEL2_ARPEGGIOTABLEBASE	= 0xf08d
                         0000F07D  2174 	PLY_AKG_CHANNEL2_ARPEGGIOTABLECURRENTSTEP	= 0xf07d
                         0000F080  2175 	PLY_AKG_CHANNEL2_ARPEGGIOTABLESPEED	= 0xf080
                         0000F07E  2176 	PLY_AKG_CHANNEL2_GENERATEDCURRENTARPNOTE	= 0xf07e
                         0000F088  2177 	PLY_AKG_CHANNEL2_GENERATEDCURRENTINVERTEDVOLUME	= 0xf088
                         0000F0AC  2178 	PLY_AKG_CHANNEL2_GENERATEDCURRENTPITCH	= 0xf0ac
                         0000F087  2179 	PLY_AKG_CHANNEL2_GLIDEDIRECTION	= 0xf087
                         0000F0A3  2180 	PLY_AKG_CHANNEL2_GLIDETOREACH	= 0xf0a3
                         0000F0A5  2181 	PLY_AKG_CHANNEL2_GLIDE_SAVEHL	= 0xf0a5
                         0000F07A  2182 	PLY_AKG_CHANNEL2_INSTRUMENTORIGINALSPEED	= 0xf07a
                         0000F07B  2183 	PLY_AKG_CHANNEL2_INSTRUMENTSPEED	= 0xf07b
                         0000F07C  2184 	PLY_AKG_CHANNEL2_INSTRUMENTSTEP	= 0xf07c
                         0000F09A  2185 	PLY_AKG_CHANNEL2_INVERTEDVOLUMEINTEGER	= 0xf09a
                         0000F099  2186 	PLY_AKG_CHANNEL2_INVERTEDVOLUMEINTEGERANDDECIMAL	= 0xf099
                         0000F077  2187 	PLY_AKG_CHANNEL2_ISARPEGGIOTABLE	= 0xf077
                         0000F079  2188 	PLY_AKG_CHANNEL2_ISPITCH	= 0xf079
                         0000F078  2189 	PLY_AKG_CHANNEL2_ISPITCHTABLE	= 0xf078
                         0000F076  2190 	PLY_AKG_CHANNEL2_ISVOLUMESLIDE	= 0xf076
                         0000F09B  2191 	PLY_AKG_CHANNEL2_PITCH	= 0xf09b
                         0000F082  2192 	PLY_AKG_CHANNEL2_PITCHBASESPEED	= 0xf082
                         0000F091  2193 	PLY_AKG_CHANNEL2_PITCHTABLE	= 0xf091
                         0000F093  2194 	PLY_AKG_CHANNEL2_PITCHTABLEBASE	= 0xf093
                         0000F081  2195 	PLY_AKG_CHANNEL2_PITCHTABLECURRENTSTEP	= 0xf081
                         0000F083  2196 	PLY_AKG_CHANNEL2_PITCHTABLESPEED	= 0xf083
                         0000F08F  2197 	PLY_AKG_CHANNEL2_PITCHTRACK	= 0xf08f
                         0000F0AE  2198 	PLY_AKG_CHANNEL2_PITCHTRACKADDORSBC_16BITS	= 0xf0ae
                         0000F0B0  2199 	PLY_AKG_CHANNEL2_PITCHTRACKAFTERADDORSBCJUMPINSTRANDADDRESS	= 0xf0b0
                         0000F085  2200 	PLY_AKG_CHANNEL2_PITCHTRACKDECIMALCOUNTER	= 0xf085
                         0000F0A7  2201 	PLY_AKG_CHANNEL2_PITCHTRACKDECIMALINSTR	= 0xf0a7
                         0000F0A9  2202 	PLY_AKG_CHANNEL2_PITCHTRACKDECIMALINSTRANDVALUERETURNJP	= 0xf0a9
                         0000F0A8  2203 	PLY_AKG_CHANNEL2_PITCHTRACKDECIMALVALUE	= 0xf0a8
                         0000F0B3  2204 	PLY_AKG_CHANNEL2_PITCHTRACKINTEGERADDORSUB	= 0xf0b3
                         0000F0B4  2205 	PLY_AKG_CHANNEL2_PITCHTRACKINTEGERAFTERADDORSUBJUMPINSTRANDADDRESS	= 0xf0b4
                         0000F074  2206 	PLY_AKG_CHANNEL2_PLAYINSTRUMENT_RELATIVEMODIFIERADDRESS	= 0xf074
                         0000F09F  2207 	PLY_AKG_CHANNEL2_PTBASEINSTRUMENT	= 0xf09f
                         0000F09D  2208 	PLY_AKG_CHANNEL2_PTINSTRUMENT	= 0xf09d
                         0000F089  2209 	PLY_AKG_CHANNEL2_PTTRACK	= 0xf089
                         0000F104  2210 	PLY_AKG_CHANNEL2_SOUNDEFFECTDATA	= 0xf104
                         0000F086  2211 	PLY_AKG_CHANNEL2_TRACKNOTE	= 0xf086
                         0000F0A1  2212 	PLY_AKG_CHANNEL2_VOLUMESLIDEVALUE	= 0xf0a1
                         0000F075  2213 	PLY_AKG_CHANNEL2_WAITCOUNTER	= 0xf075
                         0000F0C2  2214 	PLY_AKG_CHANNEL3_ARPEGGIOBASESPEED	= 0xf0c2
                         0000F0CE  2215 	PLY_AKG_CHANNEL3_ARPEGGIOTABLE	= 0xf0ce
                         0000F0D0  2216 	PLY_AKG_CHANNEL3_ARPEGGIOTABLEBASE	= 0xf0d0
                         0000F0C0  2217 	PLY_AKG_CHANNEL3_ARPEGGIOTABLECURRENTSTEP	= 0xf0c0
                         0000F0C3  2218 	PLY_AKG_CHANNEL3_ARPEGGIOTABLESPEED	= 0xf0c3
                         0000F0C1  2219 	PLY_AKG_CHANNEL3_GENERATEDCURRENTARPNOTE	= 0xf0c1
                         0000F0CB  2220 	PLY_AKG_CHANNEL3_GENERATEDCURRENTINVERTEDVOLUME	= 0xf0cb
                         0000F0EF  2221 	PLY_AKG_CHANNEL3_GENERATEDCURRENTPITCH	= 0xf0ef
                         0000F0CA  2222 	PLY_AKG_CHANNEL3_GLIDEDIRECTION	= 0xf0ca
                         0000F0E6  2223 	PLY_AKG_CHANNEL3_GLIDETOREACH	= 0xf0e6
                         0000F0E8  2224 	PLY_AKG_CHANNEL3_GLIDE_SAVEHL	= 0xf0e8
                         0000F0BD  2225 	PLY_AKG_CHANNEL3_INSTRUMENTORIGINALSPEED	= 0xf0bd
                         0000F0BE  2226 	PLY_AKG_CHANNEL3_INSTRUMENTSPEED	= 0xf0be
                         0000F0BF  2227 	PLY_AKG_CHANNEL3_INSTRUMENTSTEP	= 0xf0bf
                         0000F0DD  2228 	PLY_AKG_CHANNEL3_INVERTEDVOLUMEINTEGER	= 0xf0dd
                         0000F0DC  2229 	PLY_AKG_CHANNEL3_INVERTEDVOLUMEINTEGERANDDECIMAL	= 0xf0dc
                         0000F0BA  2230 	PLY_AKG_CHANNEL3_ISARPEGGIOTABLE	= 0xf0ba
                         0000F0BC  2231 	PLY_AKG_CHANNEL3_ISPITCH	= 0xf0bc
                         0000F0BB  2232 	PLY_AKG_CHANNEL3_ISPITCHTABLE	= 0xf0bb
                         0000F0B9  2233 	PLY_AKG_CHANNEL3_ISVOLUMESLIDE	= 0xf0b9
                         0000F0DE  2234 	PLY_AKG_CHANNEL3_PITCH	= 0xf0de
                         0000F0C5  2235 	PLY_AKG_CHANNEL3_PITCHBASESPEED	= 0xf0c5
                         0000F0D4  2236 	PLY_AKG_CHANNEL3_PITCHTABLE	= 0xf0d4
                         0000F0D6  2237 	PLY_AKG_CHANNEL3_PITCHTABLEBASE	= 0xf0d6
                         0000F0C4  2238 	PLY_AKG_CHANNEL3_PITCHTABLECURRENTSTEP	= 0xf0c4
                         0000F0C6  2239 	PLY_AKG_CHANNEL3_PITCHTABLESPEED	= 0xf0c6
                         0000F0D2  2240 	PLY_AKG_CHANNEL3_PITCHTRACK	= 0xf0d2
                         0000F0F1  2241 	PLY_AKG_CHANNEL3_PITCHTRACKADDORSBC_16BITS	= 0xf0f1
                         0000F0F3  2242 	PLY_AKG_CHANNEL3_PITCHTRACKAFTERADDORSBCJUMPINSTRANDADDRESS	= 0xf0f3
                         0000F0C8  2243 	PLY_AKG_CHANNEL3_PITCHTRACKDECIMALCOUNTER	= 0xf0c8
                         0000F0EA  2244 	PLY_AKG_CHANNEL3_PITCHTRACKDECIMALINSTR	= 0xf0ea
                         0000F0EC  2245 	PLY_AKG_CHANNEL3_PITCHTRACKDECIMALINSTRANDVALUERETURNJP	= 0xf0ec
                         0000F0EB  2246 	PLY_AKG_CHANNEL3_PITCHTRACKDECIMALVALUE	= 0xf0eb
                         0000F0F6  2247 	PLY_AKG_CHANNEL3_PITCHTRACKINTEGERADDORSUB	= 0xf0f6
                         0000F0F7  2248 	PLY_AKG_CHANNEL3_PITCHTRACKINTEGERAFTERADDORSUBJUMPINSTRANDADDRESS	= 0xf0f7
                         0000F0E2  2249 	PLY_AKG_CHANNEL3_PTBASEINSTRUMENT	= 0xf0e2
                         0000F0E0  2250 	PLY_AKG_CHANNEL3_PTINSTRUMENT	= 0xf0e0
                         0000F0CC  2251 	PLY_AKG_CHANNEL3_PTTRACK	= 0xf0cc
                         0000F10C  2252 	PLY_AKG_CHANNEL3_SOUNDEFFECTDATA	= 0xf10c
                         0000F0B7  2253 	PLY_AKG_CHANNEL3_SOUNDSTREAM_RELATIVEMODIFIERADDRESS	= 0xf0b7
                         0000F0C9  2254 	PLY_AKG_CHANNEL3_TRACKNOTE	= 0xf0c9
                         0000F0E4  2255 	PLY_AKG_CHANNEL3_VOLUMESLIDEVALUE	= 0xf0e4
                         0000F0B8  2256 	PLY_AKG_CHANNEL3_WAITCOUNTER	= 0xf0b8
                         0000F017  2257 	PLY_AKG_CHANNEL_READEFFECTS_EFFECTBLOCKS1	= 0xf017
                         0000F029  2258 	PLY_AKG_CHANNEL_READEFFECTS_ENDJUMPINSTRANDADDRESS	= 0xf029
                         0000F00A  2259 	PLY_AKG_CHANNEL_RE_READNEXTEFFECTINBLOCK	= 0xf00a
                         0000F001  2260 	PLY_AKG_CURRENTSPEED	= 0xf001
                         0000F02C  2261 	PLY_AKG_EFFECT_GLIDEWITHNOTESAVEDE	= 0xf02c
                         0000F019  2262 	PLY_AKG_EMPTYINSTRUMENTDATAPT	= 0xf019
                         0000F000  2263 	PLY_AKG_EVENT	= 0xf000
                         0000F00F  2264 	PLY_AKG_EVENTTRACK_PTTRACK	= 0xf00f
                         0000F006  2265 	PLY_AKG_EVENTTRACK_WAITCOUNTER	= 0xf006
                         0000F015  2266 	PLY_AKG_INSTRUMENTSTABLE	= 0xf015
                         0000F003  2267 	PLY_AKG_PATTERNDECREASINGHEIGHT	= 0xf003
                         0000F013  2268 	PLY_AKG_PITCHESTABLE	= 0xf013
                         0000F027  2269 	PLY_AKG_PSGHARDWAREPERIOD_INSTR	= 0xf027
                         0000F01D  2270 	PLY_AKG_PSGREG01_INSTR	= 0xf01d
                         0000F026  2271 	PLY_AKG_PSGREG10	= 0xf026
                         0000F008  2272 	PLY_AKG_PSGREG13_INSTR	= 0xf008
                         0000F007  2273 	PLY_AKG_PSGREG13_OLDVALUE	= 0xf007
                         0000F01F  2274 	PLY_AKG_PSGREG23_INSTR	= 0xf01f
                         0000F021  2275 	PLY_AKG_PSGREG45_INSTR	= 0xf021
                         0000F023  2276 	PLY_AKG_PSGREG6_8_INSTR	= 0xf023
                         0000F024  2277 	PLY_AKG_PSGREG8	= 0xf024
                         0000F025  2278 	PLY_AKG_PSGREG9_10_INSTR	= 0xf025
                         0000F0FA  2279 	PLY_AKG_PTSOUNDEFFECTTABLE	= 0xf0fa
                         0000F00B  2280 	PLY_AKG_READLINKER_PTLINKER	= 0xf00b
                         0000F009  2281 	PLY_AKG_RETRIG	= 0xf009
                         0000F01B  2282 	PLY_AKG_SAVESP	= 0xf01b
                         0000F00D  2283 	PLY_AKG_SPEEDTRACK_PTTRACK	= 0xf00d
                         0000F005  2284 	PLY_AKG_SPEEDTRACK_WAITCOUNTER	= 0xf005
                         0000F02E  2285 	PLY_AKG_TEMPPLAYINSTRUMENTJUMPINSTRANDADDRESS	= 0xf02e
                         0000F004  2286 	PLY_AKG_TICKDECREASINGCOUNTER	= 0xf004
                                   2287 ;	#	24 "C:\\Users\\reina\\OneDrive\\Documentos\\MSXgl\\engine/src/arkos/akg_player.c" 2
                                   2288 ;C:\Users\reina\OneDrive\Documentos\MSXgl\engine/src/arkos/akg_player.c:2251: ERROR: no line number 2251 in file C:\Users\reina\OneDrive\Documentos\MSXgl\engine/src/arkos/akg_player.c
    00000DBC C9               [10] 2289 	ret
                                   2290 ;C:\Users\reina\OneDrive\Documentos\MSXgl\engine/src/arkos/akg_player.c:2255: ERROR: no line number 2255 in file C:\Users\reina\OneDrive\Documentos\MSXgl\engine/src/arkos/akg_player.c
                                   2291 ;	---------------------------------
                                   2292 ; Function AKG_Init
                                   2293 ; ---------------------------------
    00000DBD                       2294 _AKG_Init::
                                   2295 ;C:\Users\reina\OneDrive\Documentos\MSXgl\engine/src/arkos/akg_player.c:2273: ERROR: no line number 2273 in file C:\Users\reina\OneDrive\Documentos\MSXgl\engine/src/arkos/akg_player.c
    00000DBD C1               [10] 2296 	pop	bc
    00000DBE 3B               [ 6] 2297 	dec	sp
    00000DBF F1               [10] 2298 	pop	af
    00000DC0 C5               [11] 2299 	push	bc
    00000DC1 DD E5            [15] 2300 	push	ix
    00000DC3 CDr2Dr01         [17] 2301 	call	_PLY_AKG_INIT
    00000DC6 DD E1            [14] 2302 	pop	ix
    00000DC8 3E 01            [ 7] 2303 	ld	a, #1
    00000DCA 32r00r00         [13] 2304 	ld	(_g_AKG_Playing), a
    00000DCD C9               [10] 2305 	ret
                                   2306 ;C:\Users\reina\OneDrive\Documentos\MSXgl\engine/src/arkos/akg_player.c:2274: ERROR: no line number 2274 in file C:\Users\reina\OneDrive\Documentos\MSXgl\engine/src/arkos/akg_player.c
                                   2307 ;C:\Users\reina\OneDrive\Documentos\MSXgl\engine/src/arkos/akg_player.c:2278: ERROR: no line number 2278 in file C:\Users\reina\OneDrive\Documentos\MSXgl\engine/src/arkos/akg_player.c
                                   2308 ;	---------------------------------
                                   2309 ; Function AKG_Stop
                                   2310 ; ---------------------------------
    00000DCE                       2311 _AKG_Stop::
                                   2312 ;C:\Users\reina\OneDrive\Documentos\MSXgl\engine/src/arkos/akg_player.c:2287: ERROR: no line number 2287 in file C:\Users\reina\OneDrive\Documentos\MSXgl\engine/src/arkos/akg_player.c
    00000DCE AF               [ 4] 2313 	xor	a
    00000DCF 32r00r00         [13] 2314 	ld	(_g_AKG_Playing), a
    00000DD2 DD E5            [15] 2315 	push	ix
    00000DD4 CDr47r02         [17] 2316 	call	_PLY_AKG_STOP
    00000DD7 DD E1            [14] 2317 	pop	ix
                                   2318 ;C:\Users\reina\OneDrive\Documentos\MSXgl\engine/src/arkos/akg_player.c:2288: ERROR: no line number 2288 in file C:\Users\reina\OneDrive\Documentos\MSXgl\engine/src/arkos/akg_player.c
    00000DD9 C9               [10] 2319 	ret
                                   2320 ;C:\Users\reina\OneDrive\Documentos\MSXgl\engine/src/arkos/akg_player.c:2292: ERROR: no line number 2292 in file C:\Users\reina\OneDrive\Documentos\MSXgl\engine/src/arkos/akg_player.c
                                   2321 ;	---------------------------------
                                   2322 ; Function AKG_Decode
                                   2323 ; ---------------------------------
    00000DDA                       2324 _AKG_Decode::
                                   2325 ;C:\Users\reina\OneDrive\Documentos\MSXgl\engine/src/arkos/akg_player.c:2305: ERROR: no line number 2305 in file C:\Users\reina\OneDrive\Documentos\MSXgl\engine/src/arkos/akg_player.c
    00000DDA 3Ar00r00         [13] 2326 	ld	a, (_g_AKG_Playing)
    00000DDD B7               [ 4] 2327 	or	a
    00000DDE C8               [11] 2328 	ret	z
    00000DDF AF               [ 4] 2329 	xor	a
    00000DE0 32r00r00         [13] 2330 	ld	(_g_AKG_EndOfSong), a
    00000DE3 DD E5            [15] 2331 	push	ix
    00000DE5 CDr59r02         [17] 2332 	call	_PLY_AKG_PLAY
    00000DE8 DD E1            [14] 2333 	pop	ix
    00000DEA 3Ar00r00         [13] 2334 	ld	a, (_g_AKG_EndOfSong)
                                   2335 ;C:\Users\reina\OneDrive\Documentos\MSXgl\engine/src/arkos/akg_player.c:2306: ERROR: no line number 2306 in file C:\Users\reina\OneDrive\Documentos\MSXgl\engine/src/arkos/akg_player.c
    00000DED C9               [10] 2336 	ret
                                   2337 ;C:\Users\reina\OneDrive\Documentos\MSXgl\engine/src/arkos/akg_player.c:2314: ERROR: no line number 2314 in file C:\Users\reina\OneDrive\Documentos\MSXgl\engine/src/arkos/akg_player.c
                                   2338 ;	---------------------------------
                                   2339 ; Function AKG_InitSFX
                                   2340 ; ---------------------------------
    00000DEE                       2341 _AKG_InitSFX::
                                   2342 ;C:\Users\reina\OneDrive\Documentos\MSXgl\engine/src/arkos/akg_player.c:2326: ERROR: no line number 2326 in file C:\Users\reina\OneDrive\Documentos\MSXgl\engine/src/arkos/akg_player.c
    00000DEE CDr00r00         [17] 2343 	call	_PLY_AKG_INITSOUNDEFFECTS
    00000DF1 3E 01            [ 7] 2344 	ld	a, #1
    00000DF3 32r00r00         [13] 2345 	ld	(_g_AKG_Playing), a
    00000DF6 7E               [ 7] 2346 	ld	a, (hl)
    00000DF7 CB 3F            [ 8] 2347 	srl	a
                                   2348 ;C:\Users\reina\OneDrive\Documentos\MSXgl\engine/src/arkos/akg_player.c:2327: ERROR: no line number 2327 in file C:\Users\reina\OneDrive\Documentos\MSXgl\engine/src/arkos/akg_player.c
    00000DF9 C9               [10] 2349 	ret
                                   2350 ;C:\Users\reina\OneDrive\Documentos\MSXgl\engine/src/arkos/akg_player.c:111: void AKG_PlaySFX(u8 sfx, u8 chan, u8 vol) __NAKED
                                   2351 ;	---------------------------------
                                   2352 ; Function AKG_PlaySFX
                                   2353 ; ---------------------------------
    00000DFA                       2354 _AKG_PlaySFX::
                                   2355 ;C:\Users\reina\OneDrive\Documentos\MSXgl\engine/src/arkos/akg_player.c:133: __endasm;
    00000DFA D1               [10] 2356 	pop	de
    00000DFB 3B               [ 6] 2357 	dec	sp
    00000DFC C1               [10] 2358 	pop	bc
    00000DFD 4D               [ 4] 2359 	ld	c, l
    00000DFE D5               [11] 2360 	push	de
    00000DFF 3C               [ 4] 2361 	inc	a
    00000E00 DD E5            [15] 2362 	push	ix
    00000E02 CDr04r00         [17] 2363 	call	_PLY_AKG_PLAYSOUNDEFFECT
    00000E05 DD E1            [14] 2364 	pop	ix
    00000E07 C9               [10] 2365 	ret
                                   2366 ;C:\Users\reina\OneDrive\Documentos\MSXgl\engine/src/arkos/akg_player.c:134: }
                                   2367 ;C:\Users\reina\OneDrive\Documentos\MSXgl\engine/src/arkos/akg_player.c:142: void AKG_StopSFX(u8 chan)
                                   2368 ;	---------------------------------
                                   2369 ; Function AKG_StopSFX
                                   2370 ; ---------------------------------
    00000E08                       2371 _AKG_StopSFX::
                                   2372 ;C:\Users\reina\OneDrive\Documentos\MSXgl\engine/src/arkos/akg_player.c:151: __endasm;
    00000E08 DD E5            [15] 2373 	push	ix
    00000E0A CDr2Cr00         [17] 2374 	call	_PLY_AKG_STOPSOUNDEFFECTFROMCHANNEL
    00000E0D DD E1            [14] 2375 	pop	ix
                                   2376 ;C:\Users\reina\OneDrive\Documentos\MSXgl\engine/src/arkos/akg_player.c:152: }
    00000E0F C9               [10] 2377 	ret
                                   2378 	.area _CODE
                                   2379 	.area _INITIALIZER
    00000000                       2380 __xinit__g_AKG_Playing:
    00000000 00                    2381 	.db #0x00	; 0
                                   2382 	.area _CABS (ABS)
