                                      1 ;--------------------------------------------------------
                                      2 ; File Created by SDCC : free open source ANSI-C Compiler
                                      3 ; Version 4.2.0 #13081 (MINGW64)
                                      4 ;--------------------------------------------------------
                                      5 	.module draw
                                      6 	.optsdcc -mz80
                                      7 	
                                      8 ;--------------------------------------------------------
                                      9 ; Public variables in this module
                                     10 ;--------------------------------------------------------
                                     11 	.globl _VPD_CommandSetupR36
                                     12 	.globl _g_SLTSL
                                     13 	.globl _g_GRPACY
                                     14 	.globl _g_GRPACX
                                     15 	.globl _g_LOGOPR
                                     16 	.globl _g_CMASK
                                     17 	.globl _g_CLOC
                                     18 	.globl _g_FNKSTR
                                     19 	.globl _g_ATRBYT
                                     20 	.globl _g_BDRCLR
                                     21 	.globl _g_BAKCLR
                                     22 	.globl _g_FORCLR
                                     23 	.globl _g_CSRX
                                     24 	.globl _g_CSRY
                                     25 	.globl _g_CLIKSW
                                     26 	.globl _g_MLTPAT
                                     27 	.globl _g_MLTATR
                                     28 	.globl _g_MLTCGP
                                     29 	.globl _g_MLTCOL
                                     30 	.globl _g_MLTNAM
                                     31 	.globl _g_GRPPAT
                                     32 	.globl _g_GRPATR
                                     33 	.globl _g_GRPCGP
                                     34 	.globl _g_GRPCOL
                                     35 	.globl _g_GRPNAM
                                     36 	.globl _g_T32PAT
                                     37 	.globl _g_T32ATR
                                     38 	.globl _g_T32CGP
                                     39 	.globl _g_T32COL
                                     40 	.globl _g_T32NAM
                                     41 	.globl _g_TXTPAT
                                     42 	.globl _g_TXTATR
                                     43 	.globl _g_TXTCGP
                                     44 	.globl _g_TXTCOL
                                     45 	.globl _g_TXTNAM
                                     46 	.globl _g_CLMLST
                                     47 	.globl _g_CRTCNT
                                     48 	.globl _g_LINLEN
                                     49 	.globl _g_LINL32
                                     50 	.globl _g_LINL40
                                     51 	.globl _g_SVFFFD
                                     52 	.globl _g_RG27SAV
                                     53 	.globl _g_RG26SAV
                                     54 	.globl _g_RG25SAV
                                     55 	.globl _g_SVFFF8
                                     56 	.globl _g_MINROM
                                     57 	.globl _g_RG23SAV
                                     58 	.globl _g_RG22SAV
                                     59 	.globl _g_RG21SAV
                                     60 	.globl _g_RG20SAV
                                     61 	.globl _g_RG19SAV
                                     62 	.globl _g_RG18SAV
                                     63 	.globl _g_RG17SAV
                                     64 	.globl _g_RG16SAV
                                     65 	.globl _g_RG15SAV
                                     66 	.globl _g_RG14SAV
                                     67 	.globl _g_RG13SAV
                                     68 	.globl _g_RG12SAV
                                     69 	.globl _g_RG11SAV
                                     70 	.globl _g_RG10SAV
                                     71 	.globl _g_RG09SAV
                                     72 	.globl _g_RG08SAV
                                     73 	.globl _g_PROCNM
                                     74 	.globl _g_SLTWRK
                                     75 	.globl _g_SLTATR
                                     76 	.globl _g_SLTTBL
                                     77 	.globl _g_EXPTBL
                                     78 	.globl _g_MNROM
                                     79 	.globl _g_DRWANG
                                     80 	.globl _g_DRWSCL
                                     81 	.globl _g_DRWFLG
                                     82 	.globl _g_GYPOS
                                     83 	.globl _g_GXPOS
                                     84 	.globl _g_BRDATR
                                     85 	.globl _g_CASPRV
                                     86 	.globl _g_OLDSCR
                                     87 	.globl _g_SCRMOD
                                     88 	.globl _g_FLBMEM
                                     89 	.globl _g_KANAMD
                                     90 	.globl _g_KANAST
                                     91 	.globl _g_CAPST
                                     92 	.globl _g_CSTYLE
                                     93 	.globl _g_CSRSW
                                     94 	.globl _g_INSFLG
                                     95 	.globl _g_ESCCNT
                                     96 	.globl _g_GRPHED
                                     97 	.globl _g_WINWID
                                     98 	.globl _g_LOWLIM
                                     99 	.globl _g_INTCNT
                                    100 	.globl _g_INTVAL
                                    101 	.globl _g_JIFFY
                                    102 	.globl _g_PADX
                                    103 	.globl _g_PADY
                                    104 	.globl _g_INTFLG
                                    105 	.globl _g_RTYCNT
                                    106 	.globl _g_TRPTBL
                                    107 	.globl _g_HIMEM
                                    108 	.globl _g_BOTTOM
                                    109 	.globl _g_PATWRK
                                    110 	.globl _g_LINWRK
                                    111 	.globl _g_KEYBUF
                                    112 	.globl _g_NEWKEY
                                    113 	.globl _g_OLDKEY
                                    114 	.globl _g_CLIKFL
                                    115 	.globl _g_ONGSBF
                                    116 	.globl _g_FNKFLG
                                    117 	.globl _g_FNKSWI
                                    118 	.globl _g_CODSAV
                                    119 	.globl _g_FSTPOS
                                    120 	.globl _g_LINTTB
                                    121 	.globl _g_BASROM
                                    122 	.globl _g_ENSTOP
                                    123 	.globl _g_VCBC
                                    124 	.globl _g_VCBB
                                    125 	.globl _g_VCBA
                                    126 	.globl _g_PLYCNT
                                    127 	.globl _g_MUSICF
                                    128 	.globl _g_QUEUEN
                                    129 	.globl _g_MCLPTR
                                    130 	.globl _g_MCLLEN
                                    131 	.globl _g_SAVVOL
                                    132 	.globl _g_VOICEN
                                    133 	.globl _g_SAVSP
                                    134 	.globl _g_PRSCNT
                                    135 	.globl _g_LSTMOD
                                    136 	.globl _g_LSTCOM
                                    137 	.globl _g_COMMSK
                                    138 	.globl _g_ESTBLS
                                    139 	.globl _g_FLAGS
                                    140 	.globl _g_ERRORS
                                    141 	.globl _g_DATCNT
                                    142 	.globl _g_DEVNUM
                                    143 	.globl _g_OLDINT
                                    144 	.globl _g_OLDSTT
                                    145 	.globl _g_MEXBIh
                                    146 	.globl _g_RSIQLN
                                    147 	.globl _g_RSFCB
                                    148 	.globl _g_TOCNT
                                    149 	.globl _g_RSTMP
                                    150 	.globl _g_YSAVE
                                    151 	.globl _g_XSAVE
                                    152 	.globl _g_NORUSE
                                    153 	.globl _g_MODE
                                    154 	.globl _g_ROMA
                                    155 	.globl _g_CHRCNT
                                    156 	.globl _g_EXBRSA
                                    157 	.globl _g_AVCSAV
                                    158 	.globl _g_ACPAGE
                                    159 	.globl _g_DPPAGE
                                    160 	.globl _g_RS2IQ
                                    161 	.globl _g_VOICCQ
                                    162 	.globl _g_VOICBQ
                                    163 	.globl _g_VOICAQ
                                    164 	.globl _g_QUEBAK
                                    165 	.globl _g_QUETAB
                                    166 	.globl _g_ASPCT2
                                    167 	.globl _g_ASPCT1
                                    168 	.globl _g_HEADER
                                    169 	.globl _g_HIGH
                                    170 	.globl _g_LOW
                                    171 	.globl _g_CS240
                                    172 	.globl _g_CS120
                                    173 	.globl _g_GETPNT
                                    174 	.globl _g_PUTPNT
                                    175 	.globl _g_REPCNT
                                    176 	.globl _g_SCNCNT
                                    177 	.globl _g_FRCNEW
                                    178 	.globl _g_QUEUES
                                    179 	.globl _g_MINUPD
                                    180 	.globl _g_MAXUPD
                                    181 	.globl _g_TRGFLG
                                    182 	.globl _g_STATFL
                                    183 	.globl _g_RG7SAV
                                    184 	.globl _g_RG6SAV
                                    185 	.globl _g_RG5SAV
                                    186 	.globl _g_RG4SAV
                                    187 	.globl _g_RG3SAV
                                    188 	.globl _g_RG2SAV
                                    189 	.globl _g_RG1SAV
                                    190 	.globl _g_RG0SAV
                                    191 	.globl _g_CNSDFG
                                    192 	.globl _g_USRTAB
                                    193 	.globl _g_CLPRIM
                                    194 	.globl _g_WRPRIM
                                    195 	.globl _g_RDPRIM
                                    196 	.globl _Draw_Line
                                    197 	.globl _Draw_LineH
                                    198 	.globl _Draw_LineV
                                    199 	.globl _Draw_Box
                                    200 	.globl _Draw_FillBox
                                    201 	.globl _Draw_Circle
                                    202 ;--------------------------------------------------------
                                    203 ; special function registers
                                    204 ;--------------------------------------------------------
                                    205 ;--------------------------------------------------------
                                    206 ; ram data
                                    207 ;--------------------------------------------------------
                                    208 	.area _DATA
                         0000F3AE   209 _g_LINL40	=	0xf3ae
                         0000F3AF   210 _g_LINL32	=	0xf3af
                         0000F3B0   211 _g_LINLEN	=	0xf3b0
                         0000F3B1   212 _g_CRTCNT	=	0xf3b1
                         0000F3B2   213 _g_CLMLST	=	0xf3b2
                         0000F3B3   214 _g_TXTNAM	=	0xf3b3
                         0000F3B5   215 _g_TXTCOL	=	0xf3b5
                         0000F3B7   216 _g_TXTCGP	=	0xf3b7
                         0000F3B9   217 _g_TXTATR	=	0xf3b9
                         0000F3BB   218 _g_TXTPAT	=	0xf3bb
                         0000F3BD   219 _g_T32NAM	=	0xf3bd
                         0000F3BF   220 _g_T32COL	=	0xf3bf
                         0000F3C1   221 _g_T32CGP	=	0xf3c1
                         0000F3C3   222 _g_T32ATR	=	0xf3c3
                         0000F3C5   223 _g_T32PAT	=	0xf3c5
                         0000F3C7   224 _g_GRPNAM	=	0xf3c7
                         0000F3C9   225 _g_GRPCOL	=	0xf3c9
                         0000F3CB   226 _g_GRPCGP	=	0xf3cb
                         0000F3CD   227 _g_GRPATR	=	0xf3cd
                         0000F3CF   228 _g_GRPPAT	=	0xf3cf
                         0000F3D1   229 _g_MLTNAM	=	0xf3d1
                         0000F3D3   230 _g_MLTCOL	=	0xf3d3
                         0000F3D5   231 _g_MLTCGP	=	0xf3d5
                         0000F3D7   232 _g_MLTATR	=	0xf3d7
                         0000F3D9   233 _g_MLTPAT	=	0xf3d9
                         0000F3DB   234 _g_CLIKSW	=	0xf3db
                         0000F3DC   235 _g_CSRY	=	0xf3dc
                         0000F3DD   236 _g_CSRX	=	0xf3dd
                         0000F3E9   237 _g_FORCLR	=	0xf3e9
                         0000F3EA   238 _g_BAKCLR	=	0xf3ea
                         0000F3EB   239 _g_BDRCLR	=	0xf3eb
                         0000F3F2   240 _g_ATRBYT	=	0xf3f2
                         0000F87F   241 _g_FNKSTR	=	0xf87f
                         0000F92A   242 _g_CLOC	=	0xf92a
                         0000F92C   243 _g_CMASK	=	0xf92c
                         0000FB02   244 _g_LOGOPR	=	0xfb02
                         0000FCB7   245 _g_GRPACX	=	0xfcb7
                         0000FCB9   246 _g_GRPACY	=	0xfcb9
                         0000FFFF   247 _g_SLTSL	=	0xffff
                                    248 ;--------------------------------------------------------
                                    249 ; ram data
                                    250 ;--------------------------------------------------------
                                    251 	.area _INITIALIZED
                                    252 ;--------------------------------------------------------
                                    253 ; absolute external ram data
                                    254 ;--------------------------------------------------------
                                    255 	.area _DABS (ABS)
                                    256 ;--------------------------------------------------------
                                    257 ; global & static initialisations
                                    258 ;--------------------------------------------------------
                                    259 	.area _HOME
                                    260 	.area _GSINIT
                                    261 	.area _GSFINAL
                                    262 	.area _GSINIT
                                    263 ;--------------------------------------------------------
                                    264 ; Home
                                    265 ;--------------------------------------------------------
                                    266 	.area _HOME
                                    267 	.area _HOME
                                    268 ;--------------------------------------------------------
                                    269 ; code
                                    270 ;--------------------------------------------------------
                                    271 	.area _CODE
                                    272 ;C:\Users\reina\OneDrive\Documentos\MSXgl\engine/src/draw.c:14: void Draw_Line(UX x1, UY y1, UX x2, UY y2, u8 color, u8 op)
                                    273 ;	---------------------------------
                                    274 ; Function Draw_Line
                                    275 ; ---------------------------------
    00000000                        276 _Draw_Line::
    00000000 DD E5            [15]  277 	push	ix
    00000002 DD 21 00 00      [14]  278 	ld	ix,#0
    00000006 DD 39            [15]  279 	add	ix,sp
    00000008 FD 21 F7 FF      [14]  280 	ld	iy, #-9
    0000000C FD 39            [15]  281 	add	iy, sp
    0000000E FD F9            [10]  282 	ld	sp, iy
    00000010 DD 77 FF         [19]  283 	ld	-1 (ix), a
    00000013 DD 75 FE         [19]  284 	ld	-2 (ix), l
                                    285 ;C:\Users\reina\OneDrive\Documentos\MSXgl\engine/src/draw.c:23: dx = x1 - x2 /*+ 1*/;
    00000016 DD 4E FF         [19]  286 	ld	c, -1 (ix)
    00000019 06 00            [ 7]  287 	ld	b, #0x00
    0000001B DD 7E 04         [19]  288 	ld	a, 4 (ix)
    0000001E DD 77 FA         [19]  289 	ld	-6 (ix), a
    00000021 DD 36 FB 00      [19]  290 	ld	-5 (ix), #0x00
                                    291 ;C:\Users\reina\OneDrive\Documentos\MSXgl\engine/src/draw.c:20: if(x1 > x2)
    00000025 DD 7E 04         [19]  292 	ld	a, 4 (ix)
    00000028 DD 96 FF         [19]  293 	sub	a, -1 (ix)
    0000002B 30 14            [12]  294 	jr	NC, 00102$
                                    295 ;C:\Users\reina\OneDrive\Documentos\MSXgl\engine/src/draw.c:22: arg |= VDP_ARG_DIX_LEFT;
    0000002D 1E 04            [ 7]  296 	ld	e, #0x04
                                    297 ;C:\Users\reina\OneDrive\Documentos\MSXgl\engine/src/draw.c:23: dx = x1 - x2 /*+ 1*/;
    0000002F 79               [ 4]  298 	ld	a, c
    00000030 DD 96 FA         [19]  299 	sub	a, -6 (ix)
    00000033 4F               [ 4]  300 	ld	c, a
    00000034 78               [ 4]  301 	ld	a, b
    00000035 DD 9E FB         [19]  302 	sbc	a, -5 (ix)
    00000038 DD 71 FC         [19]  303 	ld	-4 (ix), c
    0000003B DD 77 FD         [19]  304 	ld	-3 (ix), a
    0000003E C3r51r00         [10]  305 	jp	00103$
    00000041                        306 00102$:
                                    307 ;C:\Users\reina\OneDrive\Documentos\MSXgl\engine/src/draw.c:27: arg |= VDP_ARG_DIX_RIGHT;
    00000041 1E 00            [ 7]  308 	ld	e, #0x00
                                    309 ;C:\Users\reina\OneDrive\Documentos\MSXgl\engine/src/draw.c:28: dx = x2 - x1 /*+ 1*/;
    00000043 DD 7E FA         [19]  310 	ld	a, -6 (ix)
    00000046 91               [ 4]  311 	sub	a, c
    00000047 DD 77 FC         [19]  312 	ld	-4 (ix), a
    0000004A DD 7E FB         [19]  313 	ld	a, -5 (ix)
    0000004D 98               [ 4]  314 	sbc	a, b
    0000004E DD 77 FD         [19]  315 	ld	-3 (ix), a
    00000051                        316 00103$:
                                    317 ;C:\Users\reina\OneDrive\Documentos\MSXgl\engine/src/draw.c:33: dy = y1 - y2 /*+ 1*/;
    00000051 DD 4E FE         [19]  318 	ld	c, -2 (ix)
    00000054 06 00            [ 7]  319 	ld	b, #0x00
    00000056 DD 6E 05         [19]  320 	ld	l, 5 (ix)
                                    321 ;	spillPairReg hl
                                    322 ;	spillPairReg hl
    00000059 26 00            [ 7]  323 	ld	h, #0x00
                                    324 ;	spillPairReg hl
                                    325 ;	spillPairReg hl
                                    326 ;C:\Users\reina\OneDrive\Documentos\MSXgl\engine/src/draw.c:30: if(y1 > y2)
    0000005B DD 7E 05         [19]  327 	ld	a, 5 (ix)
    0000005E DD 96 FE         [19]  328 	sub	a, -2 (ix)
    00000061 30 0B            [12]  329 	jr	NC, 00105$
                                    330 ;C:\Users\reina\OneDrive\Documentos\MSXgl\engine/src/draw.c:32: arg |= VDP_ARG_DIY_UP;
    00000063 CB DB            [ 8]  331 	set	3, e
                                    332 ;C:\Users\reina\OneDrive\Documentos\MSXgl\engine/src/draw.c:33: dy = y1 - y2 /*+ 1*/;
    00000065 79               [ 4]  333 	ld	a, c
    00000066 95               [ 4]  334 	sub	a, l
    00000067 4F               [ 4]  335 	ld	c, a
    00000068 78               [ 4]  336 	ld	a, b
    00000069 9C               [ 4]  337 	sbc	a, h
    0000006A 47               [ 4]  338 	ld	b, a
    0000006B C3r73r00         [10]  339 	jp	00106$
    0000006E                        340 00105$:
                                    341 ;C:\Users\reina\OneDrive\Documentos\MSXgl\engine/src/draw.c:38: dy = y2 - y1 /*+ 1*/;
    0000006E BF               [ 4]  342 	cp	a, a
    0000006F ED 42            [15]  343 	sbc	hl, bc
    00000071 4D               [ 4]  344 	ld	c, l
    00000072 44               [ 4]  345 	ld	b, h
    00000073                        346 00106$:
                                    347 ;C:\Users\reina\OneDrive\Documentos\MSXgl\engine/src/draw.c:40: if(dx > dy)
    00000073 79               [ 4]  348 	ld	a, c
    00000074 DD 96 FC         [19]  349 	sub	a, -4 (ix)
    00000077 78               [ 4]  350 	ld	a, b
    00000078 DD 9E FD         [19]  351 	sbc	a, -3 (ix)
    0000007B 30 0F            [12]  352 	jr	NC, 00108$
                                    353 ;C:\Users\reina\OneDrive\Documentos\MSXgl\engine/src/draw.c:43: nx = dx;
    0000007D DD 7E FC         [19]  354 	ld	a, -4 (ix)
    00000080 DD 77 F7         [19]  355 	ld	-9 (ix), a
    00000083 DD 7E FD         [19]  356 	ld	a, -3 (ix)
    00000086 DD 77 F8         [19]  357 	ld	-8 (ix), a
                                    358 ;C:\Users\reina\OneDrive\Documentos\MSXgl\engine/src/draw.c:44: ny = dy;
    00000089 C3r97r00         [10]  359 	jp	00109$
    0000008C                        360 00108$:
                                    361 ;C:\Users\reina\OneDrive\Documentos\MSXgl\engine/src/draw.c:48: arg |= VDP_ARG_MAJ_V;
    0000008C CB C3            [ 8]  362 	set	0, e
                                    363 ;C:\Users\reina\OneDrive\Documentos\MSXgl\engine/src/draw.c:49: nx = dy;
    0000008E 33               [ 6]  364 	inc	sp
    0000008F 33               [ 6]  365 	inc	sp
    00000090 C5               [11]  366 	push	bc
                                    367 ;C:\Users\reina\OneDrive\Documentos\MSXgl\engine/src/draw.c:50: ny = dx;
    00000091 DD 4E FC         [19]  368 	ld	c, -4 (ix)
    00000094 DD 46 FD         [19]  369 	ld	b, -3 (ix)
    00000097                        370 00109$:
                                    371 ;C:\Users\reina\OneDrive\Documentos\MSXgl\engine/src/draw.c:53: VDP_CommandLINE(x1, y1, nx, ny, color, arg, op);	
    00000097 DD 7E 07         [19]  372 	ld	a, 7 (ix)
    0000009A DD 77 F9         [19]  373 	ld	-7 (ix), a
    0000009D DD 56 06         [19]  374 	ld	d, 6 (ix)
    000000A0 DD 7E FE         [19]  375 	ld	a, -2 (ix)
    000000A3 DD 77 FA         [19]  376 	ld	-6 (ix), a
    000000A6 DD 36 FB 00      [19]  377 	ld	-5 (ix), #0x00
    000000AA DD 7E FF         [19]  378 	ld	a, -1 (ix)
    000000AD DD 77 FC         [19]  379 	ld	-4 (ix), a
    000000B0 DD 36 FD 00      [19]  380 	ld	-3 (ix), #0x00
                                    381 ;C:\Users\reina\OneDrive\Documentos\MSXgl\engine/src/vdp_inl.h:338: g_VDP_Command.DX = dx;
    000000B4 21r04r00         [10]  382 	ld	hl, #(_g_VDP_Command + 4)
    000000B7 DD 7E FC         [19]  383 	ld	a, -4 (ix)
    000000BA 77               [ 7]  384 	ld	(hl), a
    000000BB 23               [ 6]  385 	inc	hl
    000000BC DD 7E FD         [19]  386 	ld	a, -3 (ix)
    000000BF 77               [ 7]  387 	ld	(hl), a
                                    388 ;C:\Users\reina\OneDrive\Documentos\MSXgl\engine/src/vdp_inl.h:339: g_VDP_Command.DY = dy;
    000000C0 21r06r00         [10]  389 	ld	hl, #(_g_VDP_Command + 6)
    000000C3 DD 7E FA         [19]  390 	ld	a, -6 (ix)
    000000C6 77               [ 7]  391 	ld	(hl), a
    000000C7 23               [ 6]  392 	inc	hl
    000000C8 DD 7E FB         [19]  393 	ld	a, -5 (ix)
    000000CB 77               [ 7]  394 	ld	(hl), a
                                    395 ;C:\Users\reina\OneDrive\Documentos\MSXgl\engine/src/vdp_inl.h:340: g_VDP_Command.NX = nx;
    000000CC 21r08r00         [10]  396 	ld	hl, #(_g_VDP_Command + 8)
    000000CF DD 7E F7         [19]  397 	ld	a, -9 (ix)
    000000D2 77               [ 7]  398 	ld	(hl), a
    000000D3 23               [ 6]  399 	inc	hl
    000000D4 DD 7E F8         [19]  400 	ld	a, -8 (ix)
    000000D7 77               [ 7]  401 	ld	(hl), a
                                    402 ;C:\Users\reina\OneDrive\Documentos\MSXgl\engine/src/vdp_inl.h:341: g_VDP_Command.NY = ny;
    000000D8 ED 43r0Ar00      [20]  403 	ld	((_g_VDP_Command + 10)), bc
                                    404 ;C:\Users\reina\OneDrive\Documentos\MSXgl\engine/src/vdp_inl.h:342: g_VDP_Command.CLR = col;
    000000DC 21r0Cr00         [10]  405 	ld	hl, #(_g_VDP_Command + 12)
    000000DF 72               [ 7]  406 	ld	(hl), d
                                    407 ;C:\Users\reina\OneDrive\Documentos\MSXgl\engine/src/vdp_inl.h:343: g_VDP_Command.ARG = arg;
    000000E0 21r0Dr00         [10]  408 	ld	hl, #(_g_VDP_Command + 13)
    000000E3 73               [ 7]  409 	ld	(hl), e
                                    410 ;C:\Users\reina\OneDrive\Documentos\MSXgl\engine/src/vdp_inl.h:344: g_VDP_Command.CMD = VDP_CMD_LINE + op;
    000000E4 DD 7E F9         [19]  411 	ld	a, -7 (ix)
    000000E7 C6 70            [ 7]  412 	add	a, #0x70
    000000E9 32r0Er00         [13]  413 	ld	(#(_g_VDP_Command + 14)),a
                                    414 ;C:\Users\reina\OneDrive\Documentos\MSXgl\engine/src/vdp_inl.h:345: VPD_CommandSetupR36();
    000000EC CDr00r00         [17]  415 	call	_VPD_CommandSetupR36
                                    416 ;C:\Users\reina\OneDrive\Documentos\MSXgl\engine/src/draw.c:53: VDP_CommandLINE(x1, y1, nx, ny, color, arg, op);	
                                    417 ;C:\Users\reina\OneDrive\Documentos\MSXgl\engine/src/draw.c:54: }
    000000EF DD F9            [10]  418 	ld	sp, ix
    000000F1 DD E1            [14]  419 	pop	ix
    000000F3 E1               [10]  420 	pop	hl
    000000F4 F1               [10]  421 	pop	af
    000000F5 F1               [10]  422 	pop	af
    000000F6 E9               [ 4]  423 	jp	(hl)
                         0000F380   424 _g_RDPRIM	=	0xf380
                         0000F385   425 _g_WRPRIM	=	0xf385
                         0000F38C   426 _g_CLPRIM	=	0xf38c
                         0000F39A   427 _g_USRTAB	=	0xf39a
                         0000F3DE   428 _g_CNSDFG	=	0xf3de
                         0000F3DF   429 _g_RG0SAV	=	0xf3df
                         0000F3E0   430 _g_RG1SAV	=	0xf3e0
                         0000F3E1   431 _g_RG2SAV	=	0xf3e1
                         0000F3E2   432 _g_RG3SAV	=	0xf3e2
                         0000F3E3   433 _g_RG4SAV	=	0xf3e3
                         0000F3E4   434 _g_RG5SAV	=	0xf3e4
                         0000F3E5   435 _g_RG6SAV	=	0xf3e5
                         0000F3E6   436 _g_RG7SAV	=	0xf3e6
                         0000F3E7   437 _g_STATFL	=	0xf3e7
                         0000F3E8   438 _g_TRGFLG	=	0xf3e8
                         0000F3EC   439 _g_MAXUPD	=	0xf3ec
                         0000F3EF   440 _g_MINUPD	=	0xf3ef
                         0000F3F3   441 _g_QUEUES	=	0xf3f3
                         0000F3F5   442 _g_FRCNEW	=	0xf3f5
                         0000F3F6   443 _g_SCNCNT	=	0xf3f6
                         0000F3F7   444 _g_REPCNT	=	0xf3f7
                         0000F3F8   445 _g_PUTPNT	=	0xf3f8
                         0000F3FA   446 _g_GETPNT	=	0xf3fa
                         0000F3FC   447 _g_CS120	=	0xf3fc
                         0000F401   448 _g_CS240	=	0xf401
                         0000F406   449 _g_LOW	=	0xf406
                         0000F408   450 _g_HIGH	=	0xf408
                         0000F40A   451 _g_HEADER	=	0xf40a
                         0000F40B   452 _g_ASPCT1	=	0xf40b
                         0000F40D   453 _g_ASPCT2	=	0xf40d
                         0000F959   454 _g_QUETAB	=	0xf959
                         0000F971   455 _g_QUEBAK	=	0xf971
                         0000F975   456 _g_VOICAQ	=	0xf975
                         0000F9F5   457 _g_VOICBQ	=	0xf9f5
                         0000FA75   458 _g_VOICCQ	=	0xfa75
                         0000FAF5   459 _g_RS2IQ	=	0xfaf5
                         0000FAF5   460 _g_DPPAGE	=	0xfaf5
                         0000FAF6   461 _g_ACPAGE	=	0xfaf6
                         0000FAF7   462 _g_AVCSAV	=	0xfaf7
                         0000FAF8   463 _g_EXBRSA	=	0xfaf8
                         0000FAF9   464 _g_CHRCNT	=	0xfaf9
                         0000FAFA   465 _g_ROMA	=	0xfafa
                         0000FAFC   466 _g_MODE	=	0xfafc
                         0000FAFD   467 _g_NORUSE	=	0xfafd
                         0000FAFE   468 _g_XSAVE	=	0xfafe
                         0000FB00   469 _g_YSAVE	=	0xfb00
                         0000FB03   470 _g_RSTMP	=	0xfb03
                         0000FB03   471 _g_TOCNT	=	0xfb03
                         0000FB04   472 _g_RSFCB	=	0xfb04
                         0000FB06   473 _g_RSIQLN	=	0xfb06
                         0000FB07   474 _g_MEXBIh	=	0xfb07
                         0000FB0C   475 _g_OLDSTT	=	0xfb0c
                         0000FB0C   476 _g_OLDINT	=	0xfb0c
                         0000FB16   477 _g_DEVNUM	=	0xfb16
                         0000FB17   478 _g_DATCNT	=	0xfb17
                         0000FB1A   479 _g_ERRORS	=	0xfb1a
                         0000FB1B   480 _g_FLAGS	=	0xfb1b
                         0000FB1C   481 _g_ESTBLS	=	0xfb1c
                         0000FB1D   482 _g_COMMSK	=	0xfb1d
                         0000FB1E   483 _g_LSTCOM	=	0xfb1e
                         0000FB1F   484 _g_LSTMOD	=	0xfb1f
                         0000FB35   485 _g_PRSCNT	=	0xfb35
                         0000FB36   486 _g_SAVSP	=	0xfb36
                         0000FB38   487 _g_VOICEN	=	0xfb38
                         0000FB39   488 _g_SAVVOL	=	0xfb39
                         0000FB3B   489 _g_MCLLEN	=	0xfb3b
                         0000FB3C   490 _g_MCLPTR	=	0xfb3c
                         0000FB3E   491 _g_QUEUEN	=	0xfb3e
                         0000FB3F   492 _g_MUSICF	=	0xfb3f
                         0000FB40   493 _g_PLYCNT	=	0xfb40
                         0000FB41   494 _g_VCBA	=	0xfb41
                         0000FB66   495 _g_VCBB	=	0xfb66
                         0000FB8B   496 _g_VCBC	=	0xfb8b
                         0000FBB0   497 _g_ENSTOP	=	0xfbb0
                         0000FBB1   498 _g_BASROM	=	0xfbb1
                         0000FBB2   499 _g_LINTTB	=	0xfbb2
                         0000FBCA   500 _g_FSTPOS	=	0xfbca
                         0000FBCC   501 _g_CODSAV	=	0xfbcc
                         0000FBCD   502 _g_FNKSWI	=	0xfbcd
                         0000FBCE   503 _g_FNKFLG	=	0xfbce
                         0000FBD8   504 _g_ONGSBF	=	0xfbd8
                         0000FBD9   505 _g_CLIKFL	=	0xfbd9
                         0000FBDA   506 _g_OLDKEY	=	0xfbda
                         0000FBE5   507 _g_NEWKEY	=	0xfbe5
                         0000FBF0   508 _g_KEYBUF	=	0xfbf0
                         0000FC18   509 _g_LINWRK	=	0xfc18
                         0000FC40   510 _g_PATWRK	=	0xfc40
                         0000FC48   511 _g_BOTTOM	=	0xfc48
                         0000FC4A   512 _g_HIMEM	=	0xfc4a
                         0000FC4C   513 _g_TRPTBL	=	0xfc4c
                         0000FC9A   514 _g_RTYCNT	=	0xfc9a
                         0000FC9B   515 _g_INTFLG	=	0xfc9b
                         0000FC9C   516 _g_PADY	=	0xfc9c
                         0000FC9D   517 _g_PADX	=	0xfc9d
                         0000FC9E   518 _g_JIFFY	=	0xfc9e
                         0000FCA0   519 _g_INTVAL	=	0xfca0
                         0000FCA2   520 _g_INTCNT	=	0xfca2
                         0000FCA4   521 _g_LOWLIM	=	0xfca4
                         0000FCA5   522 _g_WINWID	=	0xfca5
                         0000FCA6   523 _g_GRPHED	=	0xfca6
                         0000FCA7   524 _g_ESCCNT	=	0xfca7
                         0000FCA8   525 _g_INSFLG	=	0xfca8
                         0000FCA9   526 _g_CSRSW	=	0xfca9
                         0000FCAA   527 _g_CSTYLE	=	0xfcaa
                         0000FCAB   528 _g_CAPST	=	0xfcab
                         0000FCAC   529 _g_KANAST	=	0xfcac
                         0000FCAD   530 _g_KANAMD	=	0xfcad
                         0000FCAE   531 _g_FLBMEM	=	0xfcae
                         0000FCAF   532 _g_SCRMOD	=	0xfcaf
                         0000FCB0   533 _g_OLDSCR	=	0xfcb0
                         0000FCB1   534 _g_CASPRV	=	0xfcb1
                         0000FCB2   535 _g_BRDATR	=	0xfcb2
                         0000FCB3   536 _g_GXPOS	=	0xfcb3
                         0000FCB5   537 _g_GYPOS	=	0xfcb5
                         0000FCBB   538 _g_DRWFLG	=	0xfcbb
                         0000FCBC   539 _g_DRWSCL	=	0xfcbc
                         0000FCBD   540 _g_DRWANG	=	0xfcbd
                         0000FCC1   541 _g_MNROM	=	0xfcc1
                         0000FCC1   542 _g_EXPTBL	=	0xfcc1
                         0000FCC5   543 _g_SLTTBL	=	0xfcc5
                         0000FCC9   544 _g_SLTATR	=	0xfcc9
                         0000FD09   545 _g_SLTWRK	=	0xfd09
                         0000FD89   546 _g_PROCNM	=	0xfd89
                         0000FFE7   547 _g_RG08SAV	=	0xffe7
                         0000FFE8   548 _g_RG09SAV	=	0xffe8
                         0000FFE9   549 _g_RG10SAV	=	0xffe9
                         0000FFEA   550 _g_RG11SAV	=	0xffea
                         0000FFEB   551 _g_RG12SAV	=	0xffeb
                         0000FFEC   552 _g_RG13SAV	=	0xffec
                         0000FFED   553 _g_RG14SAV	=	0xffed
                         0000FFEE   554 _g_RG15SAV	=	0xffee
                         0000FFEF   555 _g_RG16SAV	=	0xffef
                         0000FFF0   556 _g_RG17SAV	=	0xfff0
                         0000FFF1   557 _g_RG18SAV	=	0xfff1
                         0000FFF2   558 _g_RG19SAV	=	0xfff2
                         0000FFF3   559 _g_RG20SAV	=	0xfff3
                         0000FFF4   560 _g_RG21SAV	=	0xfff4
                         0000FFF5   561 _g_RG22SAV	=	0xfff5
                         0000FFF6   562 _g_RG23SAV	=	0xfff6
                         0000FFF7   563 _g_MINROM	=	0xfff7
                         0000FFF8   564 _g_SVFFF8	=	0xfff8
                         0000FFFA   565 _g_RG25SAV	=	0xfffa
                         0000FFFB   566 _g_RG26SAV	=	0xfffb
                         0000FFFC   567 _g_RG27SAV	=	0xfffc
                         0000FFFD   568 _g_SVFFFD	=	0xfffd
                                    569 ;C:\Users\reina\OneDrive\Documentos\MSXgl\engine/src/draw.c:58: void Draw_LineH(UX x1, UX x2, UY y, u8 color, u8 op)
                                    570 ;	---------------------------------
                                    571 ; Function Draw_LineH
                                    572 ; ---------------------------------
    000000F7                        573 _Draw_LineH::
    000000F7 DD E5            [15]  574 	push	ix
    000000F9 DD 21 00 00      [14]  575 	ld	ix,#0
    000000FD DD 39            [15]  576 	add	ix,sp
    000000FF FD 21 F6 FF      [14]  577 	ld	iy, #-10
    00000103 FD 39            [15]  578 	add	iy, sp
    00000105 FD F9            [10]  579 	ld	sp, iy
    00000107 DD 77 FF         [19]  580 	ld	-1 (ix), a
    0000010A DD 75 FE         [19]  581 	ld	-2 (ix), l
                                    582 ;C:\Users\reina\OneDrive\Documentos\MSXgl\engine/src/draw.c:64: nx = x1 - x2 + 1;
    0000010D DD 7E FF         [19]  583 	ld	a, -1 (ix)
    00000110 DD 77 F6         [19]  584 	ld	-10 (ix), a
    00000113 DD 36 F7 00      [19]  585 	ld	-9 (ix), #0x00
    00000117 DD 7E FE         [19]  586 	ld	a, -2 (ix)
    0000011A DD 77 F8         [19]  587 	ld	-8 (ix), a
    0000011D DD 36 F9 00      [19]  588 	ld	-7 (ix), #0x00
                                    589 ;C:\Users\reina\OneDrive\Documentos\MSXgl\engine/src/draw.c:61: if(x1 > x2)
    00000121 DD 7E FE         [19]  590 	ld	a, -2 (ix)
    00000124 DD 96 FF         [19]  591 	sub	a, -1 (ix)
    00000127 30 3B            [12]  592 	jr	NC, 00102$
                                    593 ;C:\Users\reina\OneDrive\Documentos\MSXgl\engine/src/draw.c:63: dx = x2;
    00000129 DD 7E FE         [19]  594 	ld	a, -2 (ix)
    0000012C DD 77 FA         [19]  595 	ld	-6 (ix), a
    0000012F DD 36 FB 00      [19]  596 	ld	-5 (ix), #0x00
                                    597 ;C:\Users\reina\OneDrive\Documentos\MSXgl\engine/src/draw.c:64: nx = x1 - x2 + 1;
    00000133 DD 7E F6         [19]  598 	ld	a, -10 (ix)
    00000136 DD 96 F8         [19]  599 	sub	a, -8 (ix)
    00000139 DD 77 FC         [19]  600 	ld	-4 (ix), a
    0000013C DD 7E F7         [19]  601 	ld	a, -9 (ix)
    0000013F DD 9E F9         [19]  602 	sbc	a, -7 (ix)
    00000142 DD 77 FD         [19]  603 	ld	-3 (ix), a
    00000145 DD 7E FC         [19]  604 	ld	a, -4 (ix)
    00000148 C6 01            [ 7]  605 	add	a, #0x01
    0000014A DD 77 F8         [19]  606 	ld	-8 (ix), a
    0000014D DD 7E FD         [19]  607 	ld	a, -3 (ix)
    00000150 CE 00            [ 7]  608 	adc	a, #0x00
    00000152 DD 77 F9         [19]  609 	ld	-7 (ix), a
    00000155 DD 7E F8         [19]  610 	ld	a, -8 (ix)
    00000158 DD 77 FC         [19]  611 	ld	-4 (ix), a
    0000015B DD 7E F9         [19]  612 	ld	a, -7 (ix)
    0000015E DD 77 FD         [19]  613 	ld	-3 (ix), a
    00000161 C3r83r01         [10]  614 	jp	00103$
    00000164                        615 00102$:
                                    616 ;C:\Users\reina\OneDrive\Documentos\MSXgl\engine/src/draw.c:68: dx = x1;
    00000164 DD 7E FF         [19]  617 	ld	a, -1 (ix)
    00000167 DD 77 FA         [19]  618 	ld	-6 (ix), a
    0000016A DD 36 FB 00      [19]  619 	ld	-5 (ix), #0x00
                                    620 ;C:\Users\reina\OneDrive\Documentos\MSXgl\engine/src/draw.c:69: nx = x2 - x1 + 1;
    0000016E DD 7E F8         [19]  621 	ld	a, -8 (ix)
    00000171 DD 96 F6         [19]  622 	sub	a, -10 (ix)
    00000174 4F               [ 4]  623 	ld	c, a
    00000175 DD 7E F9         [19]  624 	ld	a, -7 (ix)
    00000178 DD 9E F7         [19]  625 	sbc	a, -9 (ix)
    0000017B 47               [ 4]  626 	ld	b, a
    0000017C 03               [ 6]  627 	inc	bc
    0000017D DD 71 FC         [19]  628 	ld	-4 (ix), c
    00000180 DD 70 FD         [19]  629 	ld	-3 (ix), b
    00000183                        630 00103$:
                                    631 ;C:\Users\reina\OneDrive\Documentos\MSXgl\engine/src/draw.c:71: VDP_CommandLMMV(dx, y, nx, 1, color, op);	
    00000183 DD 7E 06         [19]  632 	ld	a, 6 (ix)
    00000186 DD 77 F9         [19]  633 	ld	-7 (ix), a
    00000189 DD 4E 05         [19]  634 	ld	c, 5 (ix)
    0000018C DD 5E 04         [19]  635 	ld	e, 4 (ix)
    0000018F 16 00            [ 7]  636 	ld	d, #0x00
                                    637 ;C:\Users\reina\OneDrive\Documentos\MSXgl\engine/src/vdp_inl.h:298: g_VDP_Command.DX = dx; 
    00000191 21r04r00         [10]  638 	ld	hl, #(_g_VDP_Command + 4)
    00000194 DD 7E FA         [19]  639 	ld	a, -6 (ix)
    00000197 77               [ 7]  640 	ld	(hl), a
    00000198 23               [ 6]  641 	inc	hl
    00000199 DD 7E FB         [19]  642 	ld	a, -5 (ix)
    0000019C 77               [ 7]  643 	ld	(hl), a
                                    644 ;C:\Users\reina\OneDrive\Documentos\MSXgl\engine/src/vdp_inl.h:299: g_VDP_Command.DY = dy; 
    0000019D ED 53r06r00      [20]  645 	ld	((_g_VDP_Command + 6)), de
                                    646 ;C:\Users\reina\OneDrive\Documentos\MSXgl\engine/src/vdp_inl.h:300: g_VDP_Command.NX = nx; 
    000001A1 21r08r00         [10]  647 	ld	hl, #(_g_VDP_Command + 8)
    000001A4 DD 7E FC         [19]  648 	ld	a, -4 (ix)
    000001A7 77               [ 7]  649 	ld	(hl), a
    000001A8 23               [ 6]  650 	inc	hl
    000001A9 DD 7E FD         [19]  651 	ld	a, -3 (ix)
    000001AC 77               [ 7]  652 	ld	(hl), a
                                    653 ;C:\Users\reina\OneDrive\Documentos\MSXgl\engine/src/vdp_inl.h:301: g_VDP_Command.NY = ny; 
    000001AD 21 01 00         [10]  654 	ld	hl, #0x0001
    000001B0 22r0Ar00         [16]  655 	ld	((_g_VDP_Command + 10)), hl
                                    656 ;C:\Users\reina\OneDrive\Documentos\MSXgl\engine/src/vdp_inl.h:302: g_VDP_Command.CLR = col; 
    000001B3 21r0Cr00         [10]  657 	ld	hl, #(_g_VDP_Command + 12)
    000001B6 71               [ 7]  658 	ld	(hl), c
                                    659 ;C:\Users\reina\OneDrive\Documentos\MSXgl\engine/src/vdp_inl.h:303: g_VDP_Command.ARG = arg; 
    000001B7 21r0Dr00         [10]  660 	ld	hl, #(_g_VDP_Command + 13)
    000001BA 36 00            [10]  661 	ld	(hl), #0x00
                                    662 ;C:\Users\reina\OneDrive\Documentos\MSXgl\engine/src/vdp_inl.h:304: g_VDP_Command.CMD = VDP_CMD_LMMV + op;
    000001BC DD 7E F9         [19]  663 	ld	a, -7 (ix)
    000001BF C6 80            [ 7]  664 	add	a, #0x80
    000001C1 32r0Er00         [13]  665 	ld	(#(_g_VDP_Command + 14)),a
                                    666 ;C:\Users\reina\OneDrive\Documentos\MSXgl\engine/src/vdp_inl.h:305: VPD_CommandSetupR36();
    000001C4 CDr00r00         [17]  667 	call	_VPD_CommandSetupR36
                                    668 ;C:\Users\reina\OneDrive\Documentos\MSXgl\engine/src/draw.c:71: VDP_CommandLMMV(dx, y, nx, 1, color, op);	
                                    669 ;C:\Users\reina\OneDrive\Documentos\MSXgl\engine/src/draw.c:72: }
    000001C7 DD F9            [10]  670 	ld	sp, ix
    000001C9 DD E1            [14]  671 	pop	ix
    000001CB E1               [10]  672 	pop	hl
    000001CC F1               [10]  673 	pop	af
    000001CD 33               [ 6]  674 	inc	sp
    000001CE E9               [ 4]  675 	jp	(hl)
                                    676 ;C:\Users\reina\OneDrive\Documentos\MSXgl\engine/src/draw.c:76: void Draw_LineV(UX x, UY y1, UY y2, u8 color, u8 op)
                                    677 ;	---------------------------------
                                    678 ; Function Draw_LineV
                                    679 ; ---------------------------------
    000001CF                        680 _Draw_LineV::
    000001CF DD E5            [15]  681 	push	ix
    000001D1 DD 21 00 00      [14]  682 	ld	ix,#0
    000001D5 DD 39            [15]  683 	add	ix,sp
    000001D7 FD 21 F6 FF      [14]  684 	ld	iy, #-10
    000001DB FD 39            [15]  685 	add	iy, sp
    000001DD FD F9            [10]  686 	ld	sp, iy
    000001DF DD 77 FF         [19]  687 	ld	-1 (ix), a
    000001E2 DD 75 FE         [19]  688 	ld	-2 (ix), l
                                    689 ;C:\Users\reina\OneDrive\Documentos\MSXgl\engine/src/draw.c:82: ny = y2 - y1 + 1;
    000001E5 DD 7E 04         [19]  690 	ld	a, 4 (ix)
    000001E8 DD 77 F6         [19]  691 	ld	-10 (ix), a
    000001EB DD 36 F7 00      [19]  692 	ld	-9 (ix), #0x00
    000001EF DD 7E FE         [19]  693 	ld	a, -2 (ix)
    000001F2 DD 77 F8         [19]  694 	ld	-8 (ix), a
    000001F5 DD 36 F9 00      [19]  695 	ld	-7 (ix), #0x00
                                    696 ;C:\Users\reina\OneDrive\Documentos\MSXgl\engine/src/draw.c:79: if(y1 < y2)
    000001F9 DD 7E FE         [19]  697 	ld	a, -2 (ix)
    000001FC DD 96 04         [19]  698 	sub	a, 4 (ix)
    000001FF 30 3B            [12]  699 	jr	NC, 00102$
                                    700 ;C:\Users\reina\OneDrive\Documentos\MSXgl\engine/src/draw.c:81: dy = y1;
    00000201 DD 7E FE         [19]  701 	ld	a, -2 (ix)
    00000204 DD 77 FA         [19]  702 	ld	-6 (ix), a
    00000207 DD 36 FB 00      [19]  703 	ld	-5 (ix), #0x00
                                    704 ;C:\Users\reina\OneDrive\Documentos\MSXgl\engine/src/draw.c:82: ny = y2 - y1 + 1;
    0000020B DD 7E F6         [19]  705 	ld	a, -10 (ix)
    0000020E DD 96 F8         [19]  706 	sub	a, -8 (ix)
    00000211 DD 77 FC         [19]  707 	ld	-4 (ix), a
    00000214 DD 7E F7         [19]  708 	ld	a, -9 (ix)
    00000217 DD 9E F9         [19]  709 	sbc	a, -7 (ix)
    0000021A DD 77 FD         [19]  710 	ld	-3 (ix), a
    0000021D DD 7E FC         [19]  711 	ld	a, -4 (ix)
    00000220 C6 01            [ 7]  712 	add	a, #0x01
    00000222 DD 77 F8         [19]  713 	ld	-8 (ix), a
    00000225 DD 7E FD         [19]  714 	ld	a, -3 (ix)
    00000228 CE 00            [ 7]  715 	adc	a, #0x00
    0000022A DD 77 F9         [19]  716 	ld	-7 (ix), a
    0000022D DD 7E F8         [19]  717 	ld	a, -8 (ix)
    00000230 DD 77 FC         [19]  718 	ld	-4 (ix), a
    00000233 DD 7E F9         [19]  719 	ld	a, -7 (ix)
    00000236 DD 77 FD         [19]  720 	ld	-3 (ix), a
    00000239 C3r5Br02         [10]  721 	jp	00103$
    0000023C                        722 00102$:
                                    723 ;C:\Users\reina\OneDrive\Documentos\MSXgl\engine/src/draw.c:86: dy = y2;
    0000023C DD 7E 04         [19]  724 	ld	a, 4 (ix)
    0000023F DD 77 FA         [19]  725 	ld	-6 (ix), a
    00000242 DD 36 FB 00      [19]  726 	ld	-5 (ix), #0x00
                                    727 ;C:\Users\reina\OneDrive\Documentos\MSXgl\engine/src/draw.c:87: ny = y1 - y2 + 1;
    00000246 DD 7E F8         [19]  728 	ld	a, -8 (ix)
    00000249 DD 96 F6         [19]  729 	sub	a, -10 (ix)
    0000024C 4F               [ 4]  730 	ld	c, a
    0000024D DD 7E F9         [19]  731 	ld	a, -7 (ix)
    00000250 DD 9E F7         [19]  732 	sbc	a, -9 (ix)
    00000253 47               [ 4]  733 	ld	b, a
    00000254 03               [ 6]  734 	inc	bc
    00000255 DD 71 FC         [19]  735 	ld	-4 (ix), c
    00000258 DD 70 FD         [19]  736 	ld	-3 (ix), b
    0000025B                        737 00103$:
                                    738 ;C:\Users\reina\OneDrive\Documentos\MSXgl\engine/src/draw.c:89: VDP_CommandLMMV(x, dy, 1, ny, color, op);	
    0000025B DD 7E 06         [19]  739 	ld	a, 6 (ix)
    0000025E DD 77 F9         [19]  740 	ld	-7 (ix), a
    00000261 DD 4E 05         [19]  741 	ld	c, 5 (ix)
    00000264 DD 5E FF         [19]  742 	ld	e, -1 (ix)
    00000267 16 00            [ 7]  743 	ld	d, #0x00
                                    744 ;C:\Users\reina\OneDrive\Documentos\MSXgl\engine/src/vdp_inl.h:298: g_VDP_Command.DX = dx; 
    00000269 ED 53r04r00      [20]  745 	ld	((_g_VDP_Command + 4)), de
                                    746 ;C:\Users\reina\OneDrive\Documentos\MSXgl\engine/src/vdp_inl.h:299: g_VDP_Command.DY = dy; 
    0000026D 21r06r00         [10]  747 	ld	hl, #(_g_VDP_Command + 6)
    00000270 DD 7E FA         [19]  748 	ld	a, -6 (ix)
    00000273 77               [ 7]  749 	ld	(hl), a
    00000274 23               [ 6]  750 	inc	hl
    00000275 DD 7E FB         [19]  751 	ld	a, -5 (ix)
    00000278 77               [ 7]  752 	ld	(hl), a
                                    753 ;C:\Users\reina\OneDrive\Documentos\MSXgl\engine/src/vdp_inl.h:300: g_VDP_Command.NX = nx; 
    00000279 21 01 00         [10]  754 	ld	hl, #0x0001
    0000027C 22r08r00         [16]  755 	ld	((_g_VDP_Command + 8)), hl
                                    756 ;C:\Users\reina\OneDrive\Documentos\MSXgl\engine/src/vdp_inl.h:301: g_VDP_Command.NY = ny; 
    0000027F 21r0Ar00         [10]  757 	ld	hl, #(_g_VDP_Command + 10)
    00000282 DD 7E FC         [19]  758 	ld	a, -4 (ix)
    00000285 77               [ 7]  759 	ld	(hl), a
    00000286 23               [ 6]  760 	inc	hl
    00000287 DD 7E FD         [19]  761 	ld	a, -3 (ix)
    0000028A 77               [ 7]  762 	ld	(hl), a
                                    763 ;C:\Users\reina\OneDrive\Documentos\MSXgl\engine/src/vdp_inl.h:302: g_VDP_Command.CLR = col; 
    0000028B 21r0Cr00         [10]  764 	ld	hl, #(_g_VDP_Command + 12)
    0000028E 71               [ 7]  765 	ld	(hl), c
                                    766 ;C:\Users\reina\OneDrive\Documentos\MSXgl\engine/src/vdp_inl.h:303: g_VDP_Command.ARG = arg; 
    0000028F 21r0Dr00         [10]  767 	ld	hl, #(_g_VDP_Command + 13)
    00000292 36 00            [10]  768 	ld	(hl), #0x00
                                    769 ;C:\Users\reina\OneDrive\Documentos\MSXgl\engine/src/vdp_inl.h:304: g_VDP_Command.CMD = VDP_CMD_LMMV + op;
    00000294 DD 7E F9         [19]  770 	ld	a, -7 (ix)
    00000297 C6 80            [ 7]  771 	add	a, #0x80
    00000299 32r0Er00         [13]  772 	ld	(#(_g_VDP_Command + 14)),a
                                    773 ;C:\Users\reina\OneDrive\Documentos\MSXgl\engine/src/vdp_inl.h:305: VPD_CommandSetupR36();
    0000029C CDr00r00         [17]  774 	call	_VPD_CommandSetupR36
                                    775 ;C:\Users\reina\OneDrive\Documentos\MSXgl\engine/src/draw.c:89: VDP_CommandLMMV(x, dy, 1, ny, color, op);	
                                    776 ;C:\Users\reina\OneDrive\Documentos\MSXgl\engine/src/draw.c:90: }
    0000029F DD F9            [10]  777 	ld	sp, ix
    000002A1 DD E1            [14]  778 	pop	ix
    000002A3 E1               [10]  779 	pop	hl
    000002A4 F1               [10]  780 	pop	af
    000002A5 33               [ 6]  781 	inc	sp
    000002A6 E9               [ 4]  782 	jp	(hl)
                                    783 ;C:\Users\reina\OneDrive\Documentos\MSXgl\engine/src/draw.c:94: void Draw_Box(UX x1, UY y1, UX x2, UY y2, u8 color, u8 op)
                                    784 ;	---------------------------------
                                    785 ; Function Draw_Box
                                    786 ; ---------------------------------
    000002A7                        787 _Draw_Box::
    000002A7 DD E5            [15]  788 	push	ix
    000002A9 DD 21 00 00      [14]  789 	ld	ix,#0
    000002AD DD 39            [15]  790 	add	ix,sp
    000002AF 4F               [ 4]  791 	ld	c, a
    000002B0 45               [ 4]  792 	ld	b, l
                                    793 ;C:\Users\reina\OneDrive\Documentos\MSXgl\engine/src/draw.c:96: Draw_LineH(x1, x2, y1, color, op);
    000002B1 C5               [11]  794 	push	bc
    000002B2 DD 66 07         [19]  795 	ld	h, 7 (ix)
    000002B5 DD 6E 06         [19]  796 	ld	l, 6 (ix)
    000002B8 E5               [11]  797 	push	hl
    000002B9 C5               [11]  798 	push	bc
    000002BA 33               [ 6]  799 	inc	sp
    000002BB DD 6E 04         [19]  800 	ld	l, 4 (ix)
                                    801 ;	spillPairReg hl
                                    802 ;	spillPairReg hl
    000002BE 79               [ 4]  803 	ld	a, c
    000002BF CDrF7r00         [17]  804 	call	_Draw_LineH
    000002C2 C1               [10]  805 	pop	bc
                                    806 ;C:\Users\reina\OneDrive\Documentos\MSXgl\engine/src/draw.c:97: Draw_LineH(x1, x2, y2, color, op);
    000002C3 C5               [11]  807 	push	bc
    000002C4 DD 66 07         [19]  808 	ld	h, 7 (ix)
    000002C7 DD 6E 06         [19]  809 	ld	l, 6 (ix)
    000002CA E5               [11]  810 	push	hl
    000002CB DD 7E 05         [19]  811 	ld	a, 5 (ix)
    000002CE F5               [11]  812 	push	af
    000002CF 33               [ 6]  813 	inc	sp
    000002D0 DD 6E 04         [19]  814 	ld	l, 4 (ix)
                                    815 ;	spillPairReg hl
                                    816 ;	spillPairReg hl
    000002D3 79               [ 4]  817 	ld	a, c
    000002D4 CDrF7r00         [17]  818 	call	_Draw_LineH
    000002D7 C1               [10]  819 	pop	bc
                                    820 ;C:\Users\reina\OneDrive\Documentos\MSXgl\engine/src/draw.c:98: Draw_LineV(x1, y1, y2, color, op);
    000002D8 C5               [11]  821 	push	bc
    000002D9 DD 66 07         [19]  822 	ld	h, 7 (ix)
    000002DC DD 6E 06         [19]  823 	ld	l, 6 (ix)
    000002DF E5               [11]  824 	push	hl
    000002E0 DD 7E 05         [19]  825 	ld	a, 5 (ix)
    000002E3 F5               [11]  826 	push	af
    000002E4 33               [ 6]  827 	inc	sp
    000002E5 68               [ 4]  828 	ld	l, b
                                    829 ;	spillPairReg hl
                                    830 ;	spillPairReg hl
    000002E6 79               [ 4]  831 	ld	a, c
    000002E7 CDrCFr01         [17]  832 	call	_Draw_LineV
    000002EA C1               [10]  833 	pop	bc
                                    834 ;C:\Users\reina\OneDrive\Documentos\MSXgl\engine/src/draw.c:99: Draw_LineV(x2, y1, y2, color, op);
    000002EB DD 66 07         [19]  835 	ld	h, 7 (ix)
    000002EE DD 6E 06         [19]  836 	ld	l, 6 (ix)
    000002F1 E5               [11]  837 	push	hl
    000002F2 DD 7E 05         [19]  838 	ld	a, 5 (ix)
    000002F5 F5               [11]  839 	push	af
    000002F6 33               [ 6]  840 	inc	sp
    000002F7 68               [ 4]  841 	ld	l, b
                                    842 ;	spillPairReg hl
                                    843 ;	spillPairReg hl
    000002F8 DD 7E 04         [19]  844 	ld	a, 4 (ix)
    000002FB CDrCFr01         [17]  845 	call	_Draw_LineV
                                    846 ;C:\Users\reina\OneDrive\Documentos\MSXgl\engine/src/draw.c:100: }
    000002FE DD E1            [14]  847 	pop	ix
    00000300 E1               [10]  848 	pop	hl
    00000301 F1               [10]  849 	pop	af
    00000302 F1               [10]  850 	pop	af
    00000303 E9               [ 4]  851 	jp	(hl)
                                    852 ;C:\Users\reina\OneDrive\Documentos\MSXgl\engine/src/draw.c:104: void Draw_FillBox(UX x1, UY y1, UX x2, UY y2, u8 color, u8 op)
                                    853 ;	---------------------------------
                                    854 ; Function Draw_FillBox
                                    855 ; ---------------------------------
    00000304                        856 _Draw_FillBox::
    00000304 DD E5            [15]  857 	push	ix
    00000306 DD 21 00 00      [14]  858 	ld	ix,#0
    0000030A DD 39            [15]  859 	add	ix,sp
    0000030C F5               [11]  860 	push	af
    0000030D F5               [11]  861 	push	af
    0000030E F5               [11]  862 	push	af
    0000030F 5F               [ 4]  863 	ld	e, a
                                    864 ;C:\Users\reina\OneDrive\Documentos\MSXgl\engine/src/draw.c:106: VDP_CommandLMMV(x1, y1, x2 - x1 + 1, y2 - y1 + 1, color, op);	
    00000310 DD 7E 07         [19]  865 	ld	a, 7 (ix)
    00000313 DD 77 FA         [19]  866 	ld	-6 (ix), a
    00000316 DD 7E 06         [19]  867 	ld	a, 6 (ix)
    00000319 DD 77 FB         [19]  868 	ld	-5 (ix), a
    0000031C DD 4E 05         [19]  869 	ld	c, 5 (ix)
    0000031F 06 00            [ 7]  870 	ld	b, #0x00
    00000321 DD 75 FE         [19]  871 	ld	-2 (ix), l
    00000324 DD 36 FF 00      [19]  872 	ld	-1 (ix), #0x00
    00000328 79               [ 4]  873 	ld	a, c
    00000329 DD 96 FE         [19]  874 	sub	a, -2 (ix)
    0000032C 4F               [ 4]  875 	ld	c, a
    0000032D 78               [ 4]  876 	ld	a, b
    0000032E DD 9E FF         [19]  877 	sbc	a, -1 (ix)
    00000331 47               [ 4]  878 	ld	b, a
    00000332 03               [ 6]  879 	inc	bc
    00000333 DD 71 FC         [19]  880 	ld	-4 (ix), c
    00000336 DD 70 FD         [19]  881 	ld	-3 (ix), b
    00000339 DD 4E 04         [19]  882 	ld	c, 4 (ix)
    0000033C 06 00            [ 7]  883 	ld	b, #0x00
    0000033E DD 73 FE         [19]  884 	ld	-2 (ix), e
    00000341 DD 36 FF 00      [19]  885 	ld	-1 (ix), #0x00
    00000345 79               [ 4]  886 	ld	a, c
    00000346 DD 96 FE         [19]  887 	sub	a, -2 (ix)
    00000349 4F               [ 4]  888 	ld	c, a
    0000034A 78               [ 4]  889 	ld	a, b
    0000034B DD 9E FF         [19]  890 	sbc	a, -1 (ix)
    0000034E 47               [ 4]  891 	ld	b, a
    0000034F 03               [ 6]  892 	inc	bc
    00000350 DD 75 FE         [19]  893 	ld	-2 (ix), l
    00000353 DD 36 FF 00      [19]  894 	ld	-1 (ix), #0x00
    00000357 16 00            [ 7]  895 	ld	d, #0x00
                                    896 ;C:\Users\reina\OneDrive\Documentos\MSXgl\engine/src/vdp_inl.h:298: g_VDP_Command.DX = dx; 
    00000359 ED 53r04r00      [20]  897 	ld	((_g_VDP_Command + 4)), de
                                    898 ;C:\Users\reina\OneDrive\Documentos\MSXgl\engine/src/vdp_inl.h:299: g_VDP_Command.DY = dy; 
    0000035D 21r06r00         [10]  899 	ld	hl, #(_g_VDP_Command + 6)
    00000360 DD 7E FE         [19]  900 	ld	a, -2 (ix)
    00000363 77               [ 7]  901 	ld	(hl), a
    00000364 23               [ 6]  902 	inc	hl
    00000365 DD 7E FF         [19]  903 	ld	a, -1 (ix)
    00000368 77               [ 7]  904 	ld	(hl), a
                                    905 ;C:\Users\reina\OneDrive\Documentos\MSXgl\engine/src/vdp_inl.h:300: g_VDP_Command.NX = nx; 
    00000369 ED 43r08r00      [20]  906 	ld	((_g_VDP_Command + 8)), bc
                                    907 ;C:\Users\reina\OneDrive\Documentos\MSXgl\engine/src/vdp_inl.h:301: g_VDP_Command.NY = ny; 
    0000036D 21r0Ar00         [10]  908 	ld	hl, #(_g_VDP_Command + 10)
    00000370 DD 7E FC         [19]  909 	ld	a, -4 (ix)
    00000373 77               [ 7]  910 	ld	(hl), a
    00000374 23               [ 6]  911 	inc	hl
    00000375 DD 7E FD         [19]  912 	ld	a, -3 (ix)
    00000378 77               [ 7]  913 	ld	(hl), a
                                    914 ;C:\Users\reina\OneDrive\Documentos\MSXgl\engine/src/vdp_inl.h:302: g_VDP_Command.CLR = col; 
    00000379 21r0Cr00         [10]  915 	ld	hl, #(_g_VDP_Command + 12)
    0000037C DD 7E FB         [19]  916 	ld	a, -5 (ix)
    0000037F 77               [ 7]  917 	ld	(hl), a
                                    918 ;C:\Users\reina\OneDrive\Documentos\MSXgl\engine/src/vdp_inl.h:303: g_VDP_Command.ARG = arg; 
    00000380 21r0Dr00         [10]  919 	ld	hl, #(_g_VDP_Command + 13)
    00000383 36 00            [10]  920 	ld	(hl), #0x00
                                    921 ;C:\Users\reina\OneDrive\Documentos\MSXgl\engine/src/vdp_inl.h:304: g_VDP_Command.CMD = VDP_CMD_LMMV + op;
    00000385 01r0Er00         [10]  922 	ld	bc, #_g_VDP_Command + 14
    00000388 DD 7E FA         [19]  923 	ld	a, -6 (ix)
    0000038B C6 80            [ 7]  924 	add	a, #0x80
    0000038D 02               [ 7]  925 	ld	(bc), a
                                    926 ;C:\Users\reina\OneDrive\Documentos\MSXgl\engine/src/vdp_inl.h:305: VPD_CommandSetupR36();
    0000038E CDr00r00         [17]  927 	call	_VPD_CommandSetupR36
                                    928 ;C:\Users\reina\OneDrive\Documentos\MSXgl\engine/src/draw.c:106: VDP_CommandLMMV(x1, y1, x2 - x1 + 1, y2 - y1 + 1, color, op);	
                                    929 ;C:\Users\reina\OneDrive\Documentos\MSXgl\engine/src/draw.c:107: }
    00000391 DD F9            [10]  930 	ld	sp, ix
    00000393 DD E1            [14]  931 	pop	ix
    00000395 E1               [10]  932 	pop	hl
    00000396 F1               [10]  933 	pop	af
    00000397 F1               [10]  934 	pop	af
    00000398 E9               [ 4]  935 	jp	(hl)
                                    936 ;C:\Users\reina\OneDrive\Documentos\MSXgl\engine/src/draw.c:112: void Draw_Circle(UX dx, UY dy, u8 radius, u8 color, u8 op)
                                    937 ;	---------------------------------
                                    938 ; Function Draw_Circle
                                    939 ; ---------------------------------
    00000399                        940 _Draw_Circle::
    00000399 DD E5            [15]  941 	push	ix
    0000039B DD 21 00 00      [14]  942 	ld	ix,#0
    0000039F DD 39            [15]  943 	add	ix,sp
    000003A1 FD 21 F3 FF      [14]  944 	ld	iy, #-13
    000003A5 FD 39            [15]  945 	add	iy, sp
    000003A7 FD F9            [10]  946 	ld	sp, iy
    000003A9 DD 77 FC         [19]  947 	ld	-4 (ix), a
    000003AC DD 75 FB         [19]  948 	ld	-5 (ix), l
                                    949 ;C:\Users\reina\OneDrive\Documentos\MSXgl\engine/src/draw.c:114: USX x = radius;
    000003AF DD 7E 04         [19]  950 	ld	a, 4 (ix)
    000003B2 DD 77 FD         [19]  951 	ld	-3 (ix), a
                                    952 ;C:\Users\reina\OneDrive\Documentos\MSXgl\engine/src/draw.c:116: USX e = 0;
    000003B5 DD 36 FE 00      [19]  953 	ld	-2 (ix), #0x00
                                    954 ;C:\Users\reina\OneDrive\Documentos\MSXgl\engine/src/draw.c:118: while(1)
    000003B9 DD 36 FF 00      [19]  955 	ld	-1 (ix), #0x00
    000003BD                        956 00106$:
                                    957 ;C:\Users\reina\OneDrive\Documentos\MSXgl\engine/src/draw.c:121: g_VDP_Command.DX = dx + x;
    000003BD DD 7E FC         [19]  958 	ld	a, -4 (ix)
    000003C0 DD 77 F3         [19]  959 	ld	-13 (ix), a
    000003C3 DD 36 F4 00      [19]  960 	ld	-12 (ix), #0x00
    000003C7 DD 7E FD         [19]  961 	ld	a, -3 (ix)
    000003CA 4F               [ 4]  962 	ld	c, a
    000003CB 07               [ 4]  963 	rlca
    000003CC 9F               [ 4]  964 	sbc	a, a
    000003CD 47               [ 4]  965 	ld	b, a
    000003CE E1               [10]  966 	pop	hl
    000003CF E5               [11]  967 	push	hl
    000003D0 09               [11]  968 	add	hl, bc
    000003D1 EB               [ 4]  969 	ex	de, hl
    000003D2 ED 53r04r00      [20]  970 	ld	((_g_VDP_Command + 4)), de
                                    971 ;C:\Users\reina\OneDrive\Documentos\MSXgl\engine/src/draw.c:122: g_VDP_Command.DY = dy + y;
    000003D6 DD 7E FB         [19]  972 	ld	a, -5 (ix)
    000003D9 DD 77 F5         [19]  973 	ld	-11 (ix), a
    000003DC DD 36 F6 00      [19]  974 	ld	-10 (ix), #0x00
    000003E0 DD 7E FF         [19]  975 	ld	a, -1 (ix)
    000003E3 DD 77 F7         [19]  976 	ld	-9 (ix), a
    000003E6 07               [ 4]  977 	rlca
    000003E7 9F               [ 4]  978 	sbc	a, a
    000003E8 DD 77 F8         [19]  979 	ld	-8 (ix), a
    000003EB DD 7E F5         [19]  980 	ld	a, -11 (ix)
    000003EE DD 86 F7         [19]  981 	add	a, -9 (ix)
    000003F1 5F               [ 4]  982 	ld	e, a
    000003F2 DD 7E F6         [19]  983 	ld	a, -10 (ix)
    000003F5 DD 8E F8         [19]  984 	adc	a, -8 (ix)
    000003F8 57               [ 4]  985 	ld	d, a
    000003F9 DD 73 F9         [19]  986 	ld	-7 (ix), e
    000003FC DD 72 FA         [19]  987 	ld	-6 (ix), d
    000003FF 21r06r00         [10]  988 	ld	hl, #(_g_VDP_Command + 6)
    00000402 DD 7E F9         [19]  989 	ld	a, -7 (ix)
    00000405 77               [ 7]  990 	ld	(hl), a
    00000406 23               [ 6]  991 	inc	hl
    00000407 DD 7E FA         [19]  992 	ld	a, -6 (ix)
    0000040A 77               [ 7]  993 	ld	(hl), a
                                    994 ;C:\Users\reina\OneDrive\Documentos\MSXgl\engine/src/draw.c:123: g_VDP_Command.CLR = color;
    0000040B 21r0Cr00         [10]  995 	ld	hl, #(_g_VDP_Command + 12)
    0000040E DD 7E 05         [19]  996 	ld	a, 5 (ix)
    00000411 77               [ 7]  997 	ld	(hl), a
                                    998 ;C:\Users\reina\OneDrive\Documentos\MSXgl\engine/src/draw.c:124: g_VDP_Command.ARG = 0;
    00000412 21r0Dr00         [10]  999 	ld	hl, #(_g_VDP_Command + 13)
    00000415 36 00            [10] 1000 	ld	(hl), #0x00
                                   1001 ;C:\Users\reina\OneDrive\Documentos\MSXgl\engine/src/draw.c:125: g_VDP_Command.CMD = VDP_CMD_PSET + op;
    00000417 11r0Er00         [10] 1002 	ld	de, #_g_VDP_Command + 14
    0000041A DD 7E 06         [19] 1003 	ld	a, 6 (ix)
    0000041D C6 50            [ 7] 1004 	add	a, #0x50
    0000041F 12               [ 7] 1005 	ld	(de), a
                                   1006 ;C:\Users\reina\OneDrive\Documentos\MSXgl\engine/src/draw.c:126: VPD_CommandSetupR36();
    00000420 C5               [11] 1007 	push	bc
    00000421 CDr00r00         [17] 1008 	call	_VPD_CommandSetupR36
    00000424 C1               [10] 1009 	pop	bc
                                   1010 ;C:\Users\reina\OneDrive\Documentos\MSXgl\engine/src/draw.c:128: g_VDP_Command.DY = dy - y;
    00000425 DD 7E F5         [19] 1011 	ld	a, -11 (ix)
    00000428 DD 96 F7         [19] 1012 	sub	a, -9 (ix)
    0000042B 5F               [ 4] 1013 	ld	e, a
    0000042C DD 7E F6         [19] 1014 	ld	a, -10 (ix)
    0000042F DD 9E F8         [19] 1015 	sbc	a, -8 (ix)
    00000432 57               [ 4] 1016 	ld	d, a
    00000433 ED 53r06r00      [20] 1017 	ld	((_g_VDP_Command + 6)), de
                                   1018 ;C:\Users\reina\OneDrive\Documentos\MSXgl\engine/src/draw.c:129: VPD_CommandSetupR36();
    00000437 C5               [11] 1019 	push	bc
    00000438 CDr00r00         [17] 1020 	call	_VPD_CommandSetupR36
    0000043B C1               [10] 1021 	pop	bc
                                   1022 ;C:\Users\reina\OneDrive\Documentos\MSXgl\engine/src/draw.c:131: g_VDP_Command.DX = dx - x;
    0000043C DD 7E F3         [19] 1023 	ld	a, -13 (ix)
    0000043F 91               [ 4] 1024 	sub	a, c
    00000440 5F               [ 4] 1025 	ld	e, a
    00000441 DD 7E F4         [19] 1026 	ld	a, -12 (ix)
    00000444 98               [ 4] 1027 	sbc	a, b
    00000445 57               [ 4] 1028 	ld	d, a
    00000446 ED 53r04r00      [20] 1029 	ld	((_g_VDP_Command + 4)), de
                                   1030 ;C:\Users\reina\OneDrive\Documentos\MSXgl\engine/src/draw.c:132: VPD_CommandSetupR36();
    0000044A C5               [11] 1031 	push	bc
    0000044B CDr00r00         [17] 1032 	call	_VPD_CommandSetupR36
    0000044E C1               [10] 1033 	pop	bc
                                   1034 ;C:\Users\reina\OneDrive\Documentos\MSXgl\engine/src/draw.c:134: g_VDP_Command.DY = dy + y;
    0000044F 21r06r00         [10] 1035 	ld	hl, #(_g_VDP_Command + 6)
    00000452 DD 7E F9         [19] 1036 	ld	a, -7 (ix)
    00000455 77               [ 7] 1037 	ld	(hl), a
    00000456 23               [ 6] 1038 	inc	hl
    00000457 DD 7E FA         [19] 1039 	ld	a, -6 (ix)
    0000045A 77               [ 7] 1040 	ld	(hl), a
                                   1041 ;C:\Users\reina\OneDrive\Documentos\MSXgl\engine/src/draw.c:135: VPD_CommandSetupR36();
    0000045B C5               [11] 1042 	push	bc
    0000045C CDr00r00         [17] 1043 	call	_VPD_CommandSetupR36
    0000045F C1               [10] 1044 	pop	bc
                                   1045 ;C:\Users\reina\OneDrive\Documentos\MSXgl\engine/src/draw.c:137: g_VDP_Command.DX = dx + y;
    00000460 DD 7E F3         [19] 1046 	ld	a, -13 (ix)
    00000463 DD 86 F7         [19] 1047 	add	a, -9 (ix)
    00000466 5F               [ 4] 1048 	ld	e, a
    00000467 DD 7E F4         [19] 1049 	ld	a, -12 (ix)
    0000046A DD 8E F8         [19] 1050 	adc	a, -8 (ix)
    0000046D 57               [ 4] 1051 	ld	d, a
    0000046E ED 53r04r00      [20] 1052 	ld	((_g_VDP_Command + 4)), de
                                   1053 ;C:\Users\reina\OneDrive\Documentos\MSXgl\engine/src/draw.c:138: g_VDP_Command.DY = dy + x;
    00000472 DD 6E F5         [19] 1054 	ld	l, -11 (ix)
    00000475 DD 66 F6         [19] 1055 	ld	h, -10 (ix)
    00000478 09               [11] 1056 	add	hl, bc
    00000479 EB               [ 4] 1057 	ex	de, hl
    0000047A ED 53r06r00      [20] 1058 	ld	((_g_VDP_Command + 6)), de
                                   1059 ;C:\Users\reina\OneDrive\Documentos\MSXgl\engine/src/draw.c:139: VPD_CommandSetupR36();
    0000047E C5               [11] 1060 	push	bc
    0000047F D5               [11] 1061 	push	de
    00000480 CDr00r00         [17] 1062 	call	_VPD_CommandSetupR36
    00000483 D1               [10] 1063 	pop	de
    00000484 C1               [10] 1064 	pop	bc
                                   1065 ;C:\Users\reina\OneDrive\Documentos\MSXgl\engine/src/draw.c:141: g_VDP_Command.DY = dy - x;
    00000485 DD 7E F5         [19] 1066 	ld	a, -11 (ix)
    00000488 91               [ 4] 1067 	sub	a, c
    00000489 4F               [ 4] 1068 	ld	c, a
    0000048A DD 7E F6         [19] 1069 	ld	a, -10 (ix)
    0000048D 98               [ 4] 1070 	sbc	a, b
    0000048E 47               [ 4] 1071 	ld	b, a
    0000048F ED 43r06r00      [20] 1072 	ld	((_g_VDP_Command + 6)), bc
                                   1073 ;C:\Users\reina\OneDrive\Documentos\MSXgl\engine/src/draw.c:142: VPD_CommandSetupR36();
    00000493 D5               [11] 1074 	push	de
    00000494 CDr00r00         [17] 1075 	call	_VPD_CommandSetupR36
    00000497 D1               [10] 1076 	pop	de
                                   1077 ;C:\Users\reina\OneDrive\Documentos\MSXgl\engine/src/draw.c:144: g_VDP_Command.DX = dx - y;
    00000498 DD 7E F3         [19] 1078 	ld	a, -13 (ix)
    0000049B DD 96 F7         [19] 1079 	sub	a, -9 (ix)
    0000049E 4F               [ 4] 1080 	ld	c, a
    0000049F DD 7E F4         [19] 1081 	ld	a, -12 (ix)
    000004A2 DD 9E F8         [19] 1082 	sbc	a, -8 (ix)
    000004A5 47               [ 4] 1083 	ld	b, a
    000004A6 ED 43r04r00      [20] 1084 	ld	((_g_VDP_Command + 4)), bc
                                   1085 ;C:\Users\reina\OneDrive\Documentos\MSXgl\engine/src/draw.c:145: VPD_CommandSetupR36();
    000004AA D5               [11] 1086 	push	de
    000004AB CDr00r00         [17] 1087 	call	_VPD_CommandSetupR36
    000004AE D1               [10] 1088 	pop	de
                                   1089 ;C:\Users\reina\OneDrive\Documentos\MSXgl\engine/src/draw.c:147: g_VDP_Command.DY = dy + x;
    000004AF ED 53r06r00      [20] 1090 	ld	((_g_VDP_Command + 6)), de
                                   1091 ;C:\Users\reina\OneDrive\Documentos\MSXgl\engine/src/draw.c:148: VPD_CommandSetupR36();
    000004B3 CDr00r00         [17] 1092 	call	_VPD_CommandSetupR36
                                   1093 ;C:\Users\reina\OneDrive\Documentos\MSXgl\engine/src/draw.c:150: if (x <= y)
    000004B6 DD 7E FF         [19] 1094 	ld	a, -1 (ix)
    000004B9 DD 96 FD         [19] 1095 	sub	a, -3 (ix)
    000004BC E2rC1r04         [10] 1096 	jp	PO, 00126$
    000004BF EE 80            [ 7] 1097 	xor	a, #0x80
    000004C1                       1098 00126$:
    000004C1 F2rF4r04         [10] 1099 	jp	P, 00108$
                                   1100 ;C:\Users\reina\OneDrive\Documentos\MSXgl\engine/src/draw.c:152: e += (2 * y) + 1;
    000004C4 DD 7E FF         [19] 1101 	ld	a, -1 (ix)
    000004C7 87               [ 4] 1102 	add	a, a
    000004C8 3C               [ 4] 1103 	inc	a
    000004C9 DD 86 FE         [19] 1104 	add	a, -2 (ix)
    000004CC DD 77 FE         [19] 1105 	ld	-2 (ix), a
                                   1106 ;C:\Users\reina\OneDrive\Documentos\MSXgl\engine/src/draw.c:153: y++;
    000004CF DD 34 FF         [23] 1107 	inc	-1 (ix)
                                   1108 ;C:\Users\reina\OneDrive\Documentos\MSXgl\engine/src/draw.c:154: if (e > x)
    000004D2 DD 7E FD         [19] 1109 	ld	a, -3 (ix)
    000004D5 DD 96 FE         [19] 1110 	sub	a, -2 (ix)
    000004D8 E2rDDr04         [10] 1111 	jp	PO, 00127$
    000004DB EE 80            [ 7] 1112 	xor	a, #0x80
    000004DD                       1113 00127$:
    000004DD F2rBDr03         [10] 1114 	jp	P, 00106$
                                   1115 ;C:\Users\reina\OneDrive\Documentos\MSXgl\engine/src/draw.c:156: e += 1 - (2 * x);
    000004E0 DD 7E FD         [19] 1116 	ld	a, -3 (ix)
    000004E3 87               [ 4] 1117 	add	a, a
    000004E4 4F               [ 4] 1118 	ld	c, a
    000004E5 3E 01            [ 7] 1119 	ld	a, #0x01
    000004E7 91               [ 4] 1120 	sub	a, c
    000004E8 DD 86 FE         [19] 1121 	add	a, -2 (ix)
    000004EB DD 77 FE         [19] 1122 	ld	-2 (ix), a
                                   1123 ;C:\Users\reina\OneDrive\Documentos\MSXgl\engine/src/draw.c:157: x--;
    000004EE DD 35 FD         [23] 1124 	dec	-3 (ix)
    000004F1 C3rBDr03         [10] 1125 	jp	00106$
    000004F4                       1126 00108$:
                                   1127 ;C:\Users\reina\OneDrive\Documentos\MSXgl\engine/src/draw.c:160: }
    000004F4 DD F9            [10] 1128 	ld	sp, ix
    000004F6 DD E1            [14] 1129 	pop	ix
    000004F8 E1               [10] 1130 	pop	hl
    000004F9 F1               [10] 1131 	pop	af
    000004FA 33               [ 6] 1132 	inc	sp
    000004FB E9               [ 4] 1133 	jp	(hl)
                                   1134 	.area _CODE
                                   1135 	.area _INITIALIZER
                                   1136 	.area _CABS (ABS)
