                                      1 ;--------------------------------------------------------
                                      2 ; File Created by SDCC : free open source ANSI-C Compiler
                                      3 ; Version 4.2.0 #13081 (MINGW64)
                                      4 ;--------------------------------------------------------
                                      5 	.module game_menu
                                      6 	.optsdcc -mz80
                                      7 	
                                      8 ;--------------------------------------------------------
                                      9 ; Public variables in this module
                                     10 ;--------------------------------------------------------
                                     11 	.globl _Menu_DisplayItem
                                     12 	.globl _Menu_DefaultEventCB
                                     13 	.globl _Menu_DefaultDrawCB
                                     14 	.globl _Menu_DefaultInputCB
                                     15 	.globl _Keyboard_IsKeyPressed
                                     16 	.globl _Print_DrawInt
                                     17 	.globl _Print_DrawText
                                     18 	.globl _Print_DrawChar
                                     19 	.globl _VDP_FillVRAM_16K
                                     20 	.globl _g_MenuScrWidth
                                     21 	.globl _g_MenuInputPrev
                                     22 	.globl _g_MenuFlag
                                     23 	.globl _g_MenuPageIdx
                                     24 	.globl _g_MenuEventCB
                                     25 	.globl _g_MenuDrawCB
                                     26 	.globl _g_MenuInputCB
                                     27 	.globl _g_MenuItem
                                     28 	.globl _g_MenuPage
                                     29 	.globl _g_MenuTable
                                     30 	.globl _g_SLTSL
                                     31 	.globl _g_GRPACY
                                     32 	.globl _g_GRPACX
                                     33 	.globl _g_LOGOPR
                                     34 	.globl _g_CMASK
                                     35 	.globl _g_CLOC
                                     36 	.globl _g_FNKSTR
                                     37 	.globl _g_ATRBYT
                                     38 	.globl _g_BDRCLR
                                     39 	.globl _g_BAKCLR
                                     40 	.globl _g_FORCLR
                                     41 	.globl _g_CSRX
                                     42 	.globl _g_CSRY
                                     43 	.globl _g_CLIKSW
                                     44 	.globl _g_MLTPAT
                                     45 	.globl _g_MLTATR
                                     46 	.globl _g_MLTCGP
                                     47 	.globl _g_MLTCOL
                                     48 	.globl _g_MLTNAM
                                     49 	.globl _g_GRPPAT
                                     50 	.globl _g_GRPATR
                                     51 	.globl _g_GRPCGP
                                     52 	.globl _g_GRPCOL
                                     53 	.globl _g_GRPNAM
                                     54 	.globl _g_T32PAT
                                     55 	.globl _g_T32ATR
                                     56 	.globl _g_T32CGP
                                     57 	.globl _g_T32COL
                                     58 	.globl _g_T32NAM
                                     59 	.globl _g_TXTPAT
                                     60 	.globl _g_TXTATR
                                     61 	.globl _g_TXTCGP
                                     62 	.globl _g_TXTCOL
                                     63 	.globl _g_TXTNAM
                                     64 	.globl _g_CLMLST
                                     65 	.globl _g_CRTCNT
                                     66 	.globl _g_LINLEN
                                     67 	.globl _g_LINL32
                                     68 	.globl _g_LINL40
                                     69 	.globl _g_SVFFFD
                                     70 	.globl _g_RG27SAV
                                     71 	.globl _g_RG26SAV
                                     72 	.globl _g_RG25SAV
                                     73 	.globl _g_SVFFF8
                                     74 	.globl _g_MINROM
                                     75 	.globl _g_RG23SAV
                                     76 	.globl _g_RG22SAV
                                     77 	.globl _g_RG21SAV
                                     78 	.globl _g_RG20SAV
                                     79 	.globl _g_RG19SAV
                                     80 	.globl _g_RG18SAV
                                     81 	.globl _g_RG17SAV
                                     82 	.globl _g_RG16SAV
                                     83 	.globl _g_RG15SAV
                                     84 	.globl _g_RG14SAV
                                     85 	.globl _g_RG13SAV
                                     86 	.globl _g_RG12SAV
                                     87 	.globl _g_RG11SAV
                                     88 	.globl _g_RG10SAV
                                     89 	.globl _g_RG09SAV
                                     90 	.globl _g_RG08SAV
                                     91 	.globl _g_PROCNM
                                     92 	.globl _g_SLTWRK
                                     93 	.globl _g_SLTATR
                                     94 	.globl _g_SLTTBL
                                     95 	.globl _g_EXPTBL
                                     96 	.globl _g_MNROM
                                     97 	.globl _g_DRWANG
                                     98 	.globl _g_DRWSCL
                                     99 	.globl _g_DRWFLG
                                    100 	.globl _g_GYPOS
                                    101 	.globl _g_GXPOS
                                    102 	.globl _g_BRDATR
                                    103 	.globl _g_CASPRV
                                    104 	.globl _g_OLDSCR
                                    105 	.globl _g_SCRMOD
                                    106 	.globl _g_FLBMEM
                                    107 	.globl _g_KANAMD
                                    108 	.globl _g_KANAST
                                    109 	.globl _g_CAPST
                                    110 	.globl _g_CSTYLE
                                    111 	.globl _g_CSRSW
                                    112 	.globl _g_INSFLG
                                    113 	.globl _g_ESCCNT
                                    114 	.globl _g_GRPHED
                                    115 	.globl _g_WINWID
                                    116 	.globl _g_LOWLIM
                                    117 	.globl _g_INTCNT
                                    118 	.globl _g_INTVAL
                                    119 	.globl _g_JIFFY
                                    120 	.globl _g_PADX
                                    121 	.globl _g_PADY
                                    122 	.globl _g_INTFLG
                                    123 	.globl _g_RTYCNT
                                    124 	.globl _g_TRPTBL
                                    125 	.globl _g_HIMEM
                                    126 	.globl _g_BOTTOM
                                    127 	.globl _g_PATWRK
                                    128 	.globl _g_LINWRK
                                    129 	.globl _g_KEYBUF
                                    130 	.globl _g_NEWKEY
                                    131 	.globl _g_OLDKEY
                                    132 	.globl _g_CLIKFL
                                    133 	.globl _g_ONGSBF
                                    134 	.globl _g_FNKFLG
                                    135 	.globl _g_FNKSWI
                                    136 	.globl _g_CODSAV
                                    137 	.globl _g_FSTPOS
                                    138 	.globl _g_LINTTB
                                    139 	.globl _g_BASROM
                                    140 	.globl _g_ENSTOP
                                    141 	.globl _g_VCBC
                                    142 	.globl _g_VCBB
                                    143 	.globl _g_VCBA
                                    144 	.globl _g_PLYCNT
                                    145 	.globl _g_MUSICF
                                    146 	.globl _g_QUEUEN
                                    147 	.globl _g_MCLPTR
                                    148 	.globl _g_MCLLEN
                                    149 	.globl _g_SAVVOL
                                    150 	.globl _g_VOICEN
                                    151 	.globl _g_SAVSP
                                    152 	.globl _g_PRSCNT
                                    153 	.globl _g_LSTMOD
                                    154 	.globl _g_LSTCOM
                                    155 	.globl _g_COMMSK
                                    156 	.globl _g_ESTBLS
                                    157 	.globl _g_FLAGS
                                    158 	.globl _g_ERRORS
                                    159 	.globl _g_DATCNT
                                    160 	.globl _g_DEVNUM
                                    161 	.globl _g_OLDINT
                                    162 	.globl _g_OLDSTT
                                    163 	.globl _g_MEXBIh
                                    164 	.globl _g_RSIQLN
                                    165 	.globl _g_RSFCB
                                    166 	.globl _g_TOCNT
                                    167 	.globl _g_RSTMP
                                    168 	.globl _g_YSAVE
                                    169 	.globl _g_XSAVE
                                    170 	.globl _g_NORUSE
                                    171 	.globl _g_MODE
                                    172 	.globl _g_ROMA
                                    173 	.globl _g_CHRCNT
                                    174 	.globl _g_EXBRSA
                                    175 	.globl _g_AVCSAV
                                    176 	.globl _g_ACPAGE
                                    177 	.globl _g_DPPAGE
                                    178 	.globl _g_RS2IQ
                                    179 	.globl _g_VOICCQ
                                    180 	.globl _g_VOICBQ
                                    181 	.globl _g_VOICAQ
                                    182 	.globl _g_QUEBAK
                                    183 	.globl _g_QUETAB
                                    184 	.globl _g_ASPCT2
                                    185 	.globl _g_ASPCT1
                                    186 	.globl _g_HEADER
                                    187 	.globl _g_HIGH
                                    188 	.globl _g_LOW
                                    189 	.globl _g_CS240
                                    190 	.globl _g_CS120
                                    191 	.globl _g_GETPNT
                                    192 	.globl _g_PUTPNT
                                    193 	.globl _g_REPCNT
                                    194 	.globl _g_SCNCNT
                                    195 	.globl _g_FRCNEW
                                    196 	.globl _g_QUEUES
                                    197 	.globl _g_MINUPD
                                    198 	.globl _g_MAXUPD
                                    199 	.globl _g_TRGFLG
                                    200 	.globl _g_STATFL
                                    201 	.globl _g_RG7SAV
                                    202 	.globl _g_RG6SAV
                                    203 	.globl _g_RG5SAV
                                    204 	.globl _g_RG4SAV
                                    205 	.globl _g_RG3SAV
                                    206 	.globl _g_RG2SAV
                                    207 	.globl _g_RG1SAV
                                    208 	.globl _g_RG0SAV
                                    209 	.globl _g_CNSDFG
                                    210 	.globl _g_USRTAB
                                    211 	.globl _g_CLPRIM
                                    212 	.globl _g_WRPRIM
                                    213 	.globl _g_RDPRIM
                                    214 	.globl _Menu_Initialize
                                    215 	.globl _Menu_DrawPage
                                    216 	.globl _Menu_Update
                                    217 ;--------------------------------------------------------
                                    218 ; special function registers
                                    219 ;--------------------------------------------------------
                                    220 ;--------------------------------------------------------
                                    221 ; ram data
                                    222 ;--------------------------------------------------------
                                    223 	.area _DATA
                         0000F3AE   224 _g_LINL40	=	0xf3ae
                         0000F3AF   225 _g_LINL32	=	0xf3af
                         0000F3B0   226 _g_LINLEN	=	0xf3b0
                         0000F3B1   227 _g_CRTCNT	=	0xf3b1
                         0000F3B2   228 _g_CLMLST	=	0xf3b2
                         0000F3B3   229 _g_TXTNAM	=	0xf3b3
                         0000F3B5   230 _g_TXTCOL	=	0xf3b5
                         0000F3B7   231 _g_TXTCGP	=	0xf3b7
                         0000F3B9   232 _g_TXTATR	=	0xf3b9
                         0000F3BB   233 _g_TXTPAT	=	0xf3bb
                         0000F3BD   234 _g_T32NAM	=	0xf3bd
                         0000F3BF   235 _g_T32COL	=	0xf3bf
                         0000F3C1   236 _g_T32CGP	=	0xf3c1
                         0000F3C3   237 _g_T32ATR	=	0xf3c3
                         0000F3C5   238 _g_T32PAT	=	0xf3c5
                         0000F3C7   239 _g_GRPNAM	=	0xf3c7
                         0000F3C9   240 _g_GRPCOL	=	0xf3c9
                         0000F3CB   241 _g_GRPCGP	=	0xf3cb
                         0000F3CD   242 _g_GRPATR	=	0xf3cd
                         0000F3CF   243 _g_GRPPAT	=	0xf3cf
                         0000F3D1   244 _g_MLTNAM	=	0xf3d1
                         0000F3D3   245 _g_MLTCOL	=	0xf3d3
                         0000F3D5   246 _g_MLTCGP	=	0xf3d5
                         0000F3D7   247 _g_MLTATR	=	0xf3d7
                         0000F3D9   248 _g_MLTPAT	=	0xf3d9
                         0000F3DB   249 _g_CLIKSW	=	0xf3db
                         0000F3DC   250 _g_CSRY	=	0xf3dc
                         0000F3DD   251 _g_CSRX	=	0xf3dd
                         0000F3E9   252 _g_FORCLR	=	0xf3e9
                         0000F3EA   253 _g_BAKCLR	=	0xf3ea
                         0000F3EB   254 _g_BDRCLR	=	0xf3eb
                         0000F3F2   255 _g_ATRBYT	=	0xf3f2
                         0000F87F   256 _g_FNKSTR	=	0xf87f
                         0000F92A   257 _g_CLOC	=	0xf92a
                         0000F92C   258 _g_CMASK	=	0xf92c
                         0000FB02   259 _g_LOGOPR	=	0xfb02
                         0000FCB7   260 _g_GRPACX	=	0xfcb7
                         0000FCB9   261 _g_GRPACY	=	0xfcb9
                         0000FFFF   262 _g_SLTSL	=	0xffff
    00000000                        263 _g_MenuTable::
    00000000                        264 	.ds 2
    00000002                        265 _g_MenuPage::
    00000002                        266 	.ds 2
    00000004                        267 _g_MenuItem::
    00000004                        268 	.ds 1
    00000005                        269 _g_MenuInputCB::
    00000005                        270 	.ds 2
    00000007                        271 _g_MenuDrawCB::
    00000007                        272 	.ds 2
    00000009                        273 _g_MenuEventCB::
    00000009                        274 	.ds 2
    0000000B                        275 _g_MenuPageIdx::
    0000000B                        276 	.ds 1
    0000000C                        277 _g_MenuFlag::
    0000000C                        278 	.ds 1
    0000000D                        279 _g_MenuInputPrev::
    0000000D                        280 	.ds 1
    0000000E                        281 _g_MenuScrWidth::
    0000000E                        282 	.ds 1
                                    283 ;--------------------------------------------------------
                                    284 ; ram data
                                    285 ;--------------------------------------------------------
                                    286 	.area _INITIALIZED
                                    287 ;--------------------------------------------------------
                                    288 ; absolute external ram data
                                    289 ;--------------------------------------------------------
                                    290 	.area _DABS (ABS)
                                    291 ;--------------------------------------------------------
                                    292 ; global & static initialisations
                                    293 ;--------------------------------------------------------
                                    294 	.area _HOME
                                    295 	.area _GSINIT
                                    296 	.area _GSFINAL
                                    297 	.area _GSINIT
                                    298 ;--------------------------------------------------------
                                    299 ; Home
                                    300 ;--------------------------------------------------------
                                    301 	.area _HOME
                                    302 	.area _HOME
                                    303 ;--------------------------------------------------------
                                    304 ; code
                                    305 ;--------------------------------------------------------
                                    306 	.area _CODE
                                    307 ;C:\Users\reina\OneDrive\Documentos\MSXgl\engine/src/game_menu.c:61: u8 Menu_DefaultInputCB()
                                    308 ;	---------------------------------
                                    309 ; Function Menu_DefaultInputCB
                                    310 ; ---------------------------------
    00000000                        311 _Menu_DefaultInputCB::
                                    312 ;C:\Users\reina\OneDrive\Documentos\MSXgl\engine/src/game_menu.c:63: u8 new = 0;
    00000000 0E 00            [ 7]  313 	ld	c, #0x00
                                    314 ;C:\Users\reina\OneDrive\Documentos\MSXgl\engine/src/game_menu.c:64: if(Keyboard_IsKeyPressed(KEY_UP))    new |= MENU_INPUT_UP;
    00000002 C5               [11]  315 	push	bc
    00000003 3E 58            [ 7]  316 	ld	a, #0x58
    00000005 CDr00r00         [17]  317 	call	_Keyboard_IsKeyPressed
    00000008 C1               [10]  318 	pop	bc
    00000009 B7               [ 4]  319 	or	a, a
    0000000A 28 02            [12]  320 	jr	Z, 00102$
    0000000C 0E 01            [ 7]  321 	ld	c, #0x01
    0000000E                        322 00102$:
                                    323 ;C:\Users\reina\OneDrive\Documentos\MSXgl\engine/src/game_menu.c:65: if(Keyboard_IsKeyPressed(KEY_DOWN))  new |= MENU_INPUT_DOWN;
    0000000E C5               [11]  324 	push	bc
    0000000F 3E 68            [ 7]  325 	ld	a, #0x68
    00000011 CDr00r00         [17]  326 	call	_Keyboard_IsKeyPressed
    00000014 C1               [10]  327 	pop	bc
    00000015 B7               [ 4]  328 	or	a, a
    00000016 28 02            [12]  329 	jr	Z, 00104$
    00000018 CB C9            [ 8]  330 	set	1, c
    0000001A                        331 00104$:
                                    332 ;C:\Users\reina\OneDrive\Documentos\MSXgl\engine/src/game_menu.c:66: if(Keyboard_IsKeyPressed(KEY_LEFT))  new |= MENU_INPUT_LEFT;
    0000001A C5               [11]  333 	push	bc
    0000001B 3E 48            [ 7]  334 	ld	a, #0x48
    0000001D CDr00r00         [17]  335 	call	_Keyboard_IsKeyPressed
    00000020 C1               [10]  336 	pop	bc
    00000021 B7               [ 4]  337 	or	a, a
    00000022 28 02            [12]  338 	jr	Z, 00106$
    00000024 CB D1            [ 8]  339 	set	2, c
    00000026                        340 00106$:
                                    341 ;C:\Users\reina\OneDrive\Documentos\MSXgl\engine/src/game_menu.c:67: if(Keyboard_IsKeyPressed(KEY_RIGHT)) new |= MENU_INPUT_RIGHT;
    00000026 C5               [11]  342 	push	bc
    00000027 3E 78            [ 7]  343 	ld	a, #0x78
    00000029 CDr00r00         [17]  344 	call	_Keyboard_IsKeyPressed
    0000002C C1               [10]  345 	pop	bc
    0000002D B7               [ 4]  346 	or	a, a
    0000002E 28 02            [12]  347 	jr	Z, 00108$
    00000030 CB D9            [ 8]  348 	set	3, c
    00000032                        349 00108$:
                                    350 ;C:\Users\reina\OneDrive\Documentos\MSXgl\engine/src/game_menu.c:68: if(Keyboard_IsKeyPressed(KEY_SPACE)) new |= MENU_INPUT_TRIGGER;
    00000032 C5               [11]  351 	push	bc
    00000033 3E 08            [ 7]  352 	ld	a, #0x08
    00000035 CDr00r00         [17]  353 	call	_Keyboard_IsKeyPressed
    00000038 C1               [10]  354 	pop	bc
    00000039 B7               [ 4]  355 	or	a, a
    0000003A 28 02            [12]  356 	jr	Z, 00110$
    0000003C CB E1            [ 8]  357 	set	4, c
    0000003E                        358 00110$:
                                    359 ;C:\Users\reina\OneDrive\Documentos\MSXgl\engine/src/game_menu.c:70: u8 ret = (new & g_MenuInputPrev) ^ new;
    0000003E 79               [ 4]  360 	ld	a, c
    0000003F FD 21r0Dr00      [14]  361 	ld	iy, #_g_MenuInputPrev
    00000043 FD A6 00         [19]  362 	and	a, 0 (iy)
    00000046 A9               [ 4]  363 	xor	a, c
                                    364 ;C:\Users\reina\OneDrive\Documentos\MSXgl\engine/src/game_menu.c:71: g_MenuInputPrev = new;
    00000047 FD 71 00         [19]  365 	ld	0 (iy), c
                                    366 ;C:\Users\reina\OneDrive\Documentos\MSXgl\engine/src/game_menu.c:73: return ret;
                                    367 ;C:\Users\reina\OneDrive\Documentos\MSXgl\engine/src/game_menu.c:74: }
    0000004A C9               [10]  368 	ret
                         0000F380   369 _g_RDPRIM	=	0xf380
                         0000F385   370 _g_WRPRIM	=	0xf385
                         0000F38C   371 _g_CLPRIM	=	0xf38c
                         0000F39A   372 _g_USRTAB	=	0xf39a
                         0000F3DE   373 _g_CNSDFG	=	0xf3de
                         0000F3DF   374 _g_RG0SAV	=	0xf3df
                         0000F3E0   375 _g_RG1SAV	=	0xf3e0
                         0000F3E1   376 _g_RG2SAV	=	0xf3e1
                         0000F3E2   377 _g_RG3SAV	=	0xf3e2
                         0000F3E3   378 _g_RG4SAV	=	0xf3e3
                         0000F3E4   379 _g_RG5SAV	=	0xf3e4
                         0000F3E5   380 _g_RG6SAV	=	0xf3e5
                         0000F3E6   381 _g_RG7SAV	=	0xf3e6
                         0000F3E7   382 _g_STATFL	=	0xf3e7
                         0000F3E8   383 _g_TRGFLG	=	0xf3e8
                         0000F3EC   384 _g_MAXUPD	=	0xf3ec
                         0000F3EF   385 _g_MINUPD	=	0xf3ef
                         0000F3F3   386 _g_QUEUES	=	0xf3f3
                         0000F3F5   387 _g_FRCNEW	=	0xf3f5
                         0000F3F6   388 _g_SCNCNT	=	0xf3f6
                         0000F3F7   389 _g_REPCNT	=	0xf3f7
                         0000F3F8   390 _g_PUTPNT	=	0xf3f8
                         0000F3FA   391 _g_GETPNT	=	0xf3fa
                         0000F3FC   392 _g_CS120	=	0xf3fc
                         0000F401   393 _g_CS240	=	0xf401
                         0000F406   394 _g_LOW	=	0xf406
                         0000F408   395 _g_HIGH	=	0xf408
                         0000F40A   396 _g_HEADER	=	0xf40a
                         0000F40B   397 _g_ASPCT1	=	0xf40b
                         0000F40D   398 _g_ASPCT2	=	0xf40d
                         0000F959   399 _g_QUETAB	=	0xf959
                         0000F971   400 _g_QUEBAK	=	0xf971
                         0000F975   401 _g_VOICAQ	=	0xf975
                         0000F9F5   402 _g_VOICBQ	=	0xf9f5
                         0000FA75   403 _g_VOICCQ	=	0xfa75
                         0000FAF5   404 _g_RS2IQ	=	0xfaf5
                         0000FAF5   405 _g_DPPAGE	=	0xfaf5
                         0000FAF6   406 _g_ACPAGE	=	0xfaf6
                         0000FAF7   407 _g_AVCSAV	=	0xfaf7
                         0000FAF8   408 _g_EXBRSA	=	0xfaf8
                         0000FAF9   409 _g_CHRCNT	=	0xfaf9
                         0000FAFA   410 _g_ROMA	=	0xfafa
                         0000FAFC   411 _g_MODE	=	0xfafc
                         0000FAFD   412 _g_NORUSE	=	0xfafd
                         0000FAFE   413 _g_XSAVE	=	0xfafe
                         0000FB00   414 _g_YSAVE	=	0xfb00
                         0000FB03   415 _g_RSTMP	=	0xfb03
                         0000FB03   416 _g_TOCNT	=	0xfb03
                         0000FB04   417 _g_RSFCB	=	0xfb04
                         0000FB06   418 _g_RSIQLN	=	0xfb06
                         0000FB07   419 _g_MEXBIh	=	0xfb07
                         0000FB0C   420 _g_OLDSTT	=	0xfb0c
                         0000FB0C   421 _g_OLDINT	=	0xfb0c
                         0000FB16   422 _g_DEVNUM	=	0xfb16
                         0000FB17   423 _g_DATCNT	=	0xfb17
                         0000FB1A   424 _g_ERRORS	=	0xfb1a
                         0000FB1B   425 _g_FLAGS	=	0xfb1b
                         0000FB1C   426 _g_ESTBLS	=	0xfb1c
                         0000FB1D   427 _g_COMMSK	=	0xfb1d
                         0000FB1E   428 _g_LSTCOM	=	0xfb1e
                         0000FB1F   429 _g_LSTMOD	=	0xfb1f
                         0000FB35   430 _g_PRSCNT	=	0xfb35
                         0000FB36   431 _g_SAVSP	=	0xfb36
                         0000FB38   432 _g_VOICEN	=	0xfb38
                         0000FB39   433 _g_SAVVOL	=	0xfb39
                         0000FB3B   434 _g_MCLLEN	=	0xfb3b
                         0000FB3C   435 _g_MCLPTR	=	0xfb3c
                         0000FB3E   436 _g_QUEUEN	=	0xfb3e
                         0000FB3F   437 _g_MUSICF	=	0xfb3f
                         0000FB40   438 _g_PLYCNT	=	0xfb40
                         0000FB41   439 _g_VCBA	=	0xfb41
                         0000FB66   440 _g_VCBB	=	0xfb66
                         0000FB8B   441 _g_VCBC	=	0xfb8b
                         0000FBB0   442 _g_ENSTOP	=	0xfbb0
                         0000FBB1   443 _g_BASROM	=	0xfbb1
                         0000FBB2   444 _g_LINTTB	=	0xfbb2
                         0000FBCA   445 _g_FSTPOS	=	0xfbca
                         0000FBCC   446 _g_CODSAV	=	0xfbcc
                         0000FBCD   447 _g_FNKSWI	=	0xfbcd
                         0000FBCE   448 _g_FNKFLG	=	0xfbce
                         0000FBD8   449 _g_ONGSBF	=	0xfbd8
                         0000FBD9   450 _g_CLIKFL	=	0xfbd9
                         0000FBDA   451 _g_OLDKEY	=	0xfbda
                         0000FBE5   452 _g_NEWKEY	=	0xfbe5
                         0000FBF0   453 _g_KEYBUF	=	0xfbf0
                         0000FC18   454 _g_LINWRK	=	0xfc18
                         0000FC40   455 _g_PATWRK	=	0xfc40
                         0000FC48   456 _g_BOTTOM	=	0xfc48
                         0000FC4A   457 _g_HIMEM	=	0xfc4a
                         0000FC4C   458 _g_TRPTBL	=	0xfc4c
                         0000FC9A   459 _g_RTYCNT	=	0xfc9a
                         0000FC9B   460 _g_INTFLG	=	0xfc9b
                         0000FC9C   461 _g_PADY	=	0xfc9c
                         0000FC9D   462 _g_PADX	=	0xfc9d
                         0000FC9E   463 _g_JIFFY	=	0xfc9e
                         0000FCA0   464 _g_INTVAL	=	0xfca0
                         0000FCA2   465 _g_INTCNT	=	0xfca2
                         0000FCA4   466 _g_LOWLIM	=	0xfca4
                         0000FCA5   467 _g_WINWID	=	0xfca5
                         0000FCA6   468 _g_GRPHED	=	0xfca6
                         0000FCA7   469 _g_ESCCNT	=	0xfca7
                         0000FCA8   470 _g_INSFLG	=	0xfca8
                         0000FCA9   471 _g_CSRSW	=	0xfca9
                         0000FCAA   472 _g_CSTYLE	=	0xfcaa
                         0000FCAB   473 _g_CAPST	=	0xfcab
                         0000FCAC   474 _g_KANAST	=	0xfcac
                         0000FCAD   475 _g_KANAMD	=	0xfcad
                         0000FCAE   476 _g_FLBMEM	=	0xfcae
                         0000FCAF   477 _g_SCRMOD	=	0xfcaf
                         0000FCB0   478 _g_OLDSCR	=	0xfcb0
                         0000FCB1   479 _g_CASPRV	=	0xfcb1
                         0000FCB2   480 _g_BRDATR	=	0xfcb2
                         0000FCB3   481 _g_GXPOS	=	0xfcb3
                         0000FCB5   482 _g_GYPOS	=	0xfcb5
                         0000FCBB   483 _g_DRWFLG	=	0xfcbb
                         0000FCBC   484 _g_DRWSCL	=	0xfcbc
                         0000FCBD   485 _g_DRWANG	=	0xfcbd
                         0000FCC1   486 _g_MNROM	=	0xfcc1
                         0000FCC1   487 _g_EXPTBL	=	0xfcc1
                         0000FCC5   488 _g_SLTTBL	=	0xfcc5
                         0000FCC9   489 _g_SLTATR	=	0xfcc9
                         0000FD09   490 _g_SLTWRK	=	0xfd09
                         0000FD89   491 _g_PROCNM	=	0xfd89
                         0000FFE7   492 _g_RG08SAV	=	0xffe7
                         0000FFE8   493 _g_RG09SAV	=	0xffe8
                         0000FFE9   494 _g_RG10SAV	=	0xffe9
                         0000FFEA   495 _g_RG11SAV	=	0xffea
                         0000FFEB   496 _g_RG12SAV	=	0xffeb
                         0000FFEC   497 _g_RG13SAV	=	0xffec
                         0000FFED   498 _g_RG14SAV	=	0xffed
                         0000FFEE   499 _g_RG15SAV	=	0xffee
                         0000FFEF   500 _g_RG16SAV	=	0xffef
                         0000FFF0   501 _g_RG17SAV	=	0xfff0
                         0000FFF1   502 _g_RG18SAV	=	0xfff1
                         0000FFF2   503 _g_RG19SAV	=	0xfff2
                         0000FFF3   504 _g_RG20SAV	=	0xfff3
                         0000FFF4   505 _g_RG21SAV	=	0xfff4
                         0000FFF5   506 _g_RG22SAV	=	0xfff5
                         0000FFF6   507 _g_RG23SAV	=	0xfff6
                         0000FFF7   508 _g_MINROM	=	0xfff7
                         0000FFF8   509 _g_SVFFF8	=	0xfff8
                         0000FFFA   510 _g_RG25SAV	=	0xfffa
                         0000FFFB   511 _g_RG26SAV	=	0xfffb
                         0000FFFC   512 _g_RG27SAV	=	0xfffc
                         0000FFFD   513 _g_SVFFFD	=	0xfffd
                                    514 ;C:\Users\reina\OneDrive\Documentos\MSXgl\engine/src/game_menu.c:78: void Menu_DefaultDrawCB(u8 x, u8 y, u8 type, const void* text)
                                    515 ;	---------------------------------
                                    516 ; Function Menu_DefaultDrawCB
                                    517 ; ---------------------------------
    0000004B                        518 _Menu_DefaultDrawCB::
                                    519 ;C:\Users\reina\OneDrive\Documentos\MSXgl\engine/src/game_menu.c:83: text;
                                    520 ;C:\Users\reina\OneDrive\Documentos\MSXgl\engine/src/game_menu.c:84: }
    0000004B E1               [10]  521 	pop	hl
    0000004C F1               [10]  522 	pop	af
    0000004D 33               [ 6]  523 	inc	sp
    0000004E E9               [ 4]  524 	jp	(hl)
                                    525 ;C:\Users\reina\OneDrive\Documentos\MSXgl\engine/src/game_menu.c:88: void Menu_DefaultEventCB(u8 event)
                                    526 ;	---------------------------------
                                    527 ; Function Menu_DefaultEventCB
                                    528 ; ---------------------------------
    0000004F                        529 _Menu_DefaultEventCB::
                                    530 ;C:\Users\reina\OneDrive\Documentos\MSXgl\engine/src/game_menu.c:90: event;
                                    531 ;C:\Users\reina\OneDrive\Documentos\MSXgl\engine/src/game_menu.c:91: }
    0000004F C9               [10]  532 	ret
                                    533 ;C:\Users\reina\OneDrive\Documentos\MSXgl\engine/src/game_menu.c:101: void Menu_Initialize(const Menu* menus)
                                    534 ;	---------------------------------
                                    535 ; Function Menu_Initialize
                                    536 ; ---------------------------------
    00000050                        537 _Menu_Initialize::
    00000050 22r00r00         [16]  538 	ld	(_g_MenuTable), hl
                                    539 ;C:\Users\reina\OneDrive\Documentos\MSXgl\engine/src/game_menu.c:104: g_MenuFlag = 0;
    00000053 FD 21r0Cr00      [14]  540 	ld	iy, #_g_MenuFlag
    00000057 FD 36 00 00      [19]  541 	ld	0 (iy), #0x00
                                    542 ;C:\Users\reina\OneDrive\Documentos\MSXgl\engine/src/game_menu.c:106: g_MenuInputPrev = 0xFF;
    0000005B FD 21r0Dr00      [14]  543 	ld	iy, #_g_MenuInputPrev
    0000005F FD 36 00 FF      [19]  544 	ld	0 (iy), #0xff
                                    545 ;C:\Users\reina\OneDrive\Documentos\MSXgl\engine/src/game_menu.c:107: g_MenuInputCB = Menu_DefaultInputCB;
    00000063 FD 21r05r00      [14]  546 	ld	iy, #_g_MenuInputCB
    00000067 FD 36 00r00      [19]  547 	ld	0 (iy), #<(_Menu_DefaultInputCB)
    0000006B FD 36 01s00      [19]  548 	ld	1 (iy), #>(_Menu_DefaultInputCB)
                                    549 ;C:\Users\reina\OneDrive\Documentos\MSXgl\engine/src/game_menu.c:108: g_MenuDrawCB = Menu_DefaultDrawCB;
    0000006F FD 21r07r00      [14]  550 	ld	iy, #_g_MenuDrawCB
    00000073 FD 36 00r4B      [19]  551 	ld	0 (iy), #<(_Menu_DefaultDrawCB)
    00000077 FD 36 01s00      [19]  552 	ld	1 (iy), #>(_Menu_DefaultDrawCB)
                                    553 ;C:\Users\reina\OneDrive\Documentos\MSXgl\engine/src/game_menu.c:109: g_MenuEventCB = Menu_DefaultEventCB;
    0000007B FD 21r09r00      [14]  554 	ld	iy, #_g_MenuEventCB
    0000007F FD 36 00r4F      [19]  555 	ld	0 (iy), #<(_Menu_DefaultEventCB)
    00000083 FD 36 01s00      [19]  556 	ld	1 (iy), #>(_Menu_DefaultEventCB)
                                    557 ;C:\Users\reina\OneDrive\Documentos\MSXgl\engine/src/game_menu.c:115: }
    00000087 C9               [10]  558 	ret
                                    559 ;C:\Users\reina\OneDrive\Documentos\MSXgl\engine/src/game_menu.c:119: void Menu_DisplayItem(u8 item)
                                    560 ;	---------------------------------
                                    561 ; Function Menu_DisplayItem
                                    562 ; ---------------------------------
    00000088                        563 _Menu_DisplayItem::
    00000088 DD E5            [15]  564 	push	ix
    0000008A DD 21 00 00      [14]  565 	ld	ix,#0
    0000008E DD 39            [15]  566 	add	ix,sp
    00000090 21 F3 FF         [10]  567 	ld	hl, #-13
    00000093 39               [11]  568 	add	hl, sp
    00000094 F9               [ 6]  569 	ld	sp, hl
    00000095 DD 77 FF         [19]  570 	ld	-1 (ix), a
                                    571 ;C:\Users\reina\OneDrive\Documentos\MSXgl\engine/src/game_menu.c:121: MenuItem* pCurItem = &g_MenuPage->Items[item];
    00000098 2Ar02r00         [16]  572 	ld	hl, (_g_MenuPage)
    0000009B 23               [ 6]  573 	inc	hl
    0000009C 23               [ 6]  574 	inc	hl
    0000009D 4E               [ 7]  575 	ld	c, (hl)
    0000009E 23               [ 6]  576 	inc	hl
    0000009F 46               [ 7]  577 	ld	b, (hl)
    000000A0 DD 5E FF         [19]  578 	ld	e, -1 (ix)
    000000A3 16 00            [ 7]  579 	ld	d, #0x00
    000000A5 6B               [ 4]  580 	ld	l, e
    000000A6 62               [ 4]  581 	ld	h, d
    000000A7 29               [11]  582 	add	hl, hl
    000000A8 19               [11]  583 	add	hl, de
    000000A9 29               [11]  584 	add	hl, hl
    000000AA 19               [11]  585 	add	hl, de
    000000AB 09               [11]  586 	add	hl, bc
    000000AC E3               [19]  587 	ex	(sp), hl
                                    588 ;C:\Users\reina\OneDrive\Documentos\MSXgl\engine/src/game_menu.c:122: u8 type = pCurItem->Type & MENU_ITEM_MASK;
    000000AD DD 7E F3         [19]  589 	ld	a, -13 (ix)
    000000B0 C6 02            [ 7]  590 	add	a, #0x02
    000000B2 DD 77 F5         [19]  591 	ld	-11 (ix), a
    000000B5 DD 7E F4         [19]  592 	ld	a, -12 (ix)
    000000B8 CE 00            [ 7]  593 	adc	a, #0x00
    000000BA DD 77 F6         [19]  594 	ld	-10 (ix), a
    000000BD DD 6E F5         [19]  595 	ld	l, -11 (ix)
    000000C0 DD 66 F6         [19]  596 	ld	h, -10 (ix)
    000000C3 7E               [ 7]  597 	ld	a, (hl)
    000000C4 E6 0F            [ 7]  598 	and	a, #0x0f
                                    599 ;C:\Users\reina\OneDrive\Documentos\MSXgl\engine/src/game_menu.c:123: if(type >= MENU_ITEM_EMPTY)
    000000C6 DD 77 F7         [19]  600 	ld	-9 (ix), a
    000000C9 D6 05            [ 7]  601 	sub	a, #0x05
                                    602 ;C:\Users\reina\OneDrive\Documentos\MSXgl\engine/src/game_menu.c:124: return;
    000000CB D2rBFr02         [10]  603 	jp	NC,00152$
                                    604 ;C:\Users\reina\OneDrive\Documentos\MSXgl\engine/src/game_menu.c:127: u8 y = MENU_ITEM_Y + item;
    000000CE DD 7E FF         [19]  605 	ld	a, -1 (ix)
    000000D1 C6 08            [ 7]  606 	add	a, #0x08
    000000D3 DD 77 F8         [19]  607 	ld	-8 (ix), a
                                    608 ;C:\Users\reina\OneDrive\Documentos\MSXgl\engine/src/game_menu.c:129: u16 dst = g_ScreenLayoutLow + MENU_FRAME_X + (y * MENU_GET_SCREEN_WIDTH());
    000000D6 3Ar0Er00         [13]  609 	ld	a, (#_g_MenuScrWidth + 0)
    000000D9 5F               [ 4]  610 	ld	e, a
    000000DA DD 66 F8         [19]  611 	ld	h, -8 (ix)
                                    612 ;	spillPairReg hl
                                    613 ;	spillPairReg hl
    000000DD 2E 00            [ 7]  614 	ld	l, #0x00
    000000DF 55               [ 4]  615 	ld	d, l
    000000E0 06 08            [ 7]  616 	ld	b, #0x08
    000000E2                        617 00268$:
    000000E2 29               [11]  618 	add	hl, hl
    000000E3 30 01            [12]  619 	jr	NC, 00269$
    000000E5 19               [11]  620 	add	hl, de
    000000E6                        621 00269$:
    000000E6 10 FA            [13]  622 	djnz	00268$
    000000E8 DD 75 FD         [19]  623 	ld	-3 (ix), l
    000000EB DD 74 FE         [19]  624 	ld	-2 (ix), h
    000000EE 2Ar00r00         [16]  625 	ld	hl, (_g_ScreenLayoutLow)
    000000F1 DD 75 F9         [19]  626 	ld	-7 (ix), l
    000000F4 DD 74 FA         [19]  627 	ld	-6 (ix), h
    000000F7 DD 7E FD         [19]  628 	ld	a, -3 (ix)
    000000FA DD 77 FB         [19]  629 	ld	-5 (ix), a
    000000FD DD 7E FE         [19]  630 	ld	a, -2 (ix)
    00000100 DD 77 FC         [19]  631 	ld	-4 (ix), a
    00000103 DD 7E F9         [19]  632 	ld	a, -7 (ix)
    00000106 DD 86 FB         [19]  633 	add	a, -5 (ix)
    00000109 DD 77 FD         [19]  634 	ld	-3 (ix), a
    0000010C DD 7E FA         [19]  635 	ld	a, -6 (ix)
    0000010F DD 8E FC         [19]  636 	adc	a, -4 (ix)
    00000112 DD 77 FE         [19]  637 	ld	-2 (ix), a
                                    638 ;C:\Users\reina\OneDrive\Documentos\MSXgl\engine/src/game_menu.c:130: VDP_FillVRAM(MENU_CHAR_CLEAR, dst, g_ScreenLayoutHigh, MENU_FRAME_WIDTH);
    00000115 21 20 00         [10]  639 	ld	hl, #0x0020
    00000118 E5               [11]  640 	push	hl
    00000119 DD 5E FD         [19]  641 	ld	e, -3 (ix)
    0000011C DD 56 FE         [19]  642 	ld	d, -2 (ix)
    0000011F AF               [ 4]  643 	xor	a, a
    00000120 CDr00r00         [17]  644 	call	_VDP_FillVRAM_16K
                                    645 ;C:\Users\reina\OneDrive\Documentos\MSXgl\engine/src/game_menu.c:134: if(type == MENU_ITEM_GOTO)
    00000123 DD 7E F7         [19]  646 	ld	a, -9 (ix)
    00000126 3D               [ 4]  647 	dec	a
    00000127 3E 01            [ 7]  648 	ld	a, #0x01
    00000129 28 01            [12]  649 	jr	Z, 00271$
    0000012B AF               [ 4]  650 	xor	a, a
    0000012C                        651 00271$:
    0000012C 4F               [ 4]  652 	ld	c, a
    0000012D B7               [ 4]  653 	or	a, a
    0000012E 28 07            [12]  654 	jr	Z, 00104$
                                    655 ;C:\Users\reina\OneDrive\Documentos\MSXgl\engine/src/game_menu.c:135: x = MENU_ITEM_X_GOTO;
    00000130 DD 36 FE 06      [19]  656 	ld	-2 (ix), #0x06
    00000134 C3r3Br01         [10]  657 	jp	00105$
    00000137                        658 00104$:
                                    659 ;C:\Users\reina\OneDrive\Documentos\MSXgl\engine/src/game_menu.c:137: x = MENU_ITEM_X;
    00000137 DD 36 FE 06      [19]  660 	ld	-2 (ix), #0x06
    0000013B                        661 00105$:
                                    662 ;C:\Users\reina\OneDrive\Documentos\MSXgl\engine/src/game_menu.c:138: if(type == MENU_ITEM_TEXT)
    0000013B DD 7E F7         [19]  663 	ld	a, -9 (ix)
    0000013E D6 04            [ 7]  664 	sub	a, #0x04
    00000140 20 0E            [12]  665 	jr	NZ, 00107$
                                    666 ;C:\Users\reina\OneDrive\Documentos\MSXgl\engine/src/game_menu.c:139: x += pCurItem->Value;
    00000142 D1               [10]  667 	pop	de
    00000143 D5               [11]  668 	push	de
    00000144 21 05 00         [10]  669 	ld	hl, #5
    00000147 19               [11]  670 	add	hl, de
    00000148 7E               [ 7]  671 	ld	a, (hl)
    00000149 DD 46 FE         [19]  672 	ld	b, -2 (ix)
    0000014C 80               [ 4]  673 	add	a, b
    0000014D DD 77 FE         [19]  674 	ld	-2 (ix), a
    00000150                        675 00107$:
                                    676 ;C:\Users\reina\OneDrive\Documentos\MSXgl\engine/src/game_menu.c:141: u8 align = pCurItem->Type & MENU_ITEM_ALIGN_MASK;
    00000150 DD 6E F5         [19]  677 	ld	l, -11 (ix)
    00000153 DD 66 F6         [19]  678 	ld	h, -10 (ix)
    00000156 7E               [ 7]  679 	ld	a, (hl)
    00000157 E6 30            [ 7]  680 	and	a, #0x30
                                    681 ;C:\Users\reina\OneDrive\Documentos\MSXgl\engine/src/game_menu.c:142: if(align == MENU_ITEM_ALIGN_DEFAULT)
    00000159 DD 77 FD         [19]  682 	ld	-3 (ix), a
                                    683 ;C:\Users\reina\OneDrive\Documentos\MSXgl\engine/src/game_menu.c:144: if(type == MENU_ITEM_GOTO)
    0000015C B7               [ 4]  684 	or	a,a
    0000015D 20 0E            [12]  685 	jr	NZ, 00112$
    0000015F B1               [ 4]  686 	or	a,c
    00000160 28 07            [12]  687 	jr	Z, 00109$
                                    688 ;C:\Users\reina\OneDrive\Documentos\MSXgl\engine/src/game_menu.c:145: align = MENU_ITEM_ALIGN_GOTO;
    00000162 DD 36 FD 10      [19]  689 	ld	-3 (ix), #0x10
    00000166 C3r6Dr01         [10]  690 	jp	00112$
    00000169                        691 00109$:
                                    692 ;C:\Users\reina\OneDrive\Documentos\MSXgl\engine/src/game_menu.c:147: align = MENU_ITEM_ALIGN;
    00000169 DD 36 FD 10      [19]  693 	ld	-3 (ix), #0x10
    0000016D                        694 00112$:
                                    695 ;C:\Users\reina\OneDrive\Documentos\MSXgl\engine/src/game_menu.c:150: if(align != MENU_ITEM_ALIGN_LEFT)
    0000016D DD 7E FD         [19]  696 	ld	a, -3 (ix)
    00000170 D6 10            [ 7]  697 	sub	a, #0x10
    00000172 28 36            [12]  698 	jr	Z, 00117$
                                    699 ;C:\Users\reina\OneDrive\Documentos\MSXgl\engine/src/game_menu.c:152: u8 len = String_Length(pCurItem->Text);
    00000174 E1               [10]  700 	pop	hl
    00000175 E5               [11]  701 	push	hl
    00000176 4E               [ 7]  702 	ld	c, (hl)
    00000177 23               [ 6]  703 	inc	hl
    00000178 46               [ 7]  704 	ld	b, (hl)
    00000179 1E 00            [ 7]  705 	ld	e, #0x00
    0000017B                        706 00141$:
    0000017B 0A               [ 7]  707 	ld	a, (bc)
    0000017C 03               [ 6]  708 	inc	bc
    0000017D B7               [ 4]  709 	or	a, a
    0000017E 28 04            [12]  710 	jr	Z, 00143$
    00000180 1C               [ 4]  711 	inc	e
    00000181 C3r7Br01         [10]  712 	jp	00141$
    00000184                        713 00143$:
                                    714 ;C:\Users\reina\OneDrive\Documentos\MSXgl\engine/src/game_menu.c:153: if(align == MENU_ITEM_ALIGN_RIGHT)
    00000184 DD 7E FD         [19]  715 	ld	a, -3 (ix)
    00000187 D6 30            [ 7]  716 	sub	a, #0x30
    00000189 20 0A            [12]  717 	jr	NZ, 00114$
                                    718 ;C:\Users\reina\OneDrive\Documentos\MSXgl\engine/src/game_menu.c:154: x -= len;
    0000018B DD 7E FE         [19]  719 	ld	a, -2 (ix)
    0000018E 93               [ 4]  720 	sub	a, e
    0000018F DD 77 FE         [19]  721 	ld	-2 (ix), a
    00000192 C3rAAr01         [10]  722 	jp	00117$
    00000195                        723 00114$:
                                    724 ;C:\Users\reina\OneDrive\Documentos\MSXgl\engine/src/game_menu.c:156: x -= len / 2;
    00000195 16 00            [ 7]  725 	ld	d, #0x00
    00000197 6B               [ 4]  726 	ld	l, e
                                    727 ;	spillPairReg hl
                                    728 ;	spillPairReg hl
    00000198 62               [ 4]  729 	ld	h, d
                                    730 ;	spillPairReg hl
                                    731 ;	spillPairReg hl
    00000199 CB 7A            [ 8]  732 	bit	7, d
    0000019B 28 02            [12]  733 	jr	Z, 00154$
    0000019D EB               [ 4]  734 	ex	de, hl
    0000019E 23               [ 6]  735 	inc	hl
    0000019F                        736 00154$:
    0000019F CB 2C            [ 8]  737 	sra	h
    000001A1 CB 1D            [ 8]  738 	rr	l
    000001A3 DD 7E FE         [19]  739 	ld	a, -2 (ix)
    000001A6 95               [ 4]  740 	sub	a, l
    000001A7 DD 77 FE         [19]  741 	ld	-2 (ix), a
    000001AA                        742 00117$:
                                    743 ;C:\Users\reina\OneDrive\Documentos\MSXgl\engine/src/game_menu.c:161: if(g_MenuItem == item)
    000001AA 3Ar04r00         [13]  744 	ld	a, (_g_MenuItem+0)
    000001AD DD 96 FF         [19]  745 	sub	a, -1 (ix)
    000001B0 20 15            [12]  746 	jr	NZ, 00119$
                                    747 ;C:\Users\reina\OneDrive\Documentos\MSXgl\engine/src/game_menu.c:163: Print_SetPosition(x + MENU_CURSOR_OFFSET, y);
    000001B2 DD 7E FE         [19]  748 	ld	a, -2 (ix)
    000001B5 3D               [ 4]  749 	dec	a
    000001B6 4F               [ 4]  750 	ld	c, a
                                    751 ;C:\Users\reina\OneDrive\Documentos\MSXgl\engine/src/print.h:223: g_PrintData.CursorX = x;
    000001B7 21r05r00         [10]  752 	ld	hl, #(_g_PrintData + 5)
    000001BA 71               [ 7]  753 	ld	(hl), c
                                    754 ;C:\Users\reina\OneDrive\Documentos\MSXgl\engine/src/print.h:224: g_PrintData.CursorY = y;
    000001BB 21r06r00         [10]  755 	ld	hl, #(_g_PrintData + 6)
    000001BE DD 7E F8         [19]  756 	ld	a, -8 (ix)
    000001C1 77               [ 7]  757 	ld	(hl), a
                                    758 ;C:\Users\reina\OneDrive\Documentos\MSXgl\engine/src/game_menu.c:164: Print_DrawChar(MENU_CHAR_CURSOR);
    000001C2 3E CF            [ 7]  759 	ld	a, #0xcf
    000001C4 CDr00r00         [17]  760 	call	_Print_DrawChar
    000001C7                        761 00119$:
                                    762 ;C:\Users\reina\OneDrive\Documentos\MSXgl\engine/src/game_menu.c:169: Print_DrawTextAt(x, y, pCurItem->Text);
    000001C7 E1               [10]  763 	pop	hl
    000001C8 E5               [11]  764 	push	hl
    000001C9 4E               [ 7]  765 	ld	c, (hl)
    000001CA 23               [ 6]  766 	inc	hl
    000001CB 46               [ 7]  767 	ld	b, (hl)
                                    768 ;C:\Users\reina\OneDrive\Documentos\MSXgl\engine/src/print.h:223: g_PrintData.CursorX = x;
    000001CC 11r05r00         [10]  769 	ld	de, #_g_PrintData + 5
    000001CF DD 7E FE         [19]  770 	ld	a, -2 (ix)
    000001D2 12               [ 7]  771 	ld	(de), a
                                    772 ;C:\Users\reina\OneDrive\Documentos\MSXgl\engine/src/print.h:224: g_PrintData.CursorY = y;
    000001D3 21r06r00         [10]  773 	ld	hl, #(_g_PrintData + 6)
    000001D6 DD 7E F8         [19]  774 	ld	a, -8 (ix)
    000001D9 77               [ 7]  775 	ld	(hl), a
                                    776 ;C:\Users\reina\OneDrive\Documentos\MSXgl\engine/src/print.h:491: Print_DrawText(str);
    000001DA D5               [11]  777 	push	de
    000001DB 69               [ 4]  778 	ld	l, c
                                    779 ;	spillPairReg hl
                                    780 ;	spillPairReg hl
    000001DC 60               [ 4]  781 	ld	h, b
                                    782 ;	spillPairReg hl
                                    783 ;	spillPairReg hl
    000001DD CDr00r00         [17]  784 	call	_Print_DrawText
    000001E0 D1               [10]  785 	pop	de
                                    786 ;C:\Users\reina\OneDrive\Documentos\MSXgl\engine/src/print.h:223: g_PrintData.CursorX = x;
    000001E1 3E 0E            [ 7]  787 	ld	a, #0x0e
    000001E3 12               [ 7]  788 	ld	(de), a
                                    789 ;C:\Users\reina\OneDrive\Documentos\MSXgl\engine/src/print.h:224: g_PrintData.CursorY = y;
    000001E4 21r06r00         [10]  790 	ld	hl, #(_g_PrintData + 6)
    000001E7 DD 7E F8         [19]  791 	ld	a, -8 (ix)
    000001EA 77               [ 7]  792 	ld	(hl), a
                                    793 ;C:\Users\reina\OneDrive\Documentos\MSXgl\engine/src/game_menu.c:173: switch(type)
    000001EB DD 7E F7         [19]  794 	ld	a, -9 (ix)
    000001EE B7               [ 4]  795 	or	a, a
    000001EF 28 12            [12]  796 	jr	Z, 00120$
    000001F1 DD 7E F7         [19]  797 	ld	a, -9 (ix)
    000001F4 D6 02            [ 7]  798 	sub	a, #0x02
    000001F6 28 57            [12]  799 	jr	Z, 00128$
    000001F8 DD 7E F7         [19]  800 	ld	a, -9 (ix)
    000001FB D6 03            [ 7]  801 	sub	a, #0x03
    000001FD CAr84r02         [10]  802 	jp	Z,00134$
    00000200 C3rBFr02         [10]  803 	jp	00152$
                                    804 ;C:\Users\reina\OneDrive\Documentos\MSXgl\engine/src/game_menu.c:175: case MENU_ITEM_ACTION:
    00000203                        805 00120$:
                                    806 ;C:\Users\reina\OneDrive\Documentos\MSXgl\engine/src/game_menu.c:177: Menu_ActionCB cb = (Menu_ActionCB)pCurItem->Action;
    00000203 E1               [10]  807 	pop	hl
    00000204 E5               [11]  808 	push	hl
    00000205 23               [ 6]  809 	inc	hl
    00000206 23               [ 6]  810 	inc	hl
    00000207 23               [ 6]  811 	inc	hl
    00000208 4E               [ 7]  812 	ld	c, (hl)
    00000209 23               [ 6]  813 	inc	hl
    0000020A 46               [ 7]  814 	ld	b, (hl)
                                    815 ;C:\Users\reina\OneDrive\Documentos\MSXgl\engine/src/game_menu.c:178: const c8* str = cb(MENU_ACTION_GET, pCurItem->Value);
    0000020B E1               [10]  816 	pop	hl
    0000020C E5               [11]  817 	push	hl
    0000020D 23               [ 6]  818 	inc	hl
    0000020E 23               [ 6]  819 	inc	hl
    0000020F 23               [ 6]  820 	inc	hl
    00000210 23               [ 6]  821 	inc	hl
    00000211 23               [ 6]  822 	inc	hl
    00000212 6E               [ 7]  823 	ld	l, (hl)
                                    824 ;	spillPairReg hl
    00000213 D5               [11]  825 	push	de
    00000214 3E 01            [ 7]  826 	ld	a, #0x01
    00000216 C5               [11]  827 	push	bc
    00000217 FD E1            [14]  828 	pop	iy
    00000219 CDr00r00         [17]  829 	call	___sdcc_call_iy
    0000021C EB               [ 4]  830 	ex	de, hl
    0000021D D1               [10]  831 	pop	de
    0000021E 4D               [ 4]  832 	ld	c, l
                                    833 ;C:\Users\reina\OneDrive\Documentos\MSXgl\engine/src/game_menu.c:179: if(str)
    0000021F 7C               [ 4]  834 	ld	a,h
    00000220 47               [ 4]  835 	ld	b,a
    00000221 B5               [ 4]  836 	or	a, l
    00000222 CArBFr02         [10]  837 	jp	Z, 00152$
                                    838 ;C:\Users\reina\OneDrive\Documentos\MSXgl\engine/src/game_menu.c:181: if(g_MenuItem == item)
    00000225 3Ar04r00         [13]  839 	ld	a, (_g_MenuItem+0)
    00000228 DD 96 FF         [19]  840 	sub	a, -1 (ix)
    0000022B 20 0A            [12]  841 	jr	NZ, 00122$
                                    842 ;C:\Users\reina\OneDrive\Documentos\MSXgl\engine/src/game_menu.c:182: Print_DrawChar(MENU_CHAR_LEFT);
    0000022D C5               [11]  843 	push	bc
    0000022E 3E 3C            [ 7]  844 	ld	a, #0x3c
    00000230 CDr00r00         [17]  845 	call	_Print_DrawChar
    00000233 C1               [10]  846 	pop	bc
    00000234 C3r3Ar02         [10]  847 	jp	00123$
    00000237                        848 00122$:
                                    849 ;C:\Users\reina\OneDrive\Documentos\MSXgl\engine/src/print.h:422: inline void Print_Space() { g_PrintData.CursorX += PRINT_W(g_PrintData.UnitX); }
    00000237 1A               [ 7]  850 	ld	a, (de)
    00000238 3C               [ 4]  851 	inc	a
    00000239 12               [ 7]  852 	ld	(de), a
                                    853 ;C:\Users\reina\OneDrive\Documentos\MSXgl\engine/src/game_menu.c:184: Print_Space();
    0000023A                        854 00123$:
                                    855 ;C:\Users\reina\OneDrive\Documentos\MSXgl\engine/src/game_menu.c:185: Print_DrawText(str);
    0000023A 69               [ 4]  856 	ld	l, c
                                    857 ;	spillPairReg hl
                                    858 ;	spillPairReg hl
    0000023B 60               [ 4]  859 	ld	h, b
                                    860 ;	spillPairReg hl
                                    861 ;	spillPairReg hl
    0000023C CDr00r00         [17]  862 	call	_Print_DrawText
                                    863 ;C:\Users\reina\OneDrive\Documentos\MSXgl\engine/src/game_menu.c:186: if(g_MenuItem == item)
    0000023F 3Ar04r00         [13]  864 	ld	a, (_g_MenuItem+0)
    00000242 DD 96 FF         [19]  865 	sub	a, -1 (ix)
    00000245 20 78            [12]  866 	jr	NZ, 00152$
                                    867 ;C:\Users\reina\OneDrive\Documentos\MSXgl\engine/src/game_menu.c:187: Print_DrawChar(MENU_CHAR_RIGHT);
    00000247 3E 3E            [ 7]  868 	ld	a, #0x3e
    00000249 CDr00r00         [17]  869 	call	_Print_DrawChar
                                    870 ;C:\Users\reina\OneDrive\Documentos\MSXgl\engine/src/game_menu.c:189: break;
    0000024C C3rBFr02         [10]  871 	jp	00152$
                                    872 ;C:\Users\reina\OneDrive\Documentos\MSXgl\engine/src/game_menu.c:191: case MENU_ITEM_INT:
    0000024F                        873 00128$:
                                    874 ;C:\Users\reina\OneDrive\Documentos\MSXgl\engine/src/game_menu.c:193: if(g_MenuItem == item)
    0000024F 3Ar04r00         [13]  875 	ld	a, (_g_MenuItem+0)
    00000252 DD 96 FF         [19]  876 	sub	a, -1 (ix)
    00000255 20 08            [12]  877 	jr	NZ, 00130$
                                    878 ;C:\Users\reina\OneDrive\Documentos\MSXgl\engine/src/game_menu.c:194: Print_DrawChar(MENU_CHAR_LEFT);
    00000257 3E 3C            [ 7]  879 	ld	a, #0x3c
    00000259 CDr00r00         [17]  880 	call	_Print_DrawChar
    0000025C C3r62r02         [10]  881 	jp	00131$
    0000025F                        882 00130$:
                                    883 ;C:\Users\reina\OneDrive\Documentos\MSXgl\engine/src/print.h:422: inline void Print_Space() { g_PrintData.CursorX += PRINT_W(g_PrintData.UnitX); }
    0000025F 1A               [ 7]  884 	ld	a, (de)
    00000260 3C               [ 4]  885 	inc	a
    00000261 12               [ 7]  886 	ld	(de), a
                                    887 ;C:\Users\reina\OneDrive\Documentos\MSXgl\engine/src/game_menu.c:196: Print_Space();
    00000262                        888 00131$:
                                    889 ;C:\Users\reina\OneDrive\Documentos\MSXgl\engine/src/game_menu.c:197: i8* data = (i8*)pCurItem->Action;
    00000262 E1               [10]  890 	pop	hl
    00000263 E5               [11]  891 	push	hl
    00000264 23               [ 6]  892 	inc	hl
    00000265 23               [ 6]  893 	inc	hl
    00000266 23               [ 6]  894 	inc	hl
    00000267 4E               [ 7]  895 	ld	c, (hl)
    00000268 23               [ 6]  896 	inc	hl
    00000269 46               [ 7]  897 	ld	b, (hl)
                                    898 ;C:\Users\reina\OneDrive\Documentos\MSXgl\engine/src/game_menu.c:198: Print_DrawInt(*data);
    0000026A 0A               [ 7]  899 	ld	a, (bc)
    0000026B 5F               [ 4]  900 	ld	e, a
    0000026C 07               [ 4]  901 	rlca
    0000026D 9F               [ 4]  902 	sbc	a, a
    0000026E 57               [ 4]  903 	ld	d, a
    0000026F 6F               [ 4]  904 	ld	l, a
                                    905 ;	spillPairReg hl
                                    906 ;	spillPairReg hl
    00000270 67               [ 4]  907 	ld	h, a
                                    908 ;	spillPairReg hl
                                    909 ;	spillPairReg hl
    00000271 CDr00r00         [17]  910 	call	_Print_DrawInt
                                    911 ;C:\Users\reina\OneDrive\Documentos\MSXgl\engine/src/game_menu.c:199: if(g_MenuItem == item)
    00000274 3Ar04r00         [13]  912 	ld	a, (_g_MenuItem+0)
    00000277 DD 96 FF         [19]  913 	sub	a, -1 (ix)
    0000027A 20 43            [12]  914 	jr	NZ, 00152$
                                    915 ;C:\Users\reina\OneDrive\Documentos\MSXgl\engine/src/game_menu.c:200: Print_DrawChar(MENU_CHAR_RIGHT);
    0000027C 3E 3E            [ 7]  916 	ld	a, #0x3e
    0000027E CDr00r00         [17]  917 	call	_Print_DrawChar
                                    918 ;C:\Users\reina\OneDrive\Documentos\MSXgl\engine/src/game_menu.c:201: break;
    00000281 C3rBFr02         [10]  919 	jp	00152$
                                    920 ;C:\Users\reina\OneDrive\Documentos\MSXgl\engine/src/game_menu.c:203: case MENU_ITEM_BOOL:
    00000284                        921 00134$:
                                    922 ;C:\Users\reina\OneDrive\Documentos\MSXgl\engine/src/game_menu.c:205: u8* data = (u8*)pCurItem->Action;
    00000284 E1               [10]  923 	pop	hl
    00000285 E5               [11]  924 	push	hl
    00000286 23               [ 6]  925 	inc	hl
    00000287 23               [ 6]  926 	inc	hl
    00000288 23               [ 6]  927 	inc	hl
    00000289 4E               [ 7]  928 	ld	c, (hl)
    0000028A 23               [ 6]  929 	inc	hl
    0000028B 46               [ 7]  930 	ld	b, (hl)
                                    931 ;C:\Users\reina\OneDrive\Documentos\MSXgl\engine/src/game_menu.c:206: if(g_MenuItem == item)
    0000028C 3Ar04r00         [13]  932 	ld	a, (_g_MenuItem+0)
    0000028F DD 96 FF         [19]  933 	sub	a, -1 (ix)
    00000292 20 0A            [12]  934 	jr	NZ, 00136$
                                    935 ;C:\Users\reina\OneDrive\Documentos\MSXgl\engine/src/game_menu.c:207: Print_DrawChar(MENU_CHAR_LEFT);
    00000294 C5               [11]  936 	push	bc
    00000295 3E 3C            [ 7]  937 	ld	a, #0x3c
    00000297 CDr00r00         [17]  938 	call	_Print_DrawChar
    0000029A C1               [10]  939 	pop	bc
    0000029B C3rA1r02         [10]  940 	jp	00137$
    0000029E                        941 00136$:
                                    942 ;C:\Users\reina\OneDrive\Documentos\MSXgl\engine/src/print.h:422: inline void Print_Space() { g_PrintData.CursorX += PRINT_W(g_PrintData.UnitX); }
    0000029E 1A               [ 7]  943 	ld	a, (de)
    0000029F 3C               [ 4]  944 	inc	a
    000002A0 12               [ 7]  945 	ld	(de), a
                                    946 ;C:\Users\reina\OneDrive\Documentos\MSXgl\engine/src/game_menu.c:209: Print_Space();
    000002A1                        947 00137$:
                                    948 ;C:\Users\reina\OneDrive\Documentos\MSXgl\engine/src/game_menu.c:210: Print_DrawChar(*data ? MENU_CHAR_TRUE : MENU_CHAR_FALSE);
    000002A1 0A               [ 7]  949 	ld	a, (bc)
    000002A2 B7               [ 4]  950 	or	a, a
    000002A3 28 06            [12]  951 	jr	Z, 00155$
    000002A5 01 4F 00         [10]  952 	ld	bc, #0x004f
    000002A8 C3rAEr02         [10]  953 	jp	00156$
    000002AB                        954 00155$:
    000002AB 01 58 00         [10]  955 	ld	bc, #0x0058
    000002AE                        956 00156$:
    000002AE 79               [ 4]  957 	ld	a, c
    000002AF CDr00r00         [17]  958 	call	_Print_DrawChar
                                    959 ;C:\Users\reina\OneDrive\Documentos\MSXgl\engine/src/game_menu.c:211: if(g_MenuItem == item)
    000002B2 3Ar04r00         [13]  960 	ld	a, (_g_MenuItem+0)
    000002B5 DD 96 FF         [19]  961 	sub	a, -1 (ix)
    000002B8 20 05            [12]  962 	jr	NZ, 00152$
                                    963 ;C:\Users\reina\OneDrive\Documentos\MSXgl\engine/src/game_menu.c:212: Print_DrawChar(MENU_CHAR_RIGHT);
    000002BA 3E 3E            [ 7]  964 	ld	a, #0x3e
    000002BC CDr00r00         [17]  965 	call	_Print_DrawChar
                                    966 ;C:\Users\reina\OneDrive\Documentos\MSXgl\engine/src/game_menu.c:215: };
    000002BF                        967 00152$:
                                    968 ;C:\Users\reina\OneDrive\Documentos\MSXgl\engine/src/game_menu.c:216: }
    000002BF DD F9            [10]  969 	ld	sp, ix
    000002C1 DD E1            [14]  970 	pop	ix
    000002C3 C9               [10]  971 	ret
                                    972 ;C:\Users\reina\OneDrive\Documentos\MSXgl\engine/src/game_menu.c:220: void Menu_DrawPage(u8 page)
                                    973 ;	---------------------------------
                                    974 ; Function Menu_DrawPage
                                    975 ; ---------------------------------
    000002C4                        976 _Menu_DrawPage::
    000002C4 DD E5            [15]  977 	push	ix
    000002C6 DD 21 00 00      [14]  978 	ld	ix,#0
    000002CA DD 39            [15]  979 	add	ix,sp
    000002CC F5               [11]  980 	push	af
    000002CD 3B               [ 6]  981 	dec	sp
    000002CE 4F               [ 4]  982 	ld	c, a
                                    983 ;C:\Users\reina\OneDrive\Documentos\MSXgl\engine/src/game_menu.c:223: g_MenuPageIdx = page;
    000002CF 21r0Br00         [10]  984 	ld	hl, #_g_MenuPageIdx
    000002D2 71               [ 7]  985 	ld	(hl), c
                                    986 ;C:\Users\reina\OneDrive\Documentos\MSXgl\engine/src/game_menu.c:224: g_MenuPage = &g_MenuTable[page];
    000002D3 06 00            [ 7]  987 	ld	b, #0x00
    000002D5 69               [ 4]  988 	ld	l, c
    000002D6 60               [ 4]  989 	ld	h, b
    000002D7 29               [11]  990 	add	hl, hl
    000002D8 09               [11]  991 	add	hl, bc
    000002D9 29               [11]  992 	add	hl, hl
    000002DA 09               [11]  993 	add	hl, bc
    000002DB EB               [ 4]  994 	ex	de, hl
    000002DC 21r02r00         [10]  995 	ld	hl, #_g_MenuPage
    000002DF 3Ar00r00         [13]  996 	ld	a, (_g_MenuTable+0)
    000002E2 83               [ 4]  997 	add	a, e
    000002E3 77               [ 7]  998 	ld	(hl), a
    000002E4 23               [ 6]  999 	inc	hl
    000002E5 3Ar01r00         [13] 1000 	ld	a, (_g_MenuTable+1)
    000002E8 8A               [ 4] 1001 	adc	a, d
    000002E9 77               [ 7] 1002 	ld	(hl), a
                                   1003 ;C:\Users\reina\OneDrive\Documentos\MSXgl\engine/src/game_menu.c:226: if(g_MenuPage->Callback)
    000002EA FD 2Ar02r00      [20] 1004 	ld	iy, (_g_MenuPage)
    000002EE FD 6E 05         [19] 1005 	ld	l, 5 (iy)
                                   1006 ;	spillPairReg hl
    000002F1 FD 66 06         [19] 1007 	ld	h, 6 (iy)
                                   1008 ;	spillPairReg hl
    000002F4 7C               [ 4] 1009 	ld	a, h
    000002F5 B5               [ 4] 1010 	or	a, l
    000002F6 28 03            [12] 1011 	jr	Z, 00102$
                                   1012 ;C:\Users\reina\OneDrive\Documentos\MSXgl\engine/src/game_menu.c:227: g_MenuPage->Callback();
    000002F8 CDr00r00         [17] 1013 	call	___sdcc_call_hl
    000002FB                       1014 00102$:
                                   1015 ;C:\Users\reina\OneDrive\Documentos\MSXgl\engine/src/game_menu.c:229: g_MenuItem = 0;
    000002FB AF               [ 4] 1016 	xor	a, a
    000002FC 32r04r00         [13] 1017 	ld	(#_g_MenuItem), a
                                   1018 ;C:\Users\reina\OneDrive\Documentos\MSXgl\engine/src/game_menu.c:230: while(g_MenuItem < g_MenuPage->ItemNum)
    000002FF                       1019 00105$:
                                   1020 ;C:\Users\reina\OneDrive\Documentos\MSXgl\engine/src/game_menu.c:226: if(g_MenuPage->Callback)
    000002FF ED 5Br02r00      [20] 1021 	ld	de, (_g_MenuPage)
                                   1022 ;C:\Users\reina\OneDrive\Documentos\MSXgl\engine/src/game_menu.c:230: while(g_MenuItem < g_MenuPage->ItemNum)
    00000303 D5               [11] 1023 	push	de
    00000304 FD E1            [14] 1024 	pop	iy
    00000306 FD 4E 04         [19] 1025 	ld	c, 4 (iy)
    00000309 3Ar04r00         [13] 1026 	ld	a, (_g_MenuItem+0)
    0000030C 91               [ 4] 1027 	sub	a, c
    0000030D 30 24            [12] 1028 	jr	NC, 00107$
                                   1029 ;C:\Users\reina\OneDrive\Documentos\MSXgl\engine/src/game_menu.c:232: if(g_MenuPage->Items[g_MenuItem].Type < MENU_ITEM_TEXT)
    0000030F EB               [ 4] 1030 	ex	de, hl
    00000310 23               [ 6] 1031 	inc	hl
    00000311 23               [ 6] 1032 	inc	hl
    00000312 4E               [ 7] 1033 	ld	c, (hl)
    00000313 23               [ 6] 1034 	inc	hl
    00000314 46               [ 7] 1035 	ld	b, (hl)
    00000315 ED 5Br04r00      [20] 1036 	ld	de, (_g_MenuItem)
    00000319 16 00            [ 7] 1037 	ld	d, #0x00
    0000031B 6B               [ 4] 1038 	ld	l, e
    0000031C 62               [ 4] 1039 	ld	h, d
    0000031D 29               [11] 1040 	add	hl, hl
    0000031E 19               [11] 1041 	add	hl, de
    0000031F 29               [11] 1042 	add	hl, hl
    00000320 19               [11] 1043 	add	hl, de
    00000321 09               [11] 1044 	add	hl, bc
    00000322 23               [ 6] 1045 	inc	hl
    00000323 23               [ 6] 1046 	inc	hl
    00000324 7E               [ 7] 1047 	ld	a, (hl)
    00000325 D6 04            [ 7] 1048 	sub	a, #0x04
    00000327 38 0A            [12] 1049 	jr	C, 00107$
                                   1050 ;C:\Users\reina\OneDrive\Documentos\MSXgl\engine/src/game_menu.c:234: g_MenuItem++;
    00000329 FD 21r04r00      [14] 1051 	ld	iy, #_g_MenuItem
    0000032D FD 34 00         [23] 1052 	inc	0 (iy)
    00000330 C3rFFr02         [10] 1053 	jp	00105$
    00000333                       1054 00107$:
                                   1055 ;C:\Users\reina\OneDrive\Documentos\MSXgl\engine/src/game_menu.c:238: u16 dst = g_ScreenLayoutLow + MENU_FRAME_X + (MENU_FRAME_Y * MENU_GET_SCREEN_WIDTH());
    00000333 3Ar0Er00         [13] 1056 	ld	a, (_g_MenuScrWidth+0)
    00000336 4F               [ 4] 1057 	ld	c, a
    00000337 06 00            [ 7] 1058 	ld	b, #0x00
    00000339 69               [ 4] 1059 	ld	l, c
    0000033A 60               [ 4] 1060 	ld	h, b
    0000033B 29               [11] 1061 	add	hl, hl
    0000033C 09               [11] 1062 	add	hl, bc
    0000033D 29               [11] 1063 	add	hl, hl
    0000033E EB               [ 4] 1064 	ex	de, hl
    0000033F 2Ar00r00         [16] 1065 	ld	hl, (_g_ScreenLayoutLow)
    00000342 19               [11] 1066 	add	hl, de
    00000343 E3               [19] 1067 	ex	(sp), hl
                                   1068 ;C:\Users\reina\OneDrive\Documentos\MSXgl\engine/src/game_menu.c:239: for(u8 i = MENU_FRAME_Y; i < MENU_FRAME_Y + MENU_FRAME_HEIGHT; ++i)
    00000344 DD 36 FF 06      [19] 1069 	ld	-1 (ix), #0x06
    00000348                       1070 00115$:
    00000348 DD 7E FF         [19] 1071 	ld	a, -1 (ix)
    0000034B D6 0E            [ 7] 1072 	sub	a, #0x0e
    0000034D 30 1E            [12] 1073 	jr	NC, 00108$
                                   1074 ;C:\Users\reina\OneDrive\Documentos\MSXgl\engine/src/game_menu.c:241: VDP_FillVRAM(MENU_CHAR_CLEAR, dst, g_ScreenLayoutHigh, MENU_FRAME_WIDTH);
    0000034F 21 20 00         [10] 1075 	ld	hl, #0x0020
    00000352 E5               [11] 1076 	push	hl
    00000353 DD 5E FD         [19] 1077 	ld	e, -3 (ix)
    00000356 DD 56 FE         [19] 1078 	ld	d, -2 (ix)
    00000359 AF               [ 4] 1079 	xor	a, a
    0000035A CDr00r00         [17] 1080 	call	_VDP_FillVRAM_16K
                                   1081 ;C:\Users\reina\OneDrive\Documentos\MSXgl\engine/src/game_menu.c:242: dst += MENU_GET_SCREEN_WIDTH();
    0000035D 3Ar0Er00         [13] 1082 	ld	a, (_g_MenuScrWidth+0)
    00000360 6F               [ 4] 1083 	ld	l, a
                                   1084 ;	spillPairReg hl
                                   1085 ;	spillPairReg hl
    00000361 26 00            [ 7] 1086 	ld	h, #0x00
                                   1087 ;	spillPairReg hl
                                   1088 ;	spillPairReg hl
    00000363 C1               [10] 1089 	pop	bc
    00000364 C5               [11] 1090 	push	bc
    00000365 09               [11] 1091 	add	hl, bc
    00000366 E3               [19] 1092 	ex	(sp), hl
                                   1093 ;C:\Users\reina\OneDrive\Documentos\MSXgl\engine/src/game_menu.c:239: for(u8 i = MENU_FRAME_Y; i < MENU_FRAME_Y + MENU_FRAME_HEIGHT; ++i)
    00000367 DD 34 FF         [23] 1094 	inc	-1 (ix)
    0000036A C3r48r03         [10] 1095 	jp	00115$
    0000036D                       1096 00108$:
                                   1097 ;C:\Users\reina\OneDrive\Documentos\MSXgl\engine/src/game_menu.c:226: if(g_MenuPage->Callback)
    0000036D 2Ar02r00         [16] 1098 	ld	hl, (_g_MenuPage)
                                   1099 ;C:\Users\reina\OneDrive\Documentos\MSXgl\engine/src/game_menu.c:246: if (g_MenuPage->Title)
    00000370 5E               [ 7] 1100 	ld	e, (hl)
    00000371 23               [ 6] 1101 	inc	hl
    00000372 56               [ 7] 1102 	ld	d, (hl)
    00000373 7A               [ 4] 1103 	ld	a, d
    00000374 B3               [ 4] 1104 	or	a, e
    00000375 28 0E            [12] 1105 	jr	Z, 00130$
                                   1106 ;C:\Users\reina\OneDrive\Documentos\MSXgl\engine/src/game_menu.c:248: Print_DrawTextAt(MENU_TITLE_X, MENU_TITLE_Y, g_MenuPage->Title);
                                   1107 ;C:\Users\reina\OneDrive\Documentos\MSXgl\engine/src/print.h:223: g_PrintData.CursorX = x;
    00000377 21r05r00         [10] 1108 	ld	hl, #(_g_PrintData + 5)
    0000037A 36 04            [10] 1109 	ld	(hl), #0x04
                                   1110 ;C:\Users\reina\OneDrive\Documentos\MSXgl\engine/src/print.h:224: g_PrintData.CursorY = y;
    0000037C 21r06r00         [10] 1111 	ld	hl, #(_g_PrintData + 6)
    0000037F 36 06            [10] 1112 	ld	(hl), #0x06
                                   1113 ;C:\Users\reina\OneDrive\Documentos\MSXgl\engine/src/print.h:491: Print_DrawText(str);
    00000381 EB               [ 4] 1114 	ex	de, hl
    00000382 CDr00r00         [17] 1115 	call	_Print_DrawText
                                   1116 ;C:\Users\reina\OneDrive\Documentos\MSXgl\engine/src/game_menu.c:252: for(u8 item = 0; item < g_MenuPage->ItemNum; ++item)
    00000385                       1117 00130$:
    00000385 0E 00            [ 7] 1118 	ld	c, #0x00
    00000387                       1119 00118$:
    00000387 2Ar02r00         [16] 1120 	ld	hl, (_g_MenuPage)
    0000038A 11 04 00         [10] 1121 	ld	de, #0x0004
    0000038D 19               [11] 1122 	add	hl, de
    0000038E 46               [ 7] 1123 	ld	b, (hl)
    0000038F 79               [ 4] 1124 	ld	a, c
    00000390 90               [ 4] 1125 	sub	a, b
    00000391 30 0A            [12] 1126 	jr	NC, 00120$
                                   1127 ;C:\Users\reina\OneDrive\Documentos\MSXgl\engine/src/game_menu.c:254: Menu_DisplayItem(item);
    00000393 C5               [11] 1128 	push	bc
    00000394 79               [ 4] 1129 	ld	a, c
    00000395 CDr88r00         [17] 1130 	call	_Menu_DisplayItem
    00000398 C1               [10] 1131 	pop	bc
                                   1132 ;C:\Users\reina\OneDrive\Documentos\MSXgl\engine/src/game_menu.c:252: for(u8 item = 0; item < g_MenuPage->ItemNum; ++item)
    00000399 0C               [ 4] 1133 	inc	c
    0000039A C3r87r03         [10] 1134 	jp	00118$
    0000039D                       1135 00120$:
                                   1136 ;C:\Users\reina\OneDrive\Documentos\MSXgl\engine/src/game_menu.c:256: }
    0000039D DD F9            [10] 1137 	ld	sp, ix
    0000039F DD E1            [14] 1138 	pop	ix
    000003A1 C9               [10] 1139 	ret
                                   1140 ;C:\Users\reina\OneDrive\Documentos\MSXgl\engine/src/game_menu.c:260: void Menu_Update()
                                   1141 ;	---------------------------------
                                   1142 ; Function Menu_Update
                                   1143 ; ---------------------------------
    000003A2                       1144 _Menu_Update::
    000003A2 DD E5            [15] 1145 	push	ix
    000003A4 DD 21 00 00      [14] 1146 	ld	ix,#0
    000003A8 DD 39            [15] 1147 	add	ix,sp
    000003AA 21 FA FF         [10] 1148 	ld	hl, #-6
    000003AD 39               [11] 1149 	add	hl, sp
    000003AE F9               [ 6] 1150 	ld	sp, hl
                                   1151 ;C:\Users\reina\OneDrive\Documentos\MSXgl\engine/src/game_menu.c:263: if(g_MenuFlag & MENU_FLAG_DIRTY)
    000003AF 3Ar0Cr00         [13] 1152 	ld	a, (_g_MenuFlag+0)
    000003B2 0F               [ 4] 1153 	rrca
    000003B3 30 0E            [12] 1154 	jr	NC, 00169$
                                   1155 ;C:\Users\reina\OneDrive\Documentos\MSXgl\engine/src/game_menu.c:265: Menu_DrawPage(g_MenuPageIdx);
    000003B5 3Ar0Br00         [13] 1156 	ld	a, (_g_MenuPageIdx+0)
    000003B8 CDrC4r02         [17] 1157 	call	_Menu_DrawPage
                                   1158 ;C:\Users\reina\OneDrive\Documentos\MSXgl\engine/src/game_menu.c:266: g_MenuFlag &= ~MENU_FLAG_DIRTY; // Remove 'dirty' flag
    000003BB 3Ar0Cr00         [13] 1159 	ld	a, (_g_MenuFlag+0)
    000003BE E6 FE            [ 7] 1160 	and	a, #0xfe
    000003C0 32r0Cr00         [13] 1161 	ld	(_g_MenuFlag+0), a
                                   1162 ;C:\Users\reina\OneDrive\Documentos\MSXgl\engine/src/game_menu.c:270: for(u8 item = 0; item < g_MenuPage->ItemNum; ++item)
    000003C3                       1163 00169$:
    000003C3 0E 00            [ 7] 1164 	ld	c, #0x00
    000003C5                       1165 00161$:
    000003C5 2Ar02r00         [16] 1166 	ld	hl, (_g_MenuPage)
    000003C8 DD 75 FE         [19] 1167 	ld	-2 (ix), l
    000003CB DD 74 FF         [19] 1168 	ld	-1 (ix), h
    000003CE EB               [ 4] 1169 	ex	de,hl
    000003CF 21 04 00         [10] 1170 	ld	hl, #4
    000003D2 19               [11] 1171 	add	hl, de
    000003D3 46               [ 7] 1172 	ld	b, (hl)
    000003D4 79               [ 4] 1173 	ld	a, c
    000003D5 90               [ 4] 1174 	sub	a, b
    000003D6 D2r79r04         [10] 1175 	jp	NC, 00107$
                                   1176 ;C:\Users\reina\OneDrive\Documentos\MSXgl\engine/src/game_menu.c:272: MenuItem* pCurItem = &g_MenuPage->Items[item];
    000003D9 DD 6E FE         [19] 1177 	ld	l, -2 (ix)
                                   1178 ;	spillPairReg hl
                                   1179 ;	spillPairReg hl
    000003DC DD 66 FF         [19] 1180 	ld	h, -1 (ix)
                                   1181 ;	spillPairReg hl
                                   1182 ;	spillPairReg hl
    000003DF 23               [ 6] 1183 	inc	hl
    000003E0 23               [ 6] 1184 	inc	hl
    000003E1 5E               [ 7] 1185 	ld	e, (hl)
    000003E2 23               [ 6] 1186 	inc	hl
    000003E3 56               [ 7] 1187 	ld	d, (hl)
    000003E4 06 00            [ 7] 1188 	ld	b, #0x00
    000003E6 69               [ 4] 1189 	ld	l, c
    000003E7 60               [ 4] 1190 	ld	h, b
    000003E8 29               [11] 1191 	add	hl, hl
    000003E9 09               [11] 1192 	add	hl, bc
    000003EA 29               [11] 1193 	add	hl, hl
    000003EB 09               [11] 1194 	add	hl, bc
    000003EC 19               [11] 1195 	add	hl, de
                                   1196 ;C:\Users\reina\OneDrive\Documentos\MSXgl\engine/src/game_menu.c:273: if(pCurItem->Type == MENU_ITEM_UPDATE)
    000003ED DD 75 FE         [19] 1197 	ld	-2 (ix), l
    000003F0 DD 74 FF         [19] 1198 	ld	-1 (ix), h
    000003F3 23               [ 6] 1199 	inc	hl
    000003F4 23               [ 6] 1200 	inc	hl
    000003F5 EB               [ 4] 1201 	ex	de,hl
    000003F6 1A               [ 7] 1202 	ld	a, (de)
    000003F7 D6 06            [ 7] 1203 	sub	a, #0x06
    000003F9 20 7A            [12] 1204 	jr	NZ, 00162$
                                   1205 ;C:\Users\reina\OneDrive\Documentos\MSXgl\engine/src/game_menu.c:275: Menu_ActionCB cb = (Menu_ActionCB)pCurItem->Action;
    000003FB DD 6E FE         [19] 1206 	ld	l, -2 (ix)
                                   1207 ;	spillPairReg hl
                                   1208 ;	spillPairReg hl
    000003FE DD 66 FF         [19] 1209 	ld	h, -1 (ix)
                                   1210 ;	spillPairReg hl
                                   1211 ;	spillPairReg hl
    00000401 23               [ 6] 1212 	inc	hl
    00000402 23               [ 6] 1213 	inc	hl
    00000403 23               [ 6] 1214 	inc	hl
    00000404 5E               [ 7] 1215 	ld	e, (hl)
    00000405 23               [ 6] 1216 	inc	hl
    00000406 56               [ 7] 1217 	ld	d, (hl)
                                   1218 ;C:\Users\reina\OneDrive\Documentos\MSXgl\engine/src/game_menu.c:276: const c8* str = cb(MENU_ACTION_UPDATE, pCurItem->Value);
    00000407 DD 7E FE         [19] 1219 	ld	a, -2 (ix)
    0000040A C6 05            [ 7] 1220 	add	a, #0x05
    0000040C DD 77 FC         [19] 1221 	ld	-4 (ix), a
    0000040F DD 7E FF         [19] 1222 	ld	a, -1 (ix)
    00000412 CE 00            [ 7] 1223 	adc	a, #0x00
    00000414 DD 77 FD         [19] 1224 	ld	-3 (ix), a
    00000417 DD 6E FC         [19] 1225 	ld	l, -4 (ix)
    0000041A DD 66 FD         [19] 1226 	ld	h, -3 (ix)
    0000041D 6E               [ 7] 1227 	ld	l, (hl)
                                   1228 ;	spillPairReg hl
    0000041E C5               [11] 1229 	push	bc
    0000041F 3E 04            [ 7] 1230 	ld	a, #0x04
    00000421 D5               [11] 1231 	push	de
    00000422 FD E1            [14] 1232 	pop	iy
    00000424 CDr00r00         [17] 1233 	call	___sdcc_call_iy
    00000427 C1               [10] 1234 	pop	bc
    00000428 DD 73 FE         [19] 1235 	ld	-2 (ix), e
    0000042B DD 72 FF         [19] 1236 	ld	-1 (ix), d
                                   1237 ;C:\Users\reina\OneDrive\Documentos\MSXgl\engine/src/game_menu.c:277: if(str)
    0000042E 7A               [ 4] 1238 	ld	a, d
    0000042F B3               [ 4] 1239 	or	a, e
    00000430 28 43            [12] 1240 	jr	Z, 00162$
                                   1241 ;C:\Users\reina\OneDrive\Documentos\MSXgl\engine/src/game_menu.c:279: u8 y = MENU_FRAME_Y + item;
    00000432 79               [ 4] 1242 	ld	a, c
    00000433 C6 06            [ 7] 1243 	add	a, #0x06
    00000435 47               [ 4] 1244 	ld	b, a
                                   1245 ;C:\Users\reina\OneDrive\Documentos\MSXgl\engine/src/game_menu.c:281: u16 dst = g_ScreenLayoutLow + MENU_FRAME_X + (y * MENU_GET_SCREEN_WIDTH());
    00000436 C5               [11] 1246 	push	bc
    00000437 3Ar0Er00         [13] 1247 	ld	a, (#_g_MenuScrWidth + 0)
    0000043A 5F               [ 4] 1248 	ld	e, a
    0000043B 60               [ 4] 1249 	ld	h, b
                                   1250 ;	spillPairReg hl
                                   1251 ;	spillPairReg hl
    0000043C 2E 00            [ 7] 1252 	ld	l, #0x00
    0000043E 55               [ 4] 1253 	ld	d, l
    0000043F 06 08            [ 7] 1254 	ld	b, #0x08
    00000441                       1255 00314$:
    00000441 29               [11] 1256 	add	hl, hl
    00000442 30 01            [12] 1257 	jr	NC, 00315$
    00000444 19               [11] 1258 	add	hl, de
    00000445                       1259 00315$:
    00000445 10 FA            [13] 1260 	djnz	00314$
    00000447 C1               [10] 1261 	pop	bc
    00000448 EB               [ 4] 1262 	ex	de, hl
    00000449 2Ar00r00         [16] 1263 	ld	hl, (_g_ScreenLayoutLow)
    0000044C 19               [11] 1264 	add	hl, de
                                   1265 ;C:\Users\reina\OneDrive\Documentos\MSXgl\engine/src/game_menu.c:282: VDP_FillVRAM(MENU_CHAR_CLEAR, dst, g_ScreenLayoutHigh, MENU_FRAME_WIDTH);
    0000044D C5               [11] 1266 	push	bc
    0000044E EB               [ 4] 1267 	ex	de, hl
    0000044F 21 20 00         [10] 1268 	ld	hl, #0x0020
    00000452 E5               [11] 1269 	push	hl
    00000453 AF               [ 4] 1270 	xor	a, a
    00000454 CDr00r00         [17] 1271 	call	_VDP_FillVRAM_16K
    00000457 C1               [10] 1272 	pop	bc
                                   1273 ;C:\Users\reina\OneDrive\Documentos\MSXgl\engine/src/game_menu.c:284: Print_SetPosition(MENU_ITEM_X + pCurItem->Value, y);
    00000458 DD 6E FC         [19] 1274 	ld	l, -4 (ix)
    0000045B DD 66 FD         [19] 1275 	ld	h, -3 (ix)
    0000045E 7E               [ 7] 1276 	ld	a, (hl)
    0000045F C6 06            [ 7] 1277 	add	a, #0x06
    00000461 5F               [ 4] 1278 	ld	e, a
                                   1279 ;C:\Users\reina\OneDrive\Documentos\MSXgl\engine/src/print.h:223: g_PrintData.CursorX = x;
    00000462 21r05r00         [10] 1280 	ld	hl, #(_g_PrintData + 5)
    00000465 73               [ 7] 1281 	ld	(hl), e
                                   1282 ;C:\Users\reina\OneDrive\Documentos\MSXgl\engine/src/print.h:224: g_PrintData.CursorY = y;
    00000466 21r06r00         [10] 1283 	ld	hl, #(_g_PrintData + 6)
    00000469 70               [ 7] 1284 	ld	(hl), b
                                   1285 ;C:\Users\reina\OneDrive\Documentos\MSXgl\engine/src/game_menu.c:285: Print_DrawText(str);
    0000046A C5               [11] 1286 	push	bc
    0000046B DD 6E FE         [19] 1287 	ld	l, -2 (ix)
                                   1288 ;	spillPairReg hl
                                   1289 ;	spillPairReg hl
    0000046E DD 66 FF         [19] 1290 	ld	h, -1 (ix)
                                   1291 ;	spillPairReg hl
                                   1292 ;	spillPairReg hl
    00000471 CDr00r00         [17] 1293 	call	_Print_DrawText
    00000474 C1               [10] 1294 	pop	bc
    00000475                       1295 00162$:
                                   1296 ;C:\Users\reina\OneDrive\Documentos\MSXgl\engine/src/game_menu.c:270: for(u8 item = 0; item < g_MenuPage->ItemNum; ++item)
    00000475 0C               [ 4] 1297 	inc	c
    00000476 C3rC5r03         [10] 1298 	jp	00161$
    00000479                       1299 00107$:
                                   1300 ;C:\Users\reina\OneDrive\Documentos\MSXgl\engine/src/game_menu.c:291: u8 input = g_MenuInputCB();
    00000479 2Ar05r00         [16] 1301 	ld	hl, (_g_MenuInputCB)
    0000047C CDr00r00         [17] 1302 	call	___sdcc_call_hl
    0000047F DD 77 FA         [19] 1303 	ld	-6 (ix), a
                                   1304 ;C:\Users\reina\OneDrive\Documentos\MSXgl\engine/src/game_menu.c:292: MenuItem* pCurItem = &g_MenuPage->Items[g_MenuItem];
    00000482 2Ar02r00         [16] 1305 	ld	hl, (_g_MenuPage)
    00000485 23               [ 6] 1306 	inc	hl
    00000486 23               [ 6] 1307 	inc	hl
    00000487 4E               [ 7] 1308 	ld	c, (hl)
    00000488 23               [ 6] 1309 	inc	hl
    00000489 46               [ 7] 1310 	ld	b, (hl)
    0000048A ED 5Br04r00      [20] 1311 	ld	de, (_g_MenuItem)
    0000048E 16 00            [ 7] 1312 	ld	d, #0x00
    00000490 6B               [ 4] 1313 	ld	l, e
    00000491 62               [ 4] 1314 	ld	h, d
    00000492 29               [11] 1315 	add	hl, hl
    00000493 19               [11] 1316 	add	hl, de
    00000494 29               [11] 1317 	add	hl, hl
    00000495 19               [11] 1318 	add	hl, de
    00000496 09               [11] 1319 	add	hl, bc
                                   1320 ;C:\Users\reina\OneDrive\Documentos\MSXgl\engine/src/game_menu.c:293: u8 type = pCurItem->Type & MENU_ITEM_MASK;
    00000497 DD 75 FD         [19] 1321 	ld	-3 (ix), l
    0000049A DD 74 FE         [19] 1322 	ld	-2 (ix), h
    0000049D 23               [ 6] 1323 	inc	hl
    0000049E 23               [ 6] 1324 	inc	hl
    0000049F 4D               [ 4] 1325 	ld	c, l
    000004A0 44               [ 4] 1326 	ld	b, h
    000004A1 0A               [ 7] 1327 	ld	a, (bc)
    000004A2 E6 0F            [ 7] 1328 	and	a, #0x0f
                                   1329 ;C:\Users\reina\OneDrive\Documentos\MSXgl\engine/src/game_menu.c:294: switch(type)
    000004A4 DD 77 FF         [19] 1330 	ld	-1 (ix), a
    000004A7 B7               [ 4] 1331 	or	a, a
    000004A8 28 19            [12] 1332 	jr	Z, 00108$
    000004AA DD 7E FF         [19] 1333 	ld	a, -1 (ix)
    000004AD 3D               [ 4] 1334 	dec	a
    000004AE 28 6D            [12] 1335 	jr	Z, 00119$
    000004B0 DD 7E FF         [19] 1336 	ld	a, -1 (ix)
    000004B3 D6 02            [ 7] 1337 	sub	a, #0x02
    000004B5 CAr3Er05         [10] 1338 	jp	Z,00122$
    000004B8 DD 7E FF         [19] 1339 	ld	a, -1 (ix)
    000004BB D6 03            [ 7] 1340 	sub	a, #0x03
    000004BD CAr68r06         [10] 1341 	jp	Z,00140$
    000004C0 C3r8Fr06         [10] 1342 	jp	00143$
                                   1343 ;C:\Users\reina\OneDrive\Documentos\MSXgl\engine/src/game_menu.c:296: case MENU_ITEM_ACTION:
    000004C3                       1344 00108$:
                                   1345 ;C:\Users\reina\OneDrive\Documentos\MSXgl\engine/src/game_menu.c:298: u8 act = MENU_ACTION_INVALID;
                                   1346 ;C:\Users\reina\OneDrive\Documentos\MSXgl\engine/src/game_menu.c:299: u8 event = 0xFF;
    000004C3 01 FF FF         [10] 1347 	ld	bc, #0xffff
                                   1348 ;C:\Users\reina\OneDrive\Documentos\MSXgl\engine/src/game_menu.c:300: if(input & MENU_INPUT_TRIGGER)
    000004C6 DD CB FA 66      [20] 1349 	bit	4, -6 (ix)
    000004CA 28 06            [12] 1350 	jr	Z, 00115$
                                   1351 ;C:\Users\reina\OneDrive\Documentos\MSXgl\engine/src/game_menu.c:302: act = MENU_ACTION_SET;
                                   1352 ;C:\Users\reina\OneDrive\Documentos\MSXgl\engine/src/game_menu.c:303: event = MENU_EVENT_SET;
    000004CC 01 02 00         [10] 1353 	ld	bc, #0x2
    000004CF C3rE7r04         [10] 1354 	jp	00116$
    000004D2                       1355 00115$:
                                   1356 ;C:\Users\reina\OneDrive\Documentos\MSXgl\engine/src/game_menu.c:305: else if(input & MENU_INPUT_LEFT)
    000004D2 DD CB FA 56      [20] 1357 	bit	2, -6 (ix)
    000004D6 28 06            [12] 1358 	jr	Z, 00112$
                                   1359 ;C:\Users\reina\OneDrive\Documentos\MSXgl\engine/src/game_menu.c:307: act = MENU_ACTION_DEC;
                                   1360 ;C:\Users\reina\OneDrive\Documentos\MSXgl\engine/src/game_menu.c:308: event = MENU_EVENT_DEC;
    000004D8 01 04 03         [10] 1361 	ld	bc, #0x304
    000004DB C3rE7r04         [10] 1362 	jp	00116$
    000004DE                       1363 00112$:
                                   1364 ;C:\Users\reina\OneDrive\Documentos\MSXgl\engine/src/game_menu.c:310: else if(input & MENU_INPUT_RIGHT)
    000004DE DD CB FA 5E      [20] 1365 	bit	3, -6 (ix)
    000004E2 28 03            [12] 1366 	jr	Z, 00116$
                                   1367 ;C:\Users\reina\OneDrive\Documentos\MSXgl\engine/src/game_menu.c:312: act = MENU_ACTION_INC;
                                   1368 ;C:\Users\reina\OneDrive\Documentos\MSXgl\engine/src/game_menu.c:313: event = MENU_EVENT_INC;
    000004E4 01 03 02         [10] 1369 	ld	bc, #0x203
    000004E7                       1370 00116$:
                                   1371 ;C:\Users\reina\OneDrive\Documentos\MSXgl\engine/src/game_menu.c:315: if(act != MENU_ACTION_INVALID)
    000004E7 78               [ 4] 1372 	ld	a, b
    000004E8 3C               [ 4] 1373 	inc	a
    000004E9 CAr8Fr06         [10] 1374 	jp	Z,00143$
                                   1375 ;C:\Users\reina\OneDrive\Documentos\MSXgl\engine/src/game_menu.c:317: Menu_ActionCB cb = (Menu_ActionCB)pCurItem->Action;
    000004EC DD 6E FD         [19] 1376 	ld	l, -3 (ix)
                                   1377 ;	spillPairReg hl
                                   1378 ;	spillPairReg hl
    000004EF DD 66 FE         [19] 1379 	ld	h, -2 (ix)
                                   1380 ;	spillPairReg hl
                                   1381 ;	spillPairReg hl
    000004F2 23               [ 6] 1382 	inc	hl
    000004F3 23               [ 6] 1383 	inc	hl
    000004F4 23               [ 6] 1384 	inc	hl
    000004F5 5E               [ 7] 1385 	ld	e, (hl)
    000004F6 23               [ 6] 1386 	inc	hl
    000004F7 56               [ 7] 1387 	ld	d, (hl)
                                   1388 ;C:\Users\reina\OneDrive\Documentos\MSXgl\engine/src/game_menu.c:318: cb(act, pCurItem->Value);
    000004F8 DD 6E FD         [19] 1389 	ld	l, -3 (ix)
                                   1390 ;	spillPairReg hl
                                   1391 ;	spillPairReg hl
    000004FB DD 66 FE         [19] 1392 	ld	h, -2 (ix)
                                   1393 ;	spillPairReg hl
                                   1394 ;	spillPairReg hl
    000004FE 23               [ 6] 1395 	inc	hl
    000004FF 23               [ 6] 1396 	inc	hl
    00000500 23               [ 6] 1397 	inc	hl
    00000501 23               [ 6] 1398 	inc	hl
    00000502 23               [ 6] 1399 	inc	hl
    00000503 6E               [ 7] 1400 	ld	l, (hl)
                                   1401 ;	spillPairReg hl
    00000504 C5               [11] 1402 	push	bc
    00000505 78               [ 4] 1403 	ld	a, b
    00000506 D5               [11] 1404 	push	de
    00000507 FD E1            [14] 1405 	pop	iy
    00000509 CDr00r00         [17] 1406 	call	___sdcc_call_iy
    0000050C 3Ar04r00         [13] 1407 	ld	a, (_g_MenuItem+0)
    0000050F CDr88r00         [17] 1408 	call	_Menu_DisplayItem
    00000512 C1               [10] 1409 	pop	bc
                                   1410 ;C:\Users\reina\OneDrive\Documentos\MSXgl\engine/src/game_menu.c:320: g_MenuEventCB(event);
    00000513 79               [ 4] 1411 	ld	a, c
    00000514 2Ar09r00         [16] 1412 	ld	hl, (_g_MenuEventCB)
    00000517 CDr00r00         [17] 1413 	call	___sdcc_call_hl
                                   1414 ;C:\Users\reina\OneDrive\Documentos\MSXgl\engine/src/game_menu.c:322: break;
    0000051A C3r8Fr06         [10] 1415 	jp	00143$
                                   1416 ;C:\Users\reina\OneDrive\Documentos\MSXgl\engine/src/game_menu.c:324: case MENU_ITEM_GOTO:
    0000051D                       1417 00119$:
                                   1418 ;C:\Users\reina\OneDrive\Documentos\MSXgl\engine/src/game_menu.c:326: if(input & (MENU_INPUT_TRIGGER | MENU_INPUT_RIGHT| MENU_INPUT_LEFT))
    0000051D DD 7E FA         [19] 1419 	ld	a, -6 (ix)
    00000520 E6 1C            [ 7] 1420 	and	a, #0x1c
    00000522 CAr8Fr06         [10] 1421 	jp	Z,00143$
                                   1422 ;C:\Users\reina\OneDrive\Documentos\MSXgl\engine/src/game_menu.c:328: Menu_DrawPage(pCurItem->Value);
    00000525 DD 4E FD         [19] 1423 	ld	c, -3 (ix)
    00000528 DD 46 FE         [19] 1424 	ld	b, -2 (ix)
    0000052B 21 05 00         [10] 1425 	ld	hl, #5
    0000052E 09               [11] 1426 	add	hl, bc
    0000052F 7E               [ 7] 1427 	ld	a, (hl)
    00000530 CDrC4r02         [17] 1428 	call	_Menu_DrawPage
                                   1429 ;C:\Users\reina\OneDrive\Documentos\MSXgl\engine/src/game_menu.c:329: g_MenuEventCB(MENU_EVENT_SET);
    00000533 3E 02            [ 7] 1430 	ld	a, #0x02
    00000535 2Ar09r00         [16] 1431 	ld	hl, (_g_MenuEventCB)
    00000538 CDr00r00         [17] 1432 	call	___sdcc_call_hl
                                   1433 ;C:\Users\reina\OneDrive\Documentos\MSXgl\engine/src/game_menu.c:330: return;
    0000053B C3r57r07         [10] 1434 	jp	00163$
                                   1435 ;C:\Users\reina\OneDrive\Documentos\MSXgl\engine/src/game_menu.c:334: case MENU_ITEM_INT:
    0000053E                       1436 00122$:
                                   1437 ;C:\Users\reina\OneDrive\Documentos\MSXgl\engine/src/game_menu.c:336: if(input & (MENU_INPUT_TRIGGER | MENU_INPUT_RIGHT))
    0000053E DD 7E FA         [19] 1438 	ld	a, -6 (ix)
    00000541 E6 18            [ 7] 1439 	and	a, #0x18
    00000543 CArDAr05         [10] 1440 	jp	Z,00138$
                                   1441 ;C:\Users\reina\OneDrive\Documentos\MSXgl\engine/src/game_menu.c:338: i8* data = (i8*)pCurItem->Action;
    00000546 DD 6E FD         [19] 1442 	ld	l, -3 (ix)
                                   1443 ;	spillPairReg hl
                                   1444 ;	spillPairReg hl
    00000549 DD 66 FE         [19] 1445 	ld	h, -2 (ix)
                                   1446 ;	spillPairReg hl
                                   1447 ;	spillPairReg hl
    0000054C 23               [ 6] 1448 	inc	hl
    0000054D 23               [ 6] 1449 	inc	hl
    0000054E 23               [ 6] 1450 	inc	hl
    0000054F 4E               [ 7] 1451 	ld	c, (hl)
    00000550 23               [ 6] 1452 	inc	hl
    00000551 46               [ 7] 1453 	ld	b, (hl)
                                   1454 ;C:\Users\reina\OneDrive\Documentos\MSXgl\engine/src/game_menu.c:339: if(pCurItem->Value != NULL)
    00000552 DD 5E FD         [19] 1455 	ld	e, -3 (ix)
    00000555 DD 56 FE         [19] 1456 	ld	d, -2 (ix)
    00000558 21 05 00         [10] 1457 	ld	hl, #5
    0000055B 19               [11] 1458 	add	hl, de
    0000055C 7E               [ 7] 1459 	ld	a, (hl)
    0000055D DD 77 FE         [19] 1460 	ld	-2 (ix), a
    00000560 23               [ 6] 1461 	inc	hl
    00000561 7E               [ 7] 1462 	ld	a, (hl)
    00000562 DD 77 FF         [19] 1463 	ld	-1 (ix), a
                                   1464 ;C:\Users\reina\OneDrive\Documentos\MSXgl\engine/src/game_menu.c:342: if((*data) + param->Step > param->Max)
    00000565 0A               [ 7] 1465 	ld	a, (bc)
    00000566 5F               [ 4] 1466 	ld	e, a
                                   1467 ;C:\Users\reina\OneDrive\Documentos\MSXgl\engine/src/game_menu.c:339: if(pCurItem->Value != NULL)
    00000567 DD 7E FF         [19] 1468 	ld	a, -1 (ix)
    0000056A DD B6 FE         [19] 1469 	or	a, -2 (ix)
    0000056D 28 57            [12] 1470 	jr	Z, 00127$
                                   1471 ;C:\Users\reina\OneDrive\Documentos\MSXgl\engine/src/game_menu.c:341: MenuItemMinMax* param = (MenuItemMinMax*)pCurItem->Value;
    0000056F DD 7E FE         [19] 1472 	ld	a, -2 (ix)
    00000572 DD 77 FB         [19] 1473 	ld	-5 (ix), a
    00000575 DD 7E FF         [19] 1474 	ld	a, -1 (ix)
    00000578 DD 77 FC         [19] 1475 	ld	-4 (ix), a
                                   1476 ;C:\Users\reina\OneDrive\Documentos\MSXgl\engine/src/game_menu.c:342: if((*data) + param->Step > param->Max)
    0000057B 7B               [ 4] 1477 	ld	a, e
    0000057C F5               [11] 1478 	push	af
    0000057D 07               [ 4] 1479 	rlca
    0000057E 9F               [ 4] 1480 	sbc	a, a
    0000057F 57               [ 4] 1481 	ld	d, a
    00000580 F1               [10] 1482 	pop	af
    00000581 DD 6E FB         [19] 1483 	ld	l, -5 (ix)
                                   1484 ;	spillPairReg hl
                                   1485 ;	spillPairReg hl
    00000584 DD 66 FC         [19] 1486 	ld	h, -4 (ix)
                                   1487 ;	spillPairReg hl
                                   1488 ;	spillPairReg hl
    00000587 23               [ 6] 1489 	inc	hl
    00000588 23               [ 6] 1490 	inc	hl
    00000589 F5               [11] 1491 	push	af
    0000058A 7E               [ 7] 1492 	ld	a, (hl)
    0000058B DD 77 FD         [19] 1493 	ld	-3 (ix), a
    0000058E 6F               [ 4] 1494 	ld	l, a
                                   1495 ;	spillPairReg hl
                                   1496 ;	spillPairReg hl
    0000058F 07               [ 4] 1497 	rlca
    00000590 9F               [ 4] 1498 	sbc	a, a
    00000591 67               [ 4] 1499 	ld	h, a
                                   1500 ;	spillPairReg hl
                                   1501 ;	spillPairReg hl
    00000592 F1               [10] 1502 	pop	af
    00000593 85               [ 4] 1503 	add	a, l
    00000594 DD 77 FE         [19] 1504 	ld	-2 (ix), a
    00000597 7A               [ 4] 1505 	ld	a, d
    00000598 8C               [ 4] 1506 	adc	a, h
    00000599 DD 77 FF         [19] 1507 	ld	-1 (ix), a
    0000059C DD 6E FB         [19] 1508 	ld	l, -5 (ix)
                                   1509 ;	spillPairReg hl
                                   1510 ;	spillPairReg hl
    0000059F DD 66 FC         [19] 1511 	ld	h, -4 (ix)
                                   1512 ;	spillPairReg hl
                                   1513 ;	spillPairReg hl
    000005A2 23               [ 6] 1514 	inc	hl
    000005A3 56               [ 7] 1515 	ld	d, (hl)
    000005A4 7A               [ 4] 1516 	ld	a, d
    000005A5 6F               [ 4] 1517 	ld	l, a
                                   1518 ;	spillPairReg hl
                                   1519 ;	spillPairReg hl
    000005A6 07               [ 4] 1520 	rlca
    000005A7 9F               [ 4] 1521 	sbc	a, a
    000005A8 67               [ 4] 1522 	ld	h, a
                                   1523 ;	spillPairReg hl
                                   1524 ;	spillPairReg hl
    000005A9 7D               [ 4] 1525 	ld	a, l
    000005AA DD 96 FE         [19] 1526 	sub	a, -2 (ix)
    000005AD 7C               [ 4] 1527 	ld	a, h
    000005AE DD 9E FF         [19] 1528 	sbc	a, -1 (ix)
    000005B1 E2rB6r05         [10] 1529 	jp	PO, 00326$
    000005B4 EE 80            [ 7] 1530 	xor	a, #0x80
    000005B6                       1531 00326$:
    000005B6 F2rBEr05         [10] 1532 	jp	P, 00124$
                                   1533 ;C:\Users\reina\OneDrive\Documentos\MSXgl\engine/src/game_menu.c:343: (*data) = param->Max;
    000005B9 7A               [ 4] 1534 	ld	a, d
    000005BA 02               [ 7] 1535 	ld	(bc), a
    000005BB C3rC9r05         [10] 1536 	jp	00128$
    000005BE                       1537 00124$:
                                   1538 ;C:\Users\reina\OneDrive\Documentos\MSXgl\engine/src/game_menu.c:345: (*data) += param->Step;
    000005BE 7B               [ 4] 1539 	ld	a, e
    000005BF DD 86 FD         [19] 1540 	add	a, -3 (ix)
    000005C2 02               [ 7] 1541 	ld	(bc), a
    000005C3 C3rC9r05         [10] 1542 	jp	00128$
    000005C6                       1543 00127$:
                                   1544 ;C:\Users\reina\OneDrive\Documentos\MSXgl\engine/src/game_menu.c:348: (*data)++;
    000005C6 7B               [ 4] 1545 	ld	a, e
    000005C7 3C               [ 4] 1546 	inc	a
    000005C8 02               [ 7] 1547 	ld	(bc), a
    000005C9                       1548 00128$:
                                   1549 ;C:\Users\reina\OneDrive\Documentos\MSXgl\engine/src/game_menu.c:349: Menu_DisplayItem(g_MenuItem);
    000005C9 3Ar04r00         [13] 1550 	ld	a, (_g_MenuItem+0)
    000005CC CDr88r00         [17] 1551 	call	_Menu_DisplayItem
                                   1552 ;C:\Users\reina\OneDrive\Documentos\MSXgl\engine/src/game_menu.c:350: g_MenuEventCB(MENU_EVENT_INC);
    000005CF 3E 03            [ 7] 1553 	ld	a, #0x03
    000005D1 2Ar09r00         [16] 1554 	ld	hl, (_g_MenuEventCB)
    000005D4 CDr00r00         [17] 1555 	call	___sdcc_call_hl
    000005D7 C3r8Fr06         [10] 1556 	jp	00143$
    000005DA                       1557 00138$:
                                   1558 ;C:\Users\reina\OneDrive\Documentos\MSXgl\engine/src/game_menu.c:352: else if(input & MENU_INPUT_LEFT)
    000005DA DD CB FA 56      [20] 1559 	bit	2, -6 (ix)
    000005DE CAr8Fr06         [10] 1560 	jp	Z,00143$
                                   1561 ;C:\Users\reina\OneDrive\Documentos\MSXgl\engine/src/game_menu.c:354: i8* data = (i8*)pCurItem->Action;
    000005E1 DD 6E FD         [19] 1562 	ld	l, -3 (ix)
                                   1563 ;	spillPairReg hl
                                   1564 ;	spillPairReg hl
    000005E4 DD 66 FE         [19] 1565 	ld	h, -2 (ix)
                                   1566 ;	spillPairReg hl
                                   1567 ;	spillPairReg hl
    000005E7 23               [ 6] 1568 	inc	hl
    000005E8 23               [ 6] 1569 	inc	hl
    000005E9 23               [ 6] 1570 	inc	hl
    000005EA 4E               [ 7] 1571 	ld	c, (hl)
    000005EB 23               [ 6] 1572 	inc	hl
    000005EC 46               [ 7] 1573 	ld	b, (hl)
                                   1574 ;C:\Users\reina\OneDrive\Documentos\MSXgl\engine/src/game_menu.c:355: if(pCurItem->Value != NULL)
    000005ED DD 5E FD         [19] 1575 	ld	e, -3 (ix)
    000005F0 DD 56 FE         [19] 1576 	ld	d, -2 (ix)
    000005F3 21 05 00         [10] 1577 	ld	hl, #5
    000005F6 19               [11] 1578 	add	hl, de
    000005F7 7E               [ 7] 1579 	ld	a, (hl)
    000005F8 DD 77 FE         [19] 1580 	ld	-2 (ix), a
    000005FB 23               [ 6] 1581 	inc	hl
    000005FC 7E               [ 7] 1582 	ld	a, (hl)
    000005FD DD 77 FF         [19] 1583 	ld	-1 (ix), a
                                   1584 ;C:\Users\reina\OneDrive\Documentos\MSXgl\engine/src/game_menu.c:358: if((*data) < param->Min + param->Step)
    00000600 0A               [ 7] 1585 	ld	a, (bc)
    00000601 5F               [ 4] 1586 	ld	e, a
                                   1587 ;C:\Users\reina\OneDrive\Documentos\MSXgl\engine/src/game_menu.c:355: if(pCurItem->Value != NULL)
    00000602 DD 7E FF         [19] 1588 	ld	a, -1 (ix)
    00000605 DD B6 FE         [19] 1589 	or	a, -2 (ix)
    00000608 28 4A            [12] 1590 	jr	Z, 00133$
                                   1591 ;C:\Users\reina\OneDrive\Documentos\MSXgl\engine/src/game_menu.c:357: MenuItemMinMax* param = (MenuItemMinMax*)pCurItem->Value;
    0000060A DD 6E FE         [19] 1592 	ld	l, -2 (ix)
                                   1593 ;	spillPairReg hl
                                   1594 ;	spillPairReg hl
    0000060D DD 66 FF         [19] 1595 	ld	h, -1 (ix)
                                   1596 ;	spillPairReg hl
                                   1597 ;	spillPairReg hl
                                   1598 ;C:\Users\reina\OneDrive\Documentos\MSXgl\engine/src/game_menu.c:358: if((*data) < param->Min + param->Step)
    00000610 7E               [ 7] 1599 	ld	a, (hl)
    00000611 DD 77 FD         [19] 1600 	ld	-3 (ix), a
    00000614 DD 77 FE         [19] 1601 	ld	-2 (ix), a
    00000617 07               [ 4] 1602 	rlca
    00000618 9F               [ 4] 1603 	sbc	a, a
    00000619 DD 77 FF         [19] 1604 	ld	-1 (ix), a
    0000061C 23               [ 6] 1605 	inc	hl
    0000061D 23               [ 6] 1606 	inc	hl
    0000061E 56               [ 7] 1607 	ld	d, (hl)
    0000061F 7A               [ 4] 1608 	ld	a, d
    00000620 6F               [ 4] 1609 	ld	l, a
                                   1610 ;	spillPairReg hl
                                   1611 ;	spillPairReg hl
    00000621 07               [ 4] 1612 	rlca
    00000622 9F               [ 4] 1613 	sbc	a, a
    00000623 67               [ 4] 1614 	ld	h, a
                                   1615 ;	spillPairReg hl
                                   1616 ;	spillPairReg hl
    00000624 7D               [ 4] 1617 	ld	a, l
    00000625 DD 86 FE         [19] 1618 	add	a, -2 (ix)
    00000628 6F               [ 4] 1619 	ld	l, a
                                   1620 ;	spillPairReg hl
                                   1621 ;	spillPairReg hl
    00000629 7C               [ 4] 1622 	ld	a, h
    0000062A DD 8E FF         [19] 1623 	adc	a, -1 (ix)
    0000062D 67               [ 4] 1624 	ld	h, a
                                   1625 ;	spillPairReg hl
                                   1626 ;	spillPairReg hl
    0000062E 7B               [ 4] 1627 	ld	a, e
    0000062F DD 77 FE         [19] 1628 	ld	-2 (ix), a
    00000632 07               [ 4] 1629 	rlca
    00000633 9F               [ 4] 1630 	sbc	a, a
    00000634 DD 77 FF         [19] 1631 	ld	-1 (ix), a
    00000637 DD 7E FE         [19] 1632 	ld	a, -2 (ix)
    0000063A 95               [ 4] 1633 	sub	a, l
    0000063B DD 7E FF         [19] 1634 	ld	a, -1 (ix)
    0000063E 9C               [ 4] 1635 	sbc	a, h
    0000063F E2r44r06         [10] 1636 	jp	PO, 00328$
    00000642 EE 80            [ 7] 1637 	xor	a, #0x80
    00000644                       1638 00328$:
    00000644 F2r4Er06         [10] 1639 	jp	P, 00130$
                                   1640 ;C:\Users\reina\OneDrive\Documentos\MSXgl\engine/src/game_menu.c:359: (*data) = param->Min;
    00000647 DD 7E FD         [19] 1641 	ld	a, -3 (ix)
    0000064A 02               [ 7] 1642 	ld	(bc), a
    0000064B C3r57r06         [10] 1643 	jp	00134$
    0000064E                       1644 00130$:
                                   1645 ;C:\Users\reina\OneDrive\Documentos\MSXgl\engine/src/game_menu.c:361: (*data) -= param->Step;
    0000064E 7B               [ 4] 1646 	ld	a, e
    0000064F 92               [ 4] 1647 	sub	a, d
    00000650 02               [ 7] 1648 	ld	(bc), a
    00000651 C3r57r06         [10] 1649 	jp	00134$
    00000654                       1650 00133$:
                                   1651 ;C:\Users\reina\OneDrive\Documentos\MSXgl\engine/src/game_menu.c:364: (*data)--;
    00000654 7B               [ 4] 1652 	ld	a, e
    00000655 3D               [ 4] 1653 	dec	a
    00000656 02               [ 7] 1654 	ld	(bc), a
    00000657                       1655 00134$:
                                   1656 ;C:\Users\reina\OneDrive\Documentos\MSXgl\engine/src/game_menu.c:365: Menu_DisplayItem(g_MenuItem);
    00000657 3Ar04r00         [13] 1657 	ld	a, (_g_MenuItem+0)
    0000065A CDr88r00         [17] 1658 	call	_Menu_DisplayItem
                                   1659 ;C:\Users\reina\OneDrive\Documentos\MSXgl\engine/src/game_menu.c:366: g_MenuEventCB(MENU_EVENT_DEC);
    0000065D 3E 04            [ 7] 1660 	ld	a, #0x04
    0000065F 2Ar09r00         [16] 1661 	ld	hl, (_g_MenuEventCB)
    00000662 CDr00r00         [17] 1662 	call	___sdcc_call_hl
                                   1663 ;C:\Users\reina\OneDrive\Documentos\MSXgl\engine/src/game_menu.c:368: break;
    00000665 C3r8Fr06         [10] 1664 	jp	00143$
                                   1665 ;C:\Users\reina\OneDrive\Documentos\MSXgl\engine/src/game_menu.c:370: case MENU_ITEM_BOOL:
    00000668                       1666 00140$:
                                   1667 ;C:\Users\reina\OneDrive\Documentos\MSXgl\engine/src/game_menu.c:372: if(input & (MENU_INPUT_TRIGGER | MENU_INPUT_RIGHT | MENU_INPUT_LEFT))
    00000668 DD 7E FA         [19] 1668 	ld	a, -6 (ix)
    0000066B E6 1C            [ 7] 1669 	and	a, #0x1c
    0000066D 28 20            [12] 1670 	jr	Z, 00143$
                                   1671 ;C:\Users\reina\OneDrive\Documentos\MSXgl\engine/src/game_menu.c:374: u8* data = (u8*)pCurItem->Action;
    0000066F DD 6E FD         [19] 1672 	ld	l, -3 (ix)
                                   1673 ;	spillPairReg hl
                                   1674 ;	spillPairReg hl
    00000672 DD 66 FE         [19] 1675 	ld	h, -2 (ix)
                                   1676 ;	spillPairReg hl
                                   1677 ;	spillPairReg hl
    00000675 23               [ 6] 1678 	inc	hl
    00000676 23               [ 6] 1679 	inc	hl
    00000677 23               [ 6] 1680 	inc	hl
    00000678 4E               [ 7] 1681 	ld	c, (hl)
    00000679 23               [ 6] 1682 	inc	hl
    0000067A 46               [ 7] 1683 	ld	b, (hl)
                                   1684 ;C:\Users\reina\OneDrive\Documentos\MSXgl\engine/src/game_menu.c:375: *data = 1 - *data;
    0000067B 0A               [ 7] 1685 	ld	a, (bc)
    0000067C 5F               [ 4] 1686 	ld	e, a
    0000067D 3E 01            [ 7] 1687 	ld	a, #0x01
    0000067F 93               [ 4] 1688 	sub	a, e
    00000680 02               [ 7] 1689 	ld	(bc), a
                                   1690 ;C:\Users\reina\OneDrive\Documentos\MSXgl\engine/src/game_menu.c:376: Menu_DisplayItem(g_MenuItem);
    00000681 3Ar04r00         [13] 1691 	ld	a, (_g_MenuItem+0)
    00000684 CDr88r00         [17] 1692 	call	_Menu_DisplayItem
                                   1693 ;C:\Users\reina\OneDrive\Documentos\MSXgl\engine/src/game_menu.c:377: g_MenuEventCB(MENU_EVENT_SET);
    00000687 3E 02            [ 7] 1694 	ld	a, #0x02
    00000689 2Ar09r00         [16] 1695 	ld	hl, (_g_MenuEventCB)
    0000068C CDr00r00         [17] 1696 	call	___sdcc_call_hl
                                   1697 ;C:\Users\reina\OneDrive\Documentos\MSXgl\engine/src/game_menu.c:381: }
    0000068F                       1698 00143$:
                                   1699 ;C:\Users\reina\OneDrive\Documentos\MSXgl\engine/src/game_menu.c:384: if(input & MENU_INPUT_UP)
    0000068F DD CB FA 46      [20] 1700 	bit	0, -6 (ix)
    00000693 28 54            [12] 1701 	jr	Z, 00157$
                                   1702 ;C:\Users\reina\OneDrive\Documentos\MSXgl\engine/src/game_menu.c:386: u8 i = g_MenuItem;
    00000695 3Ar04r00         [13] 1703 	ld	a, (_g_MenuItem+0)
    00000698 DD 77 FF         [19] 1704 	ld	-1 (ix), a
                                   1705 ;C:\Users\reina\OneDrive\Documentos\MSXgl\engine/src/game_menu.c:387: while(i > 0)
    0000069B                       1706 00146$:
    0000069B DD 7E FF         [19] 1707 	ld	a, -1 (ix)
    0000069E B7               [ 4] 1708 	or	a, a
    0000069F CAr57r07         [10] 1709 	jp	Z, 00163$
                                   1710 ;C:\Users\reina\OneDrive\Documentos\MSXgl\engine/src/game_menu.c:389: i--;
    000006A2 DD 35 FF         [23] 1711 	dec	-1 (ix)
                                   1712 ;C:\Users\reina\OneDrive\Documentos\MSXgl\engine/src/game_menu.c:390: if((g_MenuPage->Items[i].Type & ~MENU_ITEM_ALIGN_MASK) < MENU_ITEM_TEXT)
    000006A5 2Ar02r00         [16] 1713 	ld	hl, (_g_MenuPage)
    000006A8 23               [ 6] 1714 	inc	hl
    000006A9 23               [ 6] 1715 	inc	hl
    000006AA 4E               [ 7] 1716 	ld	c, (hl)
    000006AB 23               [ 6] 1717 	inc	hl
    000006AC 46               [ 7] 1718 	ld	b, (hl)
    000006AD DD 5E FF         [19] 1719 	ld	e, -1 (ix)
    000006B0 16 00            [ 7] 1720 	ld	d, #0x00
    000006B2 6B               [ 4] 1721 	ld	l, e
    000006B3 62               [ 4] 1722 	ld	h, d
    000006B4 29               [11] 1723 	add	hl, hl
    000006B5 19               [11] 1724 	add	hl, de
    000006B6 29               [11] 1725 	add	hl, hl
    000006B7 19               [11] 1726 	add	hl, de
    000006B8 09               [11] 1727 	add	hl, bc
    000006B9 23               [ 6] 1728 	inc	hl
    000006BA 23               [ 6] 1729 	inc	hl
    000006BB 4E               [ 7] 1730 	ld	c, (hl)
    000006BC 06 00            [ 7] 1731 	ld	b, #0x00
    000006BE 79               [ 4] 1732 	ld	a, c
    000006BF E6 CF            [ 7] 1733 	and	a, #0xcf
    000006C1 D6 04            [ 7] 1734 	sub	a, #0x04
    000006C3 78               [ 4] 1735 	ld	a, b
    000006C4 17               [ 4] 1736 	rla
    000006C5 3F               [ 4] 1737 	ccf
    000006C6 1F               [ 4] 1738 	rra
    000006C7 DE 80            [ 7] 1739 	sbc	a, #0x80
    000006C9 30 D0            [12] 1740 	jr	NC, 00146$
                                   1741 ;C:\Users\reina\OneDrive\Documentos\MSXgl\engine/src/game_menu.c:392: u8 prev = g_MenuItem;
    000006CB 3Ar04r00         [13] 1742 	ld	a, (_g_MenuItem+0)
    000006CE 4F               [ 4] 1743 	ld	c, a
                                   1744 ;C:\Users\reina\OneDrive\Documentos\MSXgl\engine/src/game_menu.c:393: g_MenuItem = i;
    000006CF DD 7E FF         [19] 1745 	ld	a, -1 (ix)
    000006D2 32r04r00         [13] 1746 	ld	(_g_MenuItem+0), a
                                   1747 ;C:\Users\reina\OneDrive\Documentos\MSXgl\engine/src/game_menu.c:394: Menu_DisplayItem(prev);
    000006D5 79               [ 4] 1748 	ld	a, c
    000006D6 CDr88r00         [17] 1749 	call	_Menu_DisplayItem
                                   1750 ;C:\Users\reina\OneDrive\Documentos\MSXgl\engine/src/game_menu.c:395: Menu_DisplayItem(g_MenuItem);
    000006D9 3Ar04r00         [13] 1751 	ld	a, (_g_MenuItem+0)
    000006DC CDr88r00         [17] 1752 	call	_Menu_DisplayItem
                                   1753 ;C:\Users\reina\OneDrive\Documentos\MSXgl\engine/src/game_menu.c:396: g_MenuEventCB(MENU_EVENT_UP);
    000006DF AF               [ 4] 1754 	xor	a, a
    000006E0 2Ar09r00         [16] 1755 	ld	hl, (_g_MenuEventCB)
    000006E3 CDr00r00         [17] 1756 	call	___sdcc_call_hl
                                   1757 ;C:\Users\reina\OneDrive\Documentos\MSXgl\engine/src/game_menu.c:397: break;
    000006E6 C3r57r07         [10] 1758 	jp	00163$
    000006E9                       1759 00157$:
                                   1760 ;C:\Users\reina\OneDrive\Documentos\MSXgl\engine/src/game_menu.c:401: else if(input & MENU_INPUT_DOWN)
    000006E9 DD CB FA 4E      [20] 1761 	bit	1, -6 (ix)
    000006ED 28 68            [12] 1762 	jr	Z, 00163$
                                   1763 ;C:\Users\reina\OneDrive\Documentos\MSXgl\engine/src/game_menu.c:403: u8 i = g_MenuItem;
    000006EF 3Ar04r00         [13] 1764 	ld	a, (_g_MenuItem+0)
    000006F2 DD 77 FF         [19] 1765 	ld	-1 (ix), a
                                   1766 ;C:\Users\reina\OneDrive\Documentos\MSXgl\engine/src/game_menu.c:404: while(i < g_MenuPage->ItemNum-1)
    000006F5                       1767 00151$:
                                   1768 ;C:\Users\reina\OneDrive\Documentos\MSXgl\engine/src/game_menu.c:270: for(u8 item = 0; item < g_MenuPage->ItemNum; ++item)
    000006F5 ED 5Br02r00      [20] 1769 	ld	de, (_g_MenuPage)
                                   1770 ;C:\Users\reina\OneDrive\Documentos\MSXgl\engine/src/game_menu.c:404: while(i < g_MenuPage->ItemNum-1)
    000006F9 4B               [ 4] 1771 	ld	c, e
    000006FA 42               [ 4] 1772 	ld	b, d
    000006FB 21 04 00         [10] 1773 	ld	hl, #4
    000006FE 09               [11] 1774 	add	hl, bc
    000006FF 4E               [ 7] 1775 	ld	c, (hl)
    00000700 06 00            [ 7] 1776 	ld	b, #0x00
    00000702 0B               [ 6] 1777 	dec	bc
    00000703 DD 6E FF         [19] 1778 	ld	l, -1 (ix)
                                   1779 ;	spillPairReg hl
                                   1780 ;	spillPairReg hl
    00000706 26 00            [ 7] 1781 	ld	h, #0x00
                                   1782 ;	spillPairReg hl
                                   1783 ;	spillPairReg hl
    00000708 7D               [ 4] 1784 	ld	a, l
    00000709 91               [ 4] 1785 	sub	a, c
    0000070A 7C               [ 4] 1786 	ld	a, h
    0000070B 98               [ 4] 1787 	sbc	a, b
    0000070C E2r11r07         [10] 1788 	jp	PO, 00332$
    0000070F EE 80            [ 7] 1789 	xor	a, #0x80
    00000711                       1790 00332$:
    00000711 F2r57r07         [10] 1791 	jp	P, 00163$
                                   1792 ;C:\Users\reina\OneDrive\Documentos\MSXgl\engine/src/game_menu.c:406: i++;
    00000714 DD 34 FF         [23] 1793 	inc	-1 (ix)
                                   1794 ;C:\Users\reina\OneDrive\Documentos\MSXgl\engine/src/game_menu.c:407: if((g_MenuPage->Items[i].Type & ~MENU_ITEM_ALIGN_MASK) < MENU_ITEM_TEXT)
    00000717 EB               [ 4] 1795 	ex	de, hl
    00000718 23               [ 6] 1796 	inc	hl
    00000719 23               [ 6] 1797 	inc	hl
    0000071A 4E               [ 7] 1798 	ld	c, (hl)
    0000071B 23               [ 6] 1799 	inc	hl
    0000071C 46               [ 7] 1800 	ld	b, (hl)
    0000071D DD 5E FF         [19] 1801 	ld	e, -1 (ix)
    00000720 16 00            [ 7] 1802 	ld	d, #0x00
    00000722 6B               [ 4] 1803 	ld	l, e
    00000723 62               [ 4] 1804 	ld	h, d
    00000724 29               [11] 1805 	add	hl, hl
    00000725 19               [11] 1806 	add	hl, de
    00000726 29               [11] 1807 	add	hl, hl
    00000727 19               [11] 1808 	add	hl, de
    00000728 09               [11] 1809 	add	hl, bc
    00000729 23               [ 6] 1810 	inc	hl
    0000072A 23               [ 6] 1811 	inc	hl
    0000072B 4E               [ 7] 1812 	ld	c, (hl)
    0000072C 06 00            [ 7] 1813 	ld	b, #0x00
    0000072E 79               [ 4] 1814 	ld	a, c
    0000072F E6 CF            [ 7] 1815 	and	a, #0xcf
    00000731 D6 04            [ 7] 1816 	sub	a, #0x04
    00000733 78               [ 4] 1817 	ld	a, b
    00000734 17               [ 4] 1818 	rla
    00000735 3F               [ 4] 1819 	ccf
    00000736 1F               [ 4] 1820 	rra
    00000737 DE 80            [ 7] 1821 	sbc	a, #0x80
    00000739 30 BA            [12] 1822 	jr	NC, 00151$
                                   1823 ;C:\Users\reina\OneDrive\Documentos\MSXgl\engine/src/game_menu.c:409: u8 prev = g_MenuItem;
    0000073B 3Ar04r00         [13] 1824 	ld	a, (_g_MenuItem+0)
    0000073E 4F               [ 4] 1825 	ld	c, a
                                   1826 ;C:\Users\reina\OneDrive\Documentos\MSXgl\engine/src/game_menu.c:410: g_MenuItem = i;
    0000073F DD 7E FF         [19] 1827 	ld	a, -1 (ix)
    00000742 32r04r00         [13] 1828 	ld	(_g_MenuItem+0), a
                                   1829 ;C:\Users\reina\OneDrive\Documentos\MSXgl\engine/src/game_menu.c:411: Menu_DisplayItem(prev);
    00000745 79               [ 4] 1830 	ld	a, c
    00000746 CDr88r00         [17] 1831 	call	_Menu_DisplayItem
                                   1832 ;C:\Users\reina\OneDrive\Documentos\MSXgl\engine/src/game_menu.c:412: Menu_DisplayItem(g_MenuItem);
    00000749 3Ar04r00         [13] 1833 	ld	a, (_g_MenuItem+0)
    0000074C CDr88r00         [17] 1834 	call	_Menu_DisplayItem
                                   1835 ;C:\Users\reina\OneDrive\Documentos\MSXgl\engine/src/game_menu.c:413: g_MenuEventCB(MENU_EVENT_DOWN);
    0000074F 3E 01            [ 7] 1836 	ld	a, #0x01
    00000751 2Ar09r00         [16] 1837 	ld	hl, (_g_MenuEventCB)
    00000754 CDr00r00         [17] 1838 	call	___sdcc_call_hl
                                   1839 ;C:\Users\reina\OneDrive\Documentos\MSXgl\engine/src/game_menu.c:414: break;
    00000757                       1840 00163$:
                                   1841 ;C:\Users\reina\OneDrive\Documentos\MSXgl\engine/src/game_menu.c:418: }
    00000757 DD F9            [10] 1842 	ld	sp, ix
    00000759 DD E1            [14] 1843 	pop	ix
    0000075B C9               [10] 1844 	ret
                                   1845 	.area _CODE
                                   1846 	.area _INITIALIZER
                                   1847 	.area _CABS (ABS)
