                                      1 ;--------------------------------------------------------
                                      2 ; File Created by SDCC : free open source ANSI-C Compiler
                                      3 ; Version 4.2.0 #13081 (MINGW64)
                                      4 ;--------------------------------------------------------
                                      5 	.module print
                                      6 	.optsdcc -mz80
                                      7 	
                                      8 ;--------------------------------------------------------
                                      9 ; Public variables in this module
                                     10 ;--------------------------------------------------------
                                     11 	.globl _CopyNo8HeightFontData
                                     12 	.globl _Print_ValidatePattern
                                     13 	.globl _Print_ValidateChar
                                     14 	.globl _VDP_Poke_16K
                                     15 	.globl _VDP_FillVRAM_16K
                                     16 	.globl _VDP_WriteVRAM_16K
                                     17 	.globl _VDP_RegWrite
                                     18 	.globl _g_PrintInvalid
                                     19 	.globl _g_PrintData
                                     20 	.globl _g_SLTSL
                                     21 	.globl _g_GRPACY
                                     22 	.globl _g_GRPACX
                                     23 	.globl _g_LOGOPR
                                     24 	.globl _g_CMASK
                                     25 	.globl _g_CLOC
                                     26 	.globl _g_FNKSTR
                                     27 	.globl _g_ATRBYT
                                     28 	.globl _g_BDRCLR
                                     29 	.globl _g_BAKCLR
                                     30 	.globl _g_FORCLR
                                     31 	.globl _g_CSRX
                                     32 	.globl _g_CSRY
                                     33 	.globl _g_CLIKSW
                                     34 	.globl _g_MLTPAT
                                     35 	.globl _g_MLTATR
                                     36 	.globl _g_MLTCGP
                                     37 	.globl _g_MLTCOL
                                     38 	.globl _g_MLTNAM
                                     39 	.globl _g_GRPPAT
                                     40 	.globl _g_GRPATR
                                     41 	.globl _g_GRPCGP
                                     42 	.globl _g_GRPCOL
                                     43 	.globl _g_GRPNAM
                                     44 	.globl _g_T32PAT
                                     45 	.globl _g_T32ATR
                                     46 	.globl _g_T32CGP
                                     47 	.globl _g_T32COL
                                     48 	.globl _g_T32NAM
                                     49 	.globl _g_TXTPAT
                                     50 	.globl _g_TXTATR
                                     51 	.globl _g_TXTCGP
                                     52 	.globl _g_TXTCOL
                                     53 	.globl _g_TXTNAM
                                     54 	.globl _g_CLMLST
                                     55 	.globl _g_CRTCNT
                                     56 	.globl _g_LINLEN
                                     57 	.globl _g_LINL32
                                     58 	.globl _g_LINL40
                                     59 	.globl _g_HexChar
                                     60 	.globl _g_CHAR_16
                                     61 	.globl _g_MSXMID
                                     62 	.globl _g_MSXVER
                                     63 	.globl _g_ROMVersion
                                     64 	.globl _g_BASRVN
                                     65 	.globl _g_VDP_DW
                                     66 	.globl _g_VDP_DR
                                     67 	.globl _g_CGTABL
                                     68 	.globl _g_SVFFFD
                                     69 	.globl _g_RG27SAV
                                     70 	.globl _g_RG26SAV
                                     71 	.globl _g_RG25SAV
                                     72 	.globl _g_SVFFF8
                                     73 	.globl _g_MINROM
                                     74 	.globl _g_RG23SAV
                                     75 	.globl _g_RG22SAV
                                     76 	.globl _g_RG21SAV
                                     77 	.globl _g_RG20SAV
                                     78 	.globl _g_RG19SAV
                                     79 	.globl _g_RG18SAV
                                     80 	.globl _g_RG17SAV
                                     81 	.globl _g_RG16SAV
                                     82 	.globl _g_RG15SAV
                                     83 	.globl _g_RG14SAV
                                     84 	.globl _g_RG13SAV
                                     85 	.globl _g_RG12SAV
                                     86 	.globl _g_RG11SAV
                                     87 	.globl _g_RG10SAV
                                     88 	.globl _g_RG09SAV
                                     89 	.globl _g_RG08SAV
                                     90 	.globl _g_PROCNM
                                     91 	.globl _g_SLTWRK
                                     92 	.globl _g_SLTATR
                                     93 	.globl _g_SLTTBL
                                     94 	.globl _g_EXPTBL
                                     95 	.globl _g_MNROM
                                     96 	.globl _g_DRWANG
                                     97 	.globl _g_DRWSCL
                                     98 	.globl _g_DRWFLG
                                     99 	.globl _g_GYPOS
                                    100 	.globl _g_GXPOS
                                    101 	.globl _g_BRDATR
                                    102 	.globl _g_CASPRV
                                    103 	.globl _g_OLDSCR
                                    104 	.globl _g_SCRMOD
                                    105 	.globl _g_FLBMEM
                                    106 	.globl _g_KANAMD
                                    107 	.globl _g_KANAST
                                    108 	.globl _g_CAPST
                                    109 	.globl _g_CSTYLE
                                    110 	.globl _g_CSRSW
                                    111 	.globl _g_INSFLG
                                    112 	.globl _g_ESCCNT
                                    113 	.globl _g_GRPHED
                                    114 	.globl _g_WINWID
                                    115 	.globl _g_LOWLIM
                                    116 	.globl _g_INTCNT
                                    117 	.globl _g_INTVAL
                                    118 	.globl _g_JIFFY
                                    119 	.globl _g_PADX
                                    120 	.globl _g_PADY
                                    121 	.globl _g_INTFLG
                                    122 	.globl _g_RTYCNT
                                    123 	.globl _g_TRPTBL
                                    124 	.globl _g_HIMEM
                                    125 	.globl _g_BOTTOM
                                    126 	.globl _g_PATWRK
                                    127 	.globl _g_LINWRK
                                    128 	.globl _g_KEYBUF
                                    129 	.globl _g_NEWKEY
                                    130 	.globl _g_OLDKEY
                                    131 	.globl _g_CLIKFL
                                    132 	.globl _g_ONGSBF
                                    133 	.globl _g_FNKFLG
                                    134 	.globl _g_FNKSWI
                                    135 	.globl _g_CODSAV
                                    136 	.globl _g_FSTPOS
                                    137 	.globl _g_LINTTB
                                    138 	.globl _g_BASROM
                                    139 	.globl _g_ENSTOP
                                    140 	.globl _g_VCBC
                                    141 	.globl _g_VCBB
                                    142 	.globl _g_VCBA
                                    143 	.globl _g_PLYCNT
                                    144 	.globl _g_MUSICF
                                    145 	.globl _g_QUEUEN
                                    146 	.globl _g_MCLPTR
                                    147 	.globl _g_MCLLEN
                                    148 	.globl _g_SAVVOL
                                    149 	.globl _g_VOICEN
                                    150 	.globl _g_SAVSP
                                    151 	.globl _g_PRSCNT
                                    152 	.globl _g_LSTMOD
                                    153 	.globl _g_LSTCOM
                                    154 	.globl _g_COMMSK
                                    155 	.globl _g_ESTBLS
                                    156 	.globl _g_FLAGS
                                    157 	.globl _g_ERRORS
                                    158 	.globl _g_DATCNT
                                    159 	.globl _g_DEVNUM
                                    160 	.globl _g_OLDINT
                                    161 	.globl _g_OLDSTT
                                    162 	.globl _g_MEXBIh
                                    163 	.globl _g_RSIQLN
                                    164 	.globl _g_RSFCB
                                    165 	.globl _g_TOCNT
                                    166 	.globl _g_RSTMP
                                    167 	.globl _g_YSAVE
                                    168 	.globl _g_XSAVE
                                    169 	.globl _g_NORUSE
                                    170 	.globl _g_MODE
                                    171 	.globl _g_ROMA
                                    172 	.globl _g_CHRCNT
                                    173 	.globl _g_EXBRSA
                                    174 	.globl _g_AVCSAV
                                    175 	.globl _g_ACPAGE
                                    176 	.globl _g_DPPAGE
                                    177 	.globl _g_RS2IQ
                                    178 	.globl _g_VOICCQ
                                    179 	.globl _g_VOICBQ
                                    180 	.globl _g_VOICAQ
                                    181 	.globl _g_QUEBAK
                                    182 	.globl _g_QUETAB
                                    183 	.globl _g_ASPCT2
                                    184 	.globl _g_ASPCT1
                                    185 	.globl _g_HEADER
                                    186 	.globl _g_HIGH
                                    187 	.globl _g_LOW
                                    188 	.globl _g_CS240
                                    189 	.globl _g_CS120
                                    190 	.globl _g_GETPNT
                                    191 	.globl _g_PUTPNT
                                    192 	.globl _g_REPCNT
                                    193 	.globl _g_SCNCNT
                                    194 	.globl _g_FRCNEW
                                    195 	.globl _g_QUEUES
                                    196 	.globl _g_MINUPD
                                    197 	.globl _g_MAXUPD
                                    198 	.globl _g_TRGFLG
                                    199 	.globl _g_STATFL
                                    200 	.globl _g_RG7SAV
                                    201 	.globl _g_RG6SAV
                                    202 	.globl _g_RG5SAV
                                    203 	.globl _g_RG4SAV
                                    204 	.globl _g_RG3SAV
                                    205 	.globl _g_RG2SAV
                                    206 	.globl _g_RG1SAV
                                    207 	.globl _g_RG0SAV
                                    208 	.globl _g_CNSDFG
                                    209 	.globl _g_USRTAB
                                    210 	.globl _g_CLPRIM
                                    211 	.globl _g_WRPRIM
                                    212 	.globl _g_RDPRIM
                                    213 	.globl _Print_Initialize
                                    214 	.globl _Print_SetMode
                                    215 	.globl _Print_SetFont
                                    216 	.globl _Print_SetColor
                                    217 	.globl _Print_SetColorShade
                                    218 	.globl _Print_SetTextFont
                                    219 	.globl _DrawChar_Layout
                                    220 	.globl _Print_Clear
                                    221 	.globl _Print_Backspace
                                    222 	.globl _Print_DrawChar
                                    223 	.globl _Print_DrawCharX
                                    224 	.globl _Print_DrawText
                                    225 	.globl _Print_DrawBin8
                                    226 	.globl _Print_DrawHex8
                                    227 	.globl _Print_DrawHex16
                                    228 	.globl _Print_DrawHex32
                                    229 	.globl _Print_DrawInt
                                    230 	.globl _Print_DrawFormat
                                    231 	.globl _Print_DrawLineH
                                    232 	.globl _Print_DrawLineV
                                    233 	.globl _Print_DrawBox
                                    234 ;--------------------------------------------------------
                                    235 ; special function registers
                                    236 ;--------------------------------------------------------
                                    237 ;--------------------------------------------------------
                                    238 ; ram data
                                    239 ;--------------------------------------------------------
                                    240 	.area _DATA
                         0000F3AE   241 _g_LINL40	=	0xf3ae
                         0000F3AF   242 _g_LINL32	=	0xf3af
                         0000F3B0   243 _g_LINLEN	=	0xf3b0
                         0000F3B1   244 _g_CRTCNT	=	0xf3b1
                         0000F3B2   245 _g_CLMLST	=	0xf3b2
                         0000F3B3   246 _g_TXTNAM	=	0xf3b3
                         0000F3B5   247 _g_TXTCOL	=	0xf3b5
                         0000F3B7   248 _g_TXTCGP	=	0xf3b7
                         0000F3B9   249 _g_TXTATR	=	0xf3b9
                         0000F3BB   250 _g_TXTPAT	=	0xf3bb
                         0000F3BD   251 _g_T32NAM	=	0xf3bd
                         0000F3BF   252 _g_T32COL	=	0xf3bf
                         0000F3C1   253 _g_T32CGP	=	0xf3c1
                         0000F3C3   254 _g_T32ATR	=	0xf3c3
                         0000F3C5   255 _g_T32PAT	=	0xf3c5
                         0000F3C7   256 _g_GRPNAM	=	0xf3c7
                         0000F3C9   257 _g_GRPCOL	=	0xf3c9
                         0000F3CB   258 _g_GRPCGP	=	0xf3cb
                         0000F3CD   259 _g_GRPATR	=	0xf3cd
                         0000F3CF   260 _g_GRPPAT	=	0xf3cf
                         0000F3D1   261 _g_MLTNAM	=	0xf3d1
                         0000F3D3   262 _g_MLTCOL	=	0xf3d3
                         0000F3D5   263 _g_MLTCGP	=	0xf3d5
                         0000F3D7   264 _g_MLTATR	=	0xf3d7
                         0000F3D9   265 _g_MLTPAT	=	0xf3d9
                         0000F3DB   266 _g_CLIKSW	=	0xf3db
                         0000F3DC   267 _g_CSRY	=	0xf3dc
                         0000F3DD   268 _g_CSRX	=	0xf3dd
                         0000F3E9   269 _g_FORCLR	=	0xf3e9
                         0000F3EA   270 _g_BAKCLR	=	0xf3ea
                         0000F3EB   271 _g_BDRCLR	=	0xf3eb
                         0000F3F2   272 _g_ATRBYT	=	0xf3f2
                         0000F87F   273 _g_FNKSTR	=	0xf87f
                         0000F92A   274 _g_CLOC	=	0xf92a
                         0000F92C   275 _g_CMASK	=	0xf92c
                         0000FB02   276 _g_LOGOPR	=	0xfb02
                         0000FCB7   277 _g_GRPACX	=	0xfcb7
                         0000FCB9   278 _g_GRPACY	=	0xfcb9
                         0000FFFF   279 _g_SLTSL	=	0xffff
    00000000                        280 _g_PrintData::
    00000000                        281 	.ds 50
                                    282 ;--------------------------------------------------------
                                    283 ; ram data
                                    284 ;--------------------------------------------------------
                                    285 	.area _INITIALIZED
    00000000                        286 _g_PrintInvalid::
    00000000                        287 	.ds 8
                                    288 ;--------------------------------------------------------
                                    289 ; absolute external ram data
                                    290 ;--------------------------------------------------------
                                    291 	.area _DABS (ABS)
                                    292 ;--------------------------------------------------------
                                    293 ; global & static initialisations
                                    294 ;--------------------------------------------------------
                                    295 	.area _HOME
                                    296 	.area _GSINIT
                                    297 	.area _GSFINAL
                                    298 	.area _GSINIT
                                    299 ;--------------------------------------------------------
                                    300 ; Home
                                    301 ;--------------------------------------------------------
                                    302 	.area _HOME
                                    303 	.area _HOME
                                    304 ;--------------------------------------------------------
                                    305 ; code
                                    306 ;--------------------------------------------------------
                                    307 	.area _CODE
                                    308 ;C:\Users\reina\OneDrive\Documentos\MSXgl\engine/src/print.c:153: bool Print_Initialize()
                                    309 ;	---------------------------------
                                    310 ; Function Print_Initialize
                                    311 ; ---------------------------------
    00000000                        312 _Print_Initialize::
                                    313 ;C:\Users\reina\OneDrive\Documentos\MSXgl\engine/src/print.c:155: Print_SetColor(0xF, 0x0);
    00000000 2E 00            [ 7]  314 	ld	l, #0x00
                                    315 ;	spillPairReg hl
                                    316 ;	spillPairReg hl
    00000002 3E 0F            [ 7]  317 	ld	a, #0x0f
    00000004 CDr55r01         [17]  318 	call	_Print_SetColor
                                    319 ;C:\Users\reina\OneDrive\Documentos\MSXgl\engine/src/print.h:223: g_PrintData.CursorX = x;
    00000007 21r05r00         [10]  320 	ld	hl, #(_g_PrintData + 5)
    0000000A 36 00            [10]  321 	ld	(hl), #0x00
                                    322 ;C:\Users\reina\OneDrive\Documentos\MSXgl\engine/src/print.h:224: g_PrintData.CursorY = y;
    0000000C 21r06r00         [10]  323 	ld	hl, #(_g_PrintData + 6)
    0000000F 36 00            [10]  324 	ld	(hl), #0x00
                                    325 ;C:\Users\reina\OneDrive\Documentos\MSXgl\engine/src/vdp.h:476: inline u8 VDP_GetMode() { return g_VDP_Data.Mode; }
    00000011 3Ar00r00         [13]  326 	ld	a, (#_g_VDP_Data + 0)
                                    327 ;C:\Users\reina\OneDrive\Documentos\MSXgl\engine/src/print.c:164: switch(VDP_GetMode()) // Screen mode specific initialization
    00000014 B7               [ 4]  328 	or	a, a
    00000015 28 0F            [12]  329 	jr	Z, 00101$
    00000017 FE 01            [ 7]  330 	cp	a, #0x01
    00000019 28 37            [12]  331 	jr	Z, 00106$
    0000001B FE 02            [ 7]  332 	cp	a, #0x02
    0000001D 28 15            [12]  333 	jr	Z, 00103$
    0000001F D6 03            [ 7]  334 	sub	a, #0x03
    00000021 28 1F            [12]  335 	jr	Z, 00104$
    00000023 C3r50r00         [10]  336 	jp	00105$
                                    337 ;C:\Users\reina\OneDrive\Documentos\MSXgl\engine/src/print.c:167: case VDP_MODE_TEXT1:		// 40 characters per line of text, one colour for each character
    00000026                        338 00101$:
                                    339 ;C:\Users\reina\OneDrive\Documentos\MSXgl\engine/src/print.h:258: inline void Print_SetTabSize(u8 size) { g_PrintData.TabSize = size; }
    00000026 21r04r00         [10]  340 	ld	hl, #(_g_PrintData + 4)
    00000029 36 03            [10]  341 	ld	(hl), #0x03
                                    342 ;C:\Users\reina\OneDrive\Documentos\MSXgl\engine/src/print.c:169: g_PrintData.ScreenWidth = 40;
    0000002B 21 28 00         [10]  343 	ld	hl, #0x0028
    0000002E 22r1Ar00         [16]  344 	ld	((_g_PrintData + 26)), hl
                                    345 ;C:\Users\reina\OneDrive\Documentos\MSXgl\engine/src/print.c:170: break;
    00000031 C3r52r00         [10]  346 	jp	00106$
                                    347 ;C:\Users\reina\OneDrive\Documentos\MSXgl\engine/src/print.c:177: case VDP_MODE_GRAPHIC1:		// 32 characters per one line of text, the COLOURed character available
    00000034                        348 00103$:
                                    349 ;C:\Users\reina\OneDrive\Documentos\MSXgl\engine/src/print.h:258: inline void Print_SetTabSize(u8 size) { g_PrintData.TabSize = size; }
    00000034 21r04r00         [10]  350 	ld	hl, #(_g_PrintData + 4)
    00000037 36 03            [10]  351 	ld	(hl), #0x03
                                    352 ;C:\Users\reina\OneDrive\Documentos\MSXgl\engine/src/print.c:179: g_PrintData.ScreenWidth = 32;
    00000039 21 20 00         [10]  353 	ld	hl, #0x0020
    0000003C 22r1Ar00         [16]  354 	ld	((_g_PrintData + 26)), hl
                                    355 ;C:\Users\reina\OneDrive\Documentos\MSXgl\engine/src/print.c:180: break;
    0000003F C3r52r00         [10]  356 	jp	00106$
                                    357 ;C:\Users\reina\OneDrive\Documentos\MSXgl\engine/src/print.c:183: case VDP_MODE_GRAPHIC2:		// 256 x 192, the colour is specififed for each 8 dots
    00000042                        358 00104$:
                                    359 ;C:\Users\reina\OneDrive\Documentos\MSXgl\engine/src/print.h:258: inline void Print_SetTabSize(u8 size) { g_PrintData.TabSize = size; }
    00000042 21r04r00         [10]  360 	ld	hl, #(_g_PrintData + 4)
    00000045 36 03            [10]  361 	ld	(hl), #0x03
                                    362 ;C:\Users\reina\OneDrive\Documentos\MSXgl\engine/src/print.c:185: g_PrintData.ScreenWidth = 32;
    00000047 21 20 00         [10]  363 	ld	hl, #0x0020
    0000004A 22r1Ar00         [16]  364 	ld	((_g_PrintData + 26)), hl
                                    365 ;C:\Users\reina\OneDrive\Documentos\MSXgl\engine/src/print.c:186: break;
    0000004D C3r52r00         [10]  366 	jp	00106$
                                    367 ;C:\Users\reina\OneDrive\Documentos\MSXgl\engine/src/print.c:231: default:
    00000050                        368 00105$:
                                    369 ;C:\Users\reina\OneDrive\Documentos\MSXgl\engine/src/print.c:233: return FALSE;
    00000050 AF               [ 4]  370 	xor	a, a
    00000051 C9               [10]  371 	ret
                                    372 ;C:\Users\reina\OneDrive\Documentos\MSXgl\engine/src/print.c:234: }
    00000052                        373 00106$:
                                    374 ;C:\Users\reina\OneDrive\Documentos\MSXgl\engine/src/print.c:238: return TRUE;
    00000052 3E 01            [ 7]  375 	ld	a, #0x01
                                    376 ;C:\Users\reina\OneDrive\Documentos\MSXgl\engine/src/print.c:239: }
    00000054 C9               [10]  377 	ret
                         0000F380   378 _g_RDPRIM	=	0xf380
                         0000F385   379 _g_WRPRIM	=	0xf385
                         0000F38C   380 _g_CLPRIM	=	0xf38c
                         0000F39A   381 _g_USRTAB	=	0xf39a
                         0000F3DE   382 _g_CNSDFG	=	0xf3de
                         0000F3DF   383 _g_RG0SAV	=	0xf3df
                         0000F3E0   384 _g_RG1SAV	=	0xf3e0
                         0000F3E1   385 _g_RG2SAV	=	0xf3e1
                         0000F3E2   386 _g_RG3SAV	=	0xf3e2
                         0000F3E3   387 _g_RG4SAV	=	0xf3e3
                         0000F3E4   388 _g_RG5SAV	=	0xf3e4
                         0000F3E5   389 _g_RG6SAV	=	0xf3e5
                         0000F3E6   390 _g_RG7SAV	=	0xf3e6
                         0000F3E7   391 _g_STATFL	=	0xf3e7
                         0000F3E8   392 _g_TRGFLG	=	0xf3e8
                         0000F3EC   393 _g_MAXUPD	=	0xf3ec
                         0000F3EF   394 _g_MINUPD	=	0xf3ef
                         0000F3F3   395 _g_QUEUES	=	0xf3f3
                         0000F3F5   396 _g_FRCNEW	=	0xf3f5
                         0000F3F6   397 _g_SCNCNT	=	0xf3f6
                         0000F3F7   398 _g_REPCNT	=	0xf3f7
                         0000F3F8   399 _g_PUTPNT	=	0xf3f8
                         0000F3FA   400 _g_GETPNT	=	0xf3fa
                         0000F3FC   401 _g_CS120	=	0xf3fc
                         0000F401   402 _g_CS240	=	0xf401
                         0000F406   403 _g_LOW	=	0xf406
                         0000F408   404 _g_HIGH	=	0xf408
                         0000F40A   405 _g_HEADER	=	0xf40a
                         0000F40B   406 _g_ASPCT1	=	0xf40b
                         0000F40D   407 _g_ASPCT2	=	0xf40d
                         0000F959   408 _g_QUETAB	=	0xf959
                         0000F971   409 _g_QUEBAK	=	0xf971
                         0000F975   410 _g_VOICAQ	=	0xf975
                         0000F9F5   411 _g_VOICBQ	=	0xf9f5
                         0000FA75   412 _g_VOICCQ	=	0xfa75
                         0000FAF5   413 _g_RS2IQ	=	0xfaf5
                         0000FAF5   414 _g_DPPAGE	=	0xfaf5
                         0000FAF6   415 _g_ACPAGE	=	0xfaf6
                         0000FAF7   416 _g_AVCSAV	=	0xfaf7
                         0000FAF8   417 _g_EXBRSA	=	0xfaf8
                         0000FAF9   418 _g_CHRCNT	=	0xfaf9
                         0000FAFA   419 _g_ROMA	=	0xfafa
                         0000FAFC   420 _g_MODE	=	0xfafc
                         0000FAFD   421 _g_NORUSE	=	0xfafd
                         0000FAFE   422 _g_XSAVE	=	0xfafe
                         0000FB00   423 _g_YSAVE	=	0xfb00
                         0000FB03   424 _g_RSTMP	=	0xfb03
                         0000FB03   425 _g_TOCNT	=	0xfb03
                         0000FB04   426 _g_RSFCB	=	0xfb04
                         0000FB06   427 _g_RSIQLN	=	0xfb06
                         0000FB07   428 _g_MEXBIh	=	0xfb07
                         0000FB0C   429 _g_OLDSTT	=	0xfb0c
                         0000FB0C   430 _g_OLDINT	=	0xfb0c
                         0000FB16   431 _g_DEVNUM	=	0xfb16
                         0000FB17   432 _g_DATCNT	=	0xfb17
                         0000FB1A   433 _g_ERRORS	=	0xfb1a
                         0000FB1B   434 _g_FLAGS	=	0xfb1b
                         0000FB1C   435 _g_ESTBLS	=	0xfb1c
                         0000FB1D   436 _g_COMMSK	=	0xfb1d
                         0000FB1E   437 _g_LSTCOM	=	0xfb1e
                         0000FB1F   438 _g_LSTMOD	=	0xfb1f
                         0000FB35   439 _g_PRSCNT	=	0xfb35
                         0000FB36   440 _g_SAVSP	=	0xfb36
                         0000FB38   441 _g_VOICEN	=	0xfb38
                         0000FB39   442 _g_SAVVOL	=	0xfb39
                         0000FB3B   443 _g_MCLLEN	=	0xfb3b
                         0000FB3C   444 _g_MCLPTR	=	0xfb3c
                         0000FB3E   445 _g_QUEUEN	=	0xfb3e
                         0000FB3F   446 _g_MUSICF	=	0xfb3f
                         0000FB40   447 _g_PLYCNT	=	0xfb40
                         0000FB41   448 _g_VCBA	=	0xfb41
                         0000FB66   449 _g_VCBB	=	0xfb66
                         0000FB8B   450 _g_VCBC	=	0xfb8b
                         0000FBB0   451 _g_ENSTOP	=	0xfbb0
                         0000FBB1   452 _g_BASROM	=	0xfbb1
                         0000FBB2   453 _g_LINTTB	=	0xfbb2
                         0000FBCA   454 _g_FSTPOS	=	0xfbca
                         0000FBCC   455 _g_CODSAV	=	0xfbcc
                         0000FBCD   456 _g_FNKSWI	=	0xfbcd
                         0000FBCE   457 _g_FNKFLG	=	0xfbce
                         0000FBD8   458 _g_ONGSBF	=	0xfbd8
                         0000FBD9   459 _g_CLIKFL	=	0xfbd9
                         0000FBDA   460 _g_OLDKEY	=	0xfbda
                         0000FBE5   461 _g_NEWKEY	=	0xfbe5
                         0000FBF0   462 _g_KEYBUF	=	0xfbf0
                         0000FC18   463 _g_LINWRK	=	0xfc18
                         0000FC40   464 _g_PATWRK	=	0xfc40
                         0000FC48   465 _g_BOTTOM	=	0xfc48
                         0000FC4A   466 _g_HIMEM	=	0xfc4a
                         0000FC4C   467 _g_TRPTBL	=	0xfc4c
                         0000FC9A   468 _g_RTYCNT	=	0xfc9a
                         0000FC9B   469 _g_INTFLG	=	0xfc9b
                         0000FC9C   470 _g_PADY	=	0xfc9c
                         0000FC9D   471 _g_PADX	=	0xfc9d
                         0000FC9E   472 _g_JIFFY	=	0xfc9e
                         0000FCA0   473 _g_INTVAL	=	0xfca0
                         0000FCA2   474 _g_INTCNT	=	0xfca2
                         0000FCA4   475 _g_LOWLIM	=	0xfca4
                         0000FCA5   476 _g_WINWID	=	0xfca5
                         0000FCA6   477 _g_GRPHED	=	0xfca6
                         0000FCA7   478 _g_ESCCNT	=	0xfca7
                         0000FCA8   479 _g_INSFLG	=	0xfca8
                         0000FCA9   480 _g_CSRSW	=	0xfca9
                         0000FCAA   481 _g_CSTYLE	=	0xfcaa
                         0000FCAB   482 _g_CAPST	=	0xfcab
                         0000FCAC   483 _g_KANAST	=	0xfcac
                         0000FCAD   484 _g_KANAMD	=	0xfcad
                         0000FCAE   485 _g_FLBMEM	=	0xfcae
                         0000FCAF   486 _g_SCRMOD	=	0xfcaf
                         0000FCB0   487 _g_OLDSCR	=	0xfcb0
                         0000FCB1   488 _g_CASPRV	=	0xfcb1
                         0000FCB2   489 _g_BRDATR	=	0xfcb2
                         0000FCB3   490 _g_GXPOS	=	0xfcb3
                         0000FCB5   491 _g_GYPOS	=	0xfcb5
                         0000FCBB   492 _g_DRWFLG	=	0xfcbb
                         0000FCBC   493 _g_DRWSCL	=	0xfcbc
                         0000FCBD   494 _g_DRWANG	=	0xfcbd
                         0000FCC1   495 _g_MNROM	=	0xfcc1
                         0000FCC1   496 _g_EXPTBL	=	0xfcc1
                         0000FCC5   497 _g_SLTTBL	=	0xfcc5
                         0000FCC9   498 _g_SLTATR	=	0xfcc9
                         0000FD09   499 _g_SLTWRK	=	0xfd09
                         0000FD89   500 _g_PROCNM	=	0xfd89
                         0000FFE7   501 _g_RG08SAV	=	0xffe7
                         0000FFE8   502 _g_RG09SAV	=	0xffe8
                         0000FFE9   503 _g_RG10SAV	=	0xffe9
                         0000FFEA   504 _g_RG11SAV	=	0xffea
                         0000FFEB   505 _g_RG12SAV	=	0xffeb
                         0000FFEC   506 _g_RG13SAV	=	0xffec
                         0000FFED   507 _g_RG14SAV	=	0xffed
                         0000FFEE   508 _g_RG15SAV	=	0xffee
                         0000FFEF   509 _g_RG16SAV	=	0xffef
                         0000FFF0   510 _g_RG17SAV	=	0xfff0
                         0000FFF1   511 _g_RG18SAV	=	0xfff1
                         0000FFF2   512 _g_RG19SAV	=	0xfff2
                         0000FFF3   513 _g_RG20SAV	=	0xfff3
                         0000FFF4   514 _g_RG21SAV	=	0xfff4
                         0000FFF5   515 _g_RG22SAV	=	0xfff5
                         0000FFF6   516 _g_RG23SAV	=	0xfff6
                         0000FFF7   517 _g_MINROM	=	0xfff7
                         0000FFF8   518 _g_SVFFF8	=	0xfff8
                         0000FFFA   519 _g_RG25SAV	=	0xfffa
                         0000FFFB   520 _g_RG26SAV	=	0xfffb
                         0000FFFC   521 _g_RG27SAV	=	0xfffc
                         0000FFFD   522 _g_SVFFFD	=	0xfffd
                         00000004   523 _g_CGTABL	=	0x0004
                         00000006   524 _g_VDP_DR	=	0x0006
                         00000007   525 _g_VDP_DW	=	0x0007
                         0000002B   526 _g_BASRVN	=	0x002b
                         0000002B   527 _g_ROMVersion	=	0x002b
                         0000002D   528 _g_MSXVER	=	0x002d
                         0000002E   529 _g_MSXMID	=	0x002e
                         00000034   530 _g_CHAR_16	=	0x0034
    00000055                        531 _g_HexChar:
    00000055 30                     532 	.db #0x30	; 48	'0'
    00000056 31                     533 	.db #0x31	; 49	'1'
    00000057 32                     534 	.db #0x32	; 50	'2'
    00000058 33                     535 	.db #0x33	; 51	'3'
    00000059 34                     536 	.db #0x34	; 52	'4'
    0000005A 35                     537 	.db #0x35	; 53	'5'
    0000005B 36                     538 	.db #0x36	; 54	'6'
    0000005C 37                     539 	.db #0x37	; 55	'7'
    0000005D 38                     540 	.db #0x38	; 56	'8'
    0000005E 39                     541 	.db #0x39	; 57	'9'
    0000005F 41                     542 	.db #0x41	; 65	'A'
    00000060 42                     543 	.db #0x42	; 66	'B'
    00000061 43                     544 	.db #0x43	; 67	'C'
    00000062 44                     545 	.db #0x44	; 68	'D'
    00000063 45                     546 	.db #0x45	; 69	'E'
    00000064 46                     547 	.db #0x46	; 70	'F'
                                    548 ;C:\Users\reina\OneDrive\Documentos\MSXgl\engine/src/print.c:243: void Print_SetMode(u8 mode)
                                    549 ;	---------------------------------
                                    550 ; Function Print_SetMode
                                    551 ; ---------------------------------
    00000065                        552 _Print_SetMode::
    00000065 4F               [ 4]  553 	ld	c, a
                                    554 ;C:\Users\reina\OneDrive\Documentos\MSXgl\engine/src/print.c:245: g_PrintData.SourceMode = mode;
    00000066 21r19r00         [10]  555 	ld	hl, #_g_PrintData + 25
    00000069 ED 67            [18]  556 	rrd
    0000006B 79               [ 4]  557 	ld	a, c
    0000006C ED 6F            [18]  558 	rld
                                    559 ;C:\Users\reina\OneDrive\Documentos\MSXgl\engine/src/print.c:247: switch(g_PrintData.SourceMode)
    0000006E 7E               [ 7]  560 	ld	a, (hl)
    0000006F E6 0F            [ 7]  561 	and	a, #0x0f
    00000071 D6 04            [ 7]  562 	sub	a, #0x04
    00000073 C0               [11]  563 	ret	NZ
                                    564 ;C:\Users\reina\OneDrive\Documentos\MSXgl\engine/src/print.c:312: g_PrintData.DrawChar = DrawChar_Layout;
    00000074 21rFAr06         [10]  565 	ld	hl, #_DrawChar_Layout
    00000077 22r17r00         [16]  566 	ld	((_g_PrintData + 23)), hl
                                    567 ;C:\Users\reina\OneDrive\Documentos\MSXgl\engine/src/print.c:316: };
                                    568 ;C:\Users\reina\OneDrive\Documentos\MSXgl\engine/src/print.c:317: }
    0000007A C9               [10]  569 	ret
                                    570 ;C:\Users\reina\OneDrive\Documentos\MSXgl\engine/src/print.c:322: void Print_SetFont(const u8* font)
                                    571 ;	---------------------------------
                                    572 ; Function Print_SetFont
                                    573 ; ---------------------------------
    0000007B                        574 _Print_SetFont::
    0000007B DD E5            [15]  575 	push	ix
    0000007D DD 21 00 00      [14]  576 	ld	ix,#0
    00000081 DD 39            [15]  577 	add	ix,sp
    00000083 F5               [11]  578 	push	af
    00000084 F5               [11]  579 	push	af
    00000085 EB               [ 4]  580 	ex	de, hl
                                    581 ;C:\Users\reina\OneDrive\Documentos\MSXgl\engine/src/print.c:324: if(font == NULL) // Use Bios font (if any)
    00000086 7A               [ 4]  582 	ld	a, d
    00000087 B3               [ 4]  583 	or	a, e
    00000088 20 42            [12]  584 	jr	NZ, 00102$
                                    585 ;C:\Users\reina\OneDrive\Documentos\MSXgl\engine/src/print.c:325: Print_SetFontEx(8, 8, 6, 8, 1, 255, (const u8*)g_CGTABL + 8);
    0000008A ED 4B 04 00      [20]  586 	ld	bc, (_g_CGTABL)
    0000008E 21 08 00         [10]  587 	ld	hl, #0x0008
    00000091 09               [11]  588 	add	hl, bc
    00000092 EB               [ 4]  589 	ex	de, hl
                                    590 ;C:\Users\reina\OneDrive\Documentos\MSXgl\engine/src/print.h:197: g_PrintData.PatternX     = patternX;
    00000093 21r00r00         [10]  591 	ld	hl, #_g_PrintData
    00000096 36 08            [10]  592 	ld	(hl), #0x08
                                    593 ;C:\Users\reina\OneDrive\Documentos\MSXgl\engine/src/print.h:198: g_PrintData.PatternY     = patternY;
    00000098 01r01r00         [10]  594 	ld	bc, #_g_PrintData + 1
    0000009B 3E 08            [ 7]  595 	ld	a, #0x08
    0000009D 02               [ 7]  596 	ld	(bc), a
                                    597 ;C:\Users\reina\OneDrive\Documentos\MSXgl\engine/src/print.h:199: g_PrintData.UnitX        = sizeX;
    0000009E 21r02r00         [10]  598 	ld	hl, #(_g_PrintData + 2)
    000000A1 36 06            [10]  599 	ld	(hl), #0x06
                                    600 ;C:\Users\reina\OneDrive\Documentos\MSXgl\engine/src/print.h:200: g_PrintData.UnitY        = sizeY;
    000000A3 21r03r00         [10]  601 	ld	hl, #(_g_PrintData + 3)
    000000A6 36 08            [10]  602 	ld	(hl), #0x08
                                    603 ;C:\Users\reina\OneDrive\Documentos\MSXgl\engine/src/print.h:201: g_PrintData.CharFirst    = firstChr;
    000000A8 21r14r00         [10]  604 	ld	hl, #(_g_PrintData + 20)
    000000AB 36 01            [10]  605 	ld	(hl), #0x01
                                    606 ;C:\Users\reina\OneDrive\Documentos\MSXgl\engine/src/print.h:202: g_PrintData.CharLast     = lastChr;
    000000AD 21r15r00         [10]  607 	ld	hl, #(_g_PrintData + 21)
    000000B0 36 FF            [10]  608 	ld	(hl), #0xff
                                    609 ;C:\Users\reina\OneDrive\Documentos\MSXgl\engine/src/print.h:203: g_PrintData.CharCount    = lastChr - firstChr + 1;
    000000B2 21r16r00         [10]  610 	ld	hl, #(_g_PrintData + 22)
    000000B5 36 FF            [10]  611 	ld	(hl), #0xff
                                    612 ;C:\Users\reina\OneDrive\Documentos\MSXgl\engine/src/print.h:204: g_PrintData.FontPatterns = patterns;
    000000B7 ED 53r1Cr00      [20]  613 	ld	((_g_PrintData + 28)), de
                                    614 ;C:\Users\reina\OneDrive\Documentos\MSXgl\engine/src/print.h:205: g_PrintData.FontAddr     = g_PrintData.FontPatterns - (firstChr * g_PrintData.PatternY); // pre-compute address of the virtual index 0 character (used to quick drawing in PutChar_GX functions)
    000000BB 0A               [ 7]  615 	ld	a, (bc)
    000000BC 4F               [ 4]  616 	ld	c, a
    000000BD 06 00            [ 7]  617 	ld	b, #0x00
    000000BF 7B               [ 4]  618 	ld	a, e
    000000C0 91               [ 4]  619 	sub	a, c
    000000C1 4F               [ 4]  620 	ld	c, a
    000000C2 7A               [ 4]  621 	ld	a, d
    000000C3 98               [ 4]  622 	sbc	a, b
    000000C4 47               [ 4]  623 	ld	b, a
    000000C5 ED 43r1Er00      [20]  624 	ld	((_g_PrintData + 30)), bc
                                    625 ;C:\Users\reina\OneDrive\Documentos\MSXgl\engine/src/print.c:325: Print_SetFontEx(8, 8, 6, 8, 1, 255, (const u8*)g_CGTABL + 8);
    000000C9 C3r50r01         [10]  626 	jp	00106$
    000000CC                        627 00102$:
                                    628 ;C:\Users\reina\OneDrive\Documentos\MSXgl\engine/src/print.c:327: Print_SetFontEx(font[0] >> 4, font[0] & 0x0F, font[1] >> 4, font[1] & 0x0F, font[2], font[3], font+4);
    000000CC 21 04 00         [10]  629 	ld	hl, #0x0004
    000000CF 19               [11]  630 	add	hl, de
    000000D0 4D               [ 4]  631 	ld	c, l
    000000D1 44               [ 4]  632 	ld	b, h
    000000D2 6B               [ 4]  633 	ld	l, e
                                    634 ;	spillPairReg hl
                                    635 ;	spillPairReg hl
    000000D3 62               [ 4]  636 	ld	h, d
                                    637 ;	spillPairReg hl
                                    638 ;	spillPairReg hl
    000000D4 23               [ 6]  639 	inc	hl
    000000D5 23               [ 6]  640 	inc	hl
    000000D6 23               [ 6]  641 	inc	hl
    000000D7 7E               [ 7]  642 	ld	a, (hl)
    000000D8 DD 77 FC         [19]  643 	ld	-4 (ix), a
    000000DB 6B               [ 4]  644 	ld	l, e
                                    645 ;	spillPairReg hl
                                    646 ;	spillPairReg hl
    000000DC 62               [ 4]  647 	ld	h, d
                                    648 ;	spillPairReg hl
                                    649 ;	spillPairReg hl
    000000DD 23               [ 6]  650 	inc	hl
    000000DE 23               [ 6]  651 	inc	hl
    000000DF 7E               [ 7]  652 	ld	a, (hl)
    000000E0 DD 77 FD         [19]  653 	ld	-3 (ix), a
    000000E3 6B               [ 4]  654 	ld	l, e
                                    655 ;	spillPairReg hl
                                    656 ;	spillPairReg hl
    000000E4 62               [ 4]  657 	ld	h, d
                                    658 ;	spillPairReg hl
                                    659 ;	spillPairReg hl
    000000E5 23               [ 6]  660 	inc	hl
    000000E6 7E               [ 7]  661 	ld	a, (hl)
    000000E7 F5               [11]  662 	push	af
    000000E8 E6 0F            [ 7]  663 	and	a, #0x0f
    000000EA DD 77 FE         [19]  664 	ld	-2 (ix), a
    000000ED F1               [10]  665 	pop	af
    000000EE 07               [ 4]  666 	rlca
    000000EF 07               [ 4]  667 	rlca
    000000F0 07               [ 4]  668 	rlca
    000000F1 07               [ 4]  669 	rlca
    000000F2 E6 0F            [ 7]  670 	and	a, #0x0f
    000000F4 DD 77 FF         [19]  671 	ld	-1 (ix), a
    000000F7 1A               [ 7]  672 	ld	a, (de)
    000000F8 F5               [11]  673 	push	af
    000000F9 E6 0F            [ 7]  674 	and	a, #0x0f
    000000FB 5F               [ 4]  675 	ld	e, a
    000000FC F1               [10]  676 	pop	af
    000000FD 07               [ 4]  677 	rlca
    000000FE 07               [ 4]  678 	rlca
    000000FF 07               [ 4]  679 	rlca
    00000100 07               [ 4]  680 	rlca
    00000101 E6 0F            [ 7]  681 	and	a, #0x0f
    00000103 57               [ 4]  682 	ld	d, a
                                    683 ;C:\Users\reina\OneDrive\Documentos\MSXgl\engine/src/print.h:197: g_PrintData.PatternX     = patternX;
    00000104 21r00r00         [10]  684 	ld	hl, #_g_PrintData
    00000107 72               [ 7]  685 	ld	(hl), d
                                    686 ;C:\Users\reina\OneDrive\Documentos\MSXgl\engine/src/print.h:198: g_PrintData.PatternY     = patternY;
    00000108 21r01r00         [10]  687 	ld	hl, #(_g_PrintData + 1)
    0000010B 73               [ 7]  688 	ld	(hl), e
                                    689 ;C:\Users\reina\OneDrive\Documentos\MSXgl\engine/src/print.h:199: g_PrintData.UnitX        = sizeX;
    0000010C 21r02r00         [10]  690 	ld	hl, #(_g_PrintData + 2)
    0000010F DD 7E FF         [19]  691 	ld	a, -1 (ix)
    00000112 77               [ 7]  692 	ld	(hl), a
                                    693 ;C:\Users\reina\OneDrive\Documentos\MSXgl\engine/src/print.h:200: g_PrintData.UnitY        = sizeY;
    00000113 21r03r00         [10]  694 	ld	hl, #(_g_PrintData + 3)
    00000116 DD 7E FE         [19]  695 	ld	a, -2 (ix)
    00000119 77               [ 7]  696 	ld	(hl), a
                                    697 ;C:\Users\reina\OneDrive\Documentos\MSXgl\engine/src/print.h:201: g_PrintData.CharFirst    = firstChr;
    0000011A 21r14r00         [10]  698 	ld	hl, #(_g_PrintData + 20)
    0000011D DD 7E FD         [19]  699 	ld	a, -3 (ix)
    00000120 77               [ 7]  700 	ld	(hl), a
                                    701 ;C:\Users\reina\OneDrive\Documentos\MSXgl\engine/src/print.h:202: g_PrintData.CharLast     = lastChr;
    00000121 21r15r00         [10]  702 	ld	hl, #(_g_PrintData + 21)
    00000124 DD 7E FC         [19]  703 	ld	a, -4 (ix)
    00000127 77               [ 7]  704 	ld	(hl), a
                                    705 ;C:\Users\reina\OneDrive\Documentos\MSXgl\engine/src/print.h:203: g_PrintData.CharCount    = lastChr - firstChr + 1;
    00000128 DD 7E FC         [19]  706 	ld	a, -4 (ix)
    0000012B DD 96 FD         [19]  707 	sub	a, -3 (ix)
    0000012E 3C               [ 4]  708 	inc	a
    0000012F 32r16r00         [13]  709 	ld	(#(_g_PrintData + 22)),a
                                    710 ;C:\Users\reina\OneDrive\Documentos\MSXgl\engine/src/print.h:204: g_PrintData.FontPatterns = patterns;
    00000132 ED 43r1Cr00      [20]  711 	ld	((_g_PrintData + 28)), bc
                                    712 ;C:\Users\reina\OneDrive\Documentos\MSXgl\engine/src/print.h:205: g_PrintData.FontAddr     = g_PrintData.FontPatterns - (firstChr * g_PrintData.PatternY); // pre-compute address of the virtual index 0 character (used to quick drawing in PutChar_GX functions)
    00000136 C5               [11]  713 	push	bc
    00000137 DD 66 FD         [19]  714 	ld	h, -3 (ix)
                                    715 ;	spillPairReg hl
                                    716 ;	spillPairReg hl
    0000013A 2E 00            [ 7]  717 	ld	l, #0x00
    0000013C 55               [ 4]  718 	ld	d, l
    0000013D 06 08            [ 7]  719 	ld	b, #0x08
    0000013F                        720 00113$:
    0000013F 29               [11]  721 	add	hl, hl
    00000140 30 01            [12]  722 	jr	NC, 00114$
    00000142 19               [11]  723 	add	hl, de
    00000143                        724 00114$:
    00000143 10 FA            [13]  725 	djnz	00113$
    00000145 C1               [10]  726 	pop	bc
    00000146 79               [ 4]  727 	ld	a, c
    00000147 95               [ 4]  728 	sub	a, l
    00000148 4F               [ 4]  729 	ld	c, a
    00000149 78               [ 4]  730 	ld	a, b
    0000014A 9C               [ 4]  731 	sbc	a, h
    0000014B 47               [ 4]  732 	ld	b, a
    0000014C ED 43r1Er00      [20]  733 	ld	((_g_PrintData + 30)), bc
                                    734 ;C:\Users\reina\OneDrive\Documentos\MSXgl\engine/src/print.c:327: Print_SetFontEx(font[0] >> 4, font[0] & 0x0F, font[1] >> 4, font[1] & 0x0F, font[2], font[3], font+4);
    00000150                        735 00106$:
                                    736 ;C:\Users\reina\OneDrive\Documentos\MSXgl\engine/src/print.c:328: }
    00000150 DD F9            [10]  737 	ld	sp, ix
    00000152 DD E1            [14]  738 	pop	ix
    00000154 C9               [10]  739 	ret
                                    740 ;C:\Users\reina\OneDrive\Documentos\MSXgl\engine/src/print.c:391: void Print_SetColor(u8 text, u8 bg)
                                    741 ;	---------------------------------
                                    742 ; Function Print_SetColor
                                    743 ; ---------------------------------
    00000155                        744 _Print_SetColor::
    00000155 4F               [ 4]  745 	ld	c, a
    00000156 5D               [ 4]  746 	ld	e, l
                                    747 ;C:\Users\reina\OneDrive\Documentos\MSXgl\engine/src/vdp.h:476: inline u8 VDP_GetMode() { return g_VDP_Data.Mode; }
    00000157 21r00r00         [10]  748 	ld	hl, #_g_VDP_Data+0
    0000015A 6E               [ 7]  749 	ld	l, (hl)
                                    750 ;	spillPairReg hl
    0000015B 45               [ 4]  751 	ld	b, l
                                    752 ;C:\Users\reina\OneDrive\Documentos\MSXgl\engine/src/vdp.h:492: return mode >= VDP_MODE_GRAPHIC4;
    0000015C 78               [ 4]  753 	ld	a, b
    0000015D D6 06            [ 7]  754 	sub	a, #0x06
    0000015F 3E 00            [ 7]  755 	ld	a, #0x00
    00000161 17               [ 4]  756 	rla
                                    757 ;C:\Users\reina\OneDrive\Documentos\MSXgl\engine/src/print.c:393: if(VDP_IsBitmapMode(VDP_GetMode())) // Bitmap mode
    00000162 EE 01            [ 7]  758 	xor	a,#0x01
    00000164 C0               [11]  759 	ret	NZ
                                    760 ;C:\Users\reina\OneDrive\Documentos\MSXgl\engine/src/print.c:421: u8 col = text << 4 | bg;
    00000165 79               [ 4]  761 	ld	a, c
    00000166 87               [ 4]  762 	add	a, a
    00000167 87               [ 4]  763 	add	a, a
    00000168 87               [ 4]  764 	add	a, a
    00000169 87               [ 4]  765 	add	a, a
    0000016A B3               [ 4]  766 	or	a, e
    0000016B 4F               [ 4]  767 	ld	c, a
                                    768 ;C:\Users\reina\OneDrive\Documentos\MSXgl\engine/src/print.c:422: switch(VDP_GetMode())
    0000016C 7D               [ 4]  769 	ld	a, l
    0000016D B7               [ 4]  770 	or	a, a
    0000016E 28 0A            [12]  771 	jr	Z, 00101$
    00000170 7D               [ 4]  772 	ld	a,l
    00000171 FE 02            [ 7]  773 	cp	a,#0x02
    00000173 28 0B            [12]  774 	jr	Z, 00102$
    00000175 D6 03            [ 7]  775 	sub	a, #0x03
    00000177 28 14            [12]  776 	jr	Z, 00103$
    00000179 C9               [10]  777 	ret
                                    778 ;C:\Users\reina\OneDrive\Documentos\MSXgl\engine/src/print.c:425: case VDP_MODE_TEXT1:		// 40 characters per line of text, one colour for each character
    0000017A                        779 00101$:
                                    780 ;C:\Users\reina\OneDrive\Documentos\MSXgl\engine/src/vdp.h:717: inline void VDP_SetColor(u8 color) { VDP_RegWrite(7, color); }
    0000017A 69               [ 4]  781 	ld	l, c
                                    782 ;	spillPairReg hl
                                    783 ;	spillPairReg hl
                                    784 ;C:\Users\reina\OneDrive\Documentos\MSXgl\engine/src/print.c:432: break;
    0000017B 3E 07            [ 7]  785 	ld	a, #0x07
    0000017D C3r00r00         [10]  786 	jp	_VDP_RegWrite
                                    787 ;C:\Users\reina\OneDrive\Documentos\MSXgl\engine/src/print.c:435: case VDP_MODE_GRAPHIC1:		// 32 characters per one line of text, the COLOURed character available
    00000180                        788 00102$:
                                    789 ;C:\Users\reina\OneDrive\Documentos\MSXgl\engine/src/print.c:436: VDP_FillVRAM(col, g_ScreenColorLow, 0, 32);
    00000180 21 20 00         [10]  790 	ld	hl, #0x0020
    00000183 E5               [11]  791 	push	hl
    00000184 ED 5Br00r00      [20]  792 	ld	de, (_g_ScreenColorLow)
    00000188 79               [ 4]  793 	ld	a, c
    00000189 CDr00r00         [17]  794 	call	_VDP_FillVRAM_16K
                                    795 ;C:\Users\reina\OneDrive\Documentos\MSXgl\engine/src/print.c:437: break;
    0000018C C9               [10]  796 	ret
                                    797 ;C:\Users\reina\OneDrive\Documentos\MSXgl\engine/src/print.c:440: case VDP_MODE_GRAPHIC2:		// 256 x 192, the colour is specififed for each 8 dots
    0000018D                        798 00103$:
                                    799 ;C:\Users\reina\OneDrive\Documentos\MSXgl\engine/src/print.c:447: u16 dst = (u16)g_ScreenColorLow + g_PrintData.PatternOffset * 8;
    0000018D 3Ar20r00         [13]  800 	ld	a, (#_g_PrintData + 32)
    00000190 6F               [ 4]  801 	ld	l, a
                                    802 ;	spillPairReg hl
                                    803 ;	spillPairReg hl
    00000191 26 00            [ 7]  804 	ld	h, #0x00
                                    805 ;	spillPairReg hl
                                    806 ;	spillPairReg hl
    00000193 29               [11]  807 	add	hl, hl
    00000194 29               [11]  808 	add	hl, hl
    00000195 29               [11]  809 	add	hl, hl
    00000196 ED 5Br00r00      [20]  810 	ld	de, (_g_ScreenColorLow)
    0000019A 19               [11]  811 	add	hl, de
                                    812 ;C:\Users\reina\OneDrive\Documentos\MSXgl\engine/src/print.c:448: VDP_FillVRAM(col, dst, 0, g_PrintData.CharCount * 8);
    0000019B FD 21r16r00      [14]  813 	ld	iy, #_g_PrintData + 22
    0000019F FD 5E 00         [19]  814 	ld	e, 0 (iy)
    000001A2 16 00            [ 7]  815 	ld	d, #0x00
    000001A4 EB               [ 4]  816 	ex	de, hl
    000001A5 29               [11]  817 	add	hl, hl
    000001A6 29               [11]  818 	add	hl, hl
    000001A7 29               [11]  819 	add	hl, hl
    000001A8 EB               [ 4]  820 	ex	de, hl
    000001A9 E5               [11]  821 	push	hl
    000001AA C5               [11]  822 	push	bc
    000001AB FD E5            [15]  823 	push	iy
    000001AD EB               [ 4]  824 	ex	de, hl
    000001AE E5               [11]  825 	push	hl
    000001AF 79               [ 4]  826 	ld	a, c
    000001B0 CDr00r00         [17]  827 	call	_VDP_FillVRAM_16K
    000001B3 FD E1            [14]  828 	pop	iy
    000001B5 C1               [10]  829 	pop	bc
    000001B6 E1               [10]  830 	pop	hl
                                    831 ;C:\Users\reina\OneDrive\Documentos\MSXgl\engine/src/print.c:449: dst += 256 * 8;
    000001B7 11 00 08         [10]  832 	ld	de, #0x0800
    000001BA 19               [11]  833 	add	hl, de
                                    834 ;C:\Users\reina\OneDrive\Documentos\MSXgl\engine/src/print.c:450: VDP_FillVRAM(col, dst, 0, g_PrintData.CharCount * 8);
    000001BB FD 5E 00         [19]  835 	ld	e, 0 (iy)
    000001BE 16 00            [ 7]  836 	ld	d, #0x00
    000001C0 EB               [ 4]  837 	ex	de, hl
    000001C1 29               [11]  838 	add	hl, hl
    000001C2 29               [11]  839 	add	hl, hl
    000001C3 29               [11]  840 	add	hl, hl
    000001C4 EB               [ 4]  841 	ex	de, hl
    000001C5 E5               [11]  842 	push	hl
    000001C6 C5               [11]  843 	push	bc
    000001C7 FD E5            [15]  844 	push	iy
    000001C9 EB               [ 4]  845 	ex	de, hl
    000001CA E5               [11]  846 	push	hl
    000001CB 79               [ 4]  847 	ld	a, c
    000001CC CDr00r00         [17]  848 	call	_VDP_FillVRAM_16K
    000001CF FD E1            [14]  849 	pop	iy
    000001D1 C1               [10]  850 	pop	bc
    000001D2 E1               [10]  851 	pop	hl
                                    852 ;C:\Users\reina\OneDrive\Documentos\MSXgl\engine/src/print.c:451: dst += 256 * 8;
    000001D3 5D               [ 4]  853 	ld	e, l
    000001D4 7C               [ 4]  854 	ld	a, h
    000001D5 C6 08            [ 7]  855 	add	a, #0x08
    000001D7 57               [ 4]  856 	ld	d, a
                                    857 ;C:\Users\reina\OneDrive\Documentos\MSXgl\engine/src/print.c:452: VDP_FillVRAM(col, dst, 0, g_PrintData.CharCount * 8);
    000001D8 FD 6E 00         [19]  858 	ld	l, 0 (iy)
                                    859 ;	spillPairReg hl
    000001DB 26 00            [ 7]  860 	ld	h, #0x00
                                    861 ;	spillPairReg hl
                                    862 ;	spillPairReg hl
    000001DD 29               [11]  863 	add	hl, hl
    000001DE 29               [11]  864 	add	hl, hl
    000001DF 29               [11]  865 	add	hl, hl
    000001E0 E5               [11]  866 	push	hl
    000001E1 79               [ 4]  867 	ld	a, c
    000001E2 CDr00r00         [17]  868 	call	_VDP_FillVRAM_16K
                                    869 ;C:\Users\reina\OneDrive\Documentos\MSXgl\engine/src/print.c:456: };
                                    870 ;C:\Users\reina\OneDrive\Documentos\MSXgl\engine/src/print.c:459: }
    000001E5 C9               [10]  871 	ret
                                    872 ;C:\Users\reina\OneDrive\Documentos\MSXgl\engine/src/print.c:464: void Print_SetColorShade(const u8* shade)
                                    873 ;	---------------------------------
                                    874 ; Function Print_SetColorShade
                                    875 ; ---------------------------------
    000001E6                        876 _Print_SetColorShade::
    000001E6 DD E5            [15]  877 	push	ix
    000001E8 DD 21 00 00      [14]  878 	ld	ix,#0
    000001EC DD 39            [15]  879 	add	ix,sp
    000001EE F5               [11]  880 	push	af
    000001EF 3B               [ 6]  881 	dec	sp
    000001F0 E3               [19]  882 	ex	(sp), hl
                                    883 ;C:\Users\reina\OneDrive\Documentos\MSXgl\engine/src/vdp.h:476: inline u8 VDP_GetMode() { return g_VDP_Data.Mode; }
    000001F1 21r00r00         [10]  884 	ld	hl, #_g_VDP_Data+0
    000001F4 4E               [ 7]  885 	ld	c, (hl)
                                    886 ;C:\Users\reina\OneDrive\Documentos\MSXgl\engine/src/vdp.h:492: return mode >= VDP_MODE_GRAPHIC4;
    000001F5 79               [ 4]  887 	ld	a, c
    000001F6 D6 06            [ 7]  888 	sub	a, #0x06
    000001F8 3E 00            [ 7]  889 	ld	a, #0x00
    000001FA 17               [ 4]  890 	rla
                                    891 ;C:\Users\reina\OneDrive\Documentos\MSXgl\engine/src/print.c:466: if(VDP_IsBitmapMode(VDP_GetMode())) // Bitmap mode
    000001FB EE 01            [ 7]  892 	xor	a,#0x01
    000001FD 20 67            [12]  893 	jr	NZ, 00113$
                                    894 ;C:\Users\reina\OneDrive\Documentos\MSXgl\engine/src/print.c:482: switch(VDP_GetMode())
    000001FF 79               [ 4]  895 	ld	a, c
    00000200 D6 03            [ 7]  896 	sub	a, #0x03
    00000202 20 62            [12]  897 	jr	NZ, 00113$
                                    898 ;C:\Users\reina\OneDrive\Documentos\MSXgl\engine/src/print.c:492: u16 dst = (u16)g_ScreenColorLow + g_PrintData.PatternOffset * 8;
    00000204 3Ar20r00         [13]  899 	ld	a, (#_g_PrintData + 32)
    00000207 6F               [ 4]  900 	ld	l, a
                                    901 ;	spillPairReg hl
                                    902 ;	spillPairReg hl
    00000208 26 00            [ 7]  903 	ld	h, #0x00
                                    904 ;	spillPairReg hl
                                    905 ;	spillPairReg hl
    0000020A 29               [11]  906 	add	hl, hl
    0000020B 29               [11]  907 	add	hl, hl
    0000020C 29               [11]  908 	add	hl, hl
    0000020D ED 4Br00r00      [20]  909 	ld	bc, (_g_ScreenColorLow)
    00000211 09               [11]  910 	add	hl, bc
    00000212 4D               [ 4]  911 	ld	c, l
    00000213 44               [ 4]  912 	ld	b, h
                                    913 ;C:\Users\reina\OneDrive\Documentos\MSXgl\engine/src/print.c:493: for(u8 i = 0; i < g_PrintData.CharCount; ++i)
    00000214 DD 36 FF 00      [19]  914 	ld	-1 (ix), #0x00
    00000218                        915 00111$:
    00000218 21r16r00         [10]  916 	ld	hl, #_g_PrintData + 22
    0000021B DD 7E FF         [19]  917 	ld	a,-1 (ix)
    0000021E 96               [ 7]  918 	sub	a,(hl)
    0000021F 30 45            [12]  919 	jr	NC, 00113$
                                    920 ;C:\Users\reina\OneDrive\Documentos\MSXgl\engine/src/print.c:495: VDP_WriteVRAM(shade, dst,           0, 8);
    00000221 C5               [11]  921 	push	bc
    00000222 21 08 00         [10]  922 	ld	hl, #0x0008
    00000225 E5               [11]  923 	push	hl
    00000226 59               [ 4]  924 	ld	e, c
    00000227 50               [ 4]  925 	ld	d, b
    00000228 DD 6E FD         [19]  926 	ld	l, -3 (ix)
                                    927 ;	spillPairReg hl
                                    928 ;	spillPairReg hl
    0000022B DD 66 FE         [19]  929 	ld	h, -2 (ix)
                                    930 ;	spillPairReg hl
                                    931 ;	spillPairReg hl
    0000022E CDr00r00         [17]  932 	call	_VDP_WriteVRAM_16K
    00000231 C1               [10]  933 	pop	bc
                                    934 ;C:\Users\reina\OneDrive\Documentos\MSXgl\engine/src/print.c:496: VDP_WriteVRAM(shade, dst + 256 * 8, 0, 8);
    00000232 21 00 08         [10]  935 	ld	hl, #0x0800
    00000235 09               [11]  936 	add	hl, bc
    00000236 C5               [11]  937 	push	bc
    00000237 EB               [ 4]  938 	ex	de, hl
    00000238 21 08 00         [10]  939 	ld	hl, #0x0008
    0000023B E5               [11]  940 	push	hl
    0000023C DD 6E FD         [19]  941 	ld	l, -3 (ix)
                                    942 ;	spillPairReg hl
                                    943 ;	spillPairReg hl
    0000023F DD 66 FE         [19]  944 	ld	h, -2 (ix)
                                    945 ;	spillPairReg hl
                                    946 ;	spillPairReg hl
    00000242 CDr00r00         [17]  947 	call	_VDP_WriteVRAM_16K
    00000245 C1               [10]  948 	pop	bc
                                    949 ;C:\Users\reina\OneDrive\Documentos\MSXgl\engine/src/print.c:497: VDP_WriteVRAM(shade, dst + 512 * 8, 0, 8);
    00000246 21 00 10         [10]  950 	ld	hl, #0x1000
    00000249 09               [11]  951 	add	hl, bc
    0000024A C5               [11]  952 	push	bc
    0000024B EB               [ 4]  953 	ex	de, hl
    0000024C 21 08 00         [10]  954 	ld	hl, #0x0008
    0000024F E5               [11]  955 	push	hl
    00000250 DD 6E FD         [19]  956 	ld	l, -3 (ix)
                                    957 ;	spillPairReg hl
                                    958 ;	spillPairReg hl
    00000253 DD 66 FE         [19]  959 	ld	h, -2 (ix)
                                    960 ;	spillPairReg hl
                                    961 ;	spillPairReg hl
    00000256 CDr00r00         [17]  962 	call	_VDP_WriteVRAM_16K
    00000259 C1               [10]  963 	pop	bc
                                    964 ;C:\Users\reina\OneDrive\Documentos\MSXgl\engine/src/print.c:498: dst += 8;
    0000025A 21 08 00         [10]  965 	ld	hl, #0x0008
    0000025D 09               [11]  966 	add	hl, bc
    0000025E 4D               [ 4]  967 	ld	c, l
    0000025F 44               [ 4]  968 	ld	b, h
                                    969 ;C:\Users\reina\OneDrive\Documentos\MSXgl\engine/src/print.c:493: for(u8 i = 0; i < g_PrintData.CharCount; ++i)
    00000260 DD 34 FF         [23]  970 	inc	-1 (ix)
    00000263 C3r18r02         [10]  971 	jp	00111$
                                    972 ;C:\Users\reina\OneDrive\Documentos\MSXgl\engine/src/print.c:503: };
    00000266                        973 00113$:
                                    974 ;C:\Users\reina\OneDrive\Documentos\MSXgl\engine/src/print.c:506: }
    00000266 DD F9            [10]  975 	ld	sp, ix
    00000268 DD E1            [14]  976 	pop	ix
    0000026A C9               [10]  977 	ret
                                    978 ;C:\Users\reina\OneDrive\Documentos\MSXgl\engine/src/print.c:520: u8 Print_ValidateChar(u8 chr)
                                    979 ;	---------------------------------
                                    980 ; Function Print_ValidateChar
                                    981 ; ---------------------------------
    0000026B                        982 _Print_ValidateChar::
    0000026B 4F               [ 4]  983 	ld	c, a
                                    984 ;C:\Users\reina\OneDrive\Documentos\MSXgl\engine/src/print.c:522: if((chr < g_PrintData.CharFirst) || (chr > g_PrintData.CharLast))
    0000026C 21r14r00         [10]  985 	ld	hl, #_g_PrintData + 20
    0000026F 46               [ 7]  986 	ld	b, (hl)
    00000270 79               [ 4]  987 	ld	a, c
    00000271 90               [ 4]  988 	sub	a, b
    00000272 38 06            [12]  989 	jr	C, 00113$
    00000274 3Ar15r00         [13]  990 	ld	a, (#_g_PrintData + 21)
    00000277 91               [ 4]  991 	sub	a, c
    00000278 30 3B            [12]  992 	jr	NC, 00114$
    0000027A                        993 00113$:
                                    994 ;C:\Users\reina\OneDrive\Documentos\MSXgl\engine/src/print.c:524: if((chr >= 'a') && (chr <= 'z') && (g_PrintData.CharFirst <= 'A') && (g_PrintData.CharLast >= 'Z')) // try to remap to upper case letter
    0000027A 79               [ 4]  995 	ld	a, c
    0000027B D6 61            [ 7]  996 	sub	a, #0x61
    0000027D 38 18            [12]  997 	jr	C, 00108$
    0000027F 3E 7A            [ 7]  998 	ld	a, #0x7a
    00000281 91               [ 4]  999 	sub	a, c
    00000282 38 13            [12] 1000 	jr	C, 00108$
    00000284 3E 41            [ 7] 1001 	ld	a, #0x41
    00000286 90               [ 4] 1002 	sub	a, b
    00000287 38 0E            [12] 1003 	jr	C, 00108$
    00000289 3Ar15r00         [13] 1004 	ld	a, (#_g_PrintData + 21)
    0000028C D6 5A            [ 7] 1005 	sub	a, #0x5a
    0000028E 38 07            [12] 1006 	jr	C, 00108$
                                   1007 ;C:\Users\reina\OneDrive\Documentos\MSXgl\engine/src/print.c:526: chr = chr - 'a' + 'A';
    00000290 79               [ 4] 1008 	ld	a, c
    00000291 C6 E0            [ 7] 1009 	add	a, #0xe0
    00000293 4F               [ 4] 1010 	ld	c, a
    00000294 C3rB5r02         [10] 1011 	jp	00114$
    00000297                       1012 00108$:
                                   1013 ;C:\Users\reina\OneDrive\Documentos\MSXgl\engine/src/print.c:528: else if((chr >= 'A') && (chr <= 'Z') && (g_PrintData.CharFirst <= 'a') && (g_PrintData.CharLast >= 'z')) // try to remap to lower case letter
    00000297 79               [ 4] 1014 	ld	a, c
    00000298 D6 41            [ 7] 1015 	sub	a, #0x41
    0000029A 38 18            [12] 1016 	jr	C, 00102$
    0000029C 3E 5A            [ 7] 1017 	ld	a, #0x5a
    0000029E 91               [ 4] 1018 	sub	a, c
    0000029F 38 13            [12] 1019 	jr	C, 00102$
    000002A1 3E 61            [ 7] 1020 	ld	a, #0x61
    000002A3 90               [ 4] 1021 	sub	a, b
    000002A4 38 0E            [12] 1022 	jr	C, 00102$
    000002A6 3Ar15r00         [13] 1023 	ld	a, (#_g_PrintData + 21)
    000002A9 D6 7A            [ 7] 1024 	sub	a, #0x7a
    000002AB 38 07            [12] 1025 	jr	C, 00102$
                                   1026 ;C:\Users\reina\OneDrive\Documentos\MSXgl\engine/src/print.c:530: chr = chr - 'A' + 'a';
    000002AD 79               [ 4] 1027 	ld	a, c
    000002AE C6 20            [ 7] 1028 	add	a, #0x20
    000002B0 4F               [ 4] 1029 	ld	c, a
    000002B1 C3rB5r02         [10] 1030 	jp	00114$
    000002B4                       1031 00102$:
                                   1032 ;C:\Users\reina\OneDrive\Documentos\MSXgl\engine/src/print.c:533: chr = g_PrintData.CharFirst;
    000002B4 48               [ 4] 1033 	ld	c, b
    000002B5                       1034 00114$:
                                   1035 ;C:\Users\reina\OneDrive\Documentos\MSXgl\engine/src/print.c:535: return chr;
    000002B5 79               [ 4] 1036 	ld	a, c
                                   1037 ;C:\Users\reina\OneDrive\Documentos\MSXgl\engine/src/print.c:536: }
    000002B6 C9               [10] 1038 	ret
                                   1039 ;C:\Users\reina\OneDrive\Documentos\MSXgl\engine/src/print.c:541: u8 Print_ValidatePattern(u8 chr, const c8** patterns)
                                   1040 ;	---------------------------------
                                   1041 ; Function Print_ValidatePattern
                                   1042 ; ---------------------------------
    000002B7                       1043 _Print_ValidatePattern::
    000002B7 DD E5            [15] 1044 	push	ix
    000002B9 DD 21 00 00      [14] 1045 	ld	ix,#0
    000002BD DD 39            [15] 1046 	add	ix,sp
    000002BF F5               [11] 1047 	push	af
    000002C0 F5               [11] 1048 	push	af
    000002C1 4F               [ 4] 1049 	ld	c, a
    000002C2 DD 73 FE         [19] 1050 	ld	-2 (ix), e
    000002C5 DD 72 FF         [19] 1051 	ld	-1 (ix), d
                                   1052 ;C:\Users\reina\OneDrive\Documentos\MSXgl\engine/src/print.c:543: if((chr < g_PrintData.CharFirst) || (chr > g_PrintData.CharLast))
    000002C8 21r14r00         [10] 1053 	ld	hl, #_g_PrintData + 20
    000002CB 5E               [ 7] 1054 	ld	e, (hl)
    000002CC 79               [ 4] 1055 	ld	a, c
    000002CD 93               [ 4] 1056 	sub	a, e
    000002CE 38 07            [12] 1057 	jr	C, 00113$
    000002D0 3Ar15r00         [13] 1058 	ld	a, (#_g_PrintData + 21)
    000002D3 91               [ 4] 1059 	sub	a, c
    000002D4 D2r80r03         [10] 1060 	jp	NC, 00114$
    000002D7                       1061 00113$:
                                   1062 ;C:\Users\reina\OneDrive\Documentos\MSXgl\engine/src/print.c:545: if((chr >= 'a') && (chr <= 'z') && (g_PrintData.CharFirst <= 'A') && (g_PrintData.CharLast >= 'Z')) // try to remap to upper case letter
    000002D7 79               [ 4] 1063 	ld	a, c
    000002D8 D6 61            [ 7] 1064 	sub	a, #0x61
    000002DA 38 4B            [12] 1065 	jr	C, 00108$
    000002DC 3E 7A            [ 7] 1066 	ld	a, #0x7a
    000002DE 91               [ 4] 1067 	sub	a, c
    000002DF 38 46            [12] 1068 	jr	C, 00108$
    000002E1 3E 41            [ 7] 1069 	ld	a, #0x41
    000002E3 93               [ 4] 1070 	sub	a, e
    000002E4 38 41            [12] 1071 	jr	C, 00108$
    000002E6 3Ar15r00         [13] 1072 	ld	a, (#_g_PrintData + 21)
    000002E9 D6 5A            [ 7] 1073 	sub	a, #0x5a
    000002EB 38 3A            [12] 1074 	jr	C, 00108$
                                   1075 ;C:\Users\reina\OneDrive\Documentos\MSXgl\engine/src/print.c:547: chr = chr - 'a' + 'A';
    000002ED 79               [ 4] 1076 	ld	a, c
    000002EE C6 E0            [ 7] 1077 	add	a, #0xe0
    000002F0 4F               [ 4] 1078 	ld	c, a
                                   1079 ;C:\Users\reina\OneDrive\Documentos\MSXgl\engine/src/print.c:548: *patterns = g_PrintData.FontPatterns + g_PrintData.PatternY * (chr - g_PrintData.CharFirst);
    000002F1 21r1Cr00         [10] 1080 	ld	hl, #_g_PrintData + 28
    000002F4 7E               [ 7] 1081 	ld	a, (hl)
    000002F5 DD 77 FC         [19] 1082 	ld	-4 (ix), a
    000002F8 23               [ 6] 1083 	inc	hl
    000002F9 7E               [ 7] 1084 	ld	a, (hl)
    000002FA DD 77 FD         [19] 1085 	ld	-3 (ix), a
    000002FD 21r01r00         [10] 1086 	ld	hl, #_g_PrintData + 1
    00000300 46               [ 7] 1087 	ld	b, (hl)
    00000301 69               [ 4] 1088 	ld	l, c
                                   1089 ;	spillPairReg hl
                                   1090 ;	spillPairReg hl
                                   1091 ;	spillPairReg hl
                                   1092 ;	spillPairReg hl
    00000302 26 00            [ 7] 1093 	ld	h, #0x00
    00000304 54               [ 4] 1094 	ld	d, h
    00000305 BF               [ 4] 1095 	cp	a, a
    00000306 ED 52            [15] 1096 	sbc	hl, de
    00000308 EB               [ 4] 1097 	ex	de, hl
    00000309 26 00            [ 7] 1098 	ld	h, #0x00
                                   1099 ;	spillPairReg hl
                                   1100 ;	spillPairReg hl
    0000030B C5               [11] 1101 	push	bc
    0000030C 68               [ 4] 1102 	ld	l, b
                                   1103 ;	spillPairReg hl
                                   1104 ;	spillPairReg hl
    0000030D CDr00r00         [17] 1105 	call	__mulint
    00000310 C1               [10] 1106 	pop	bc
    00000311 7B               [ 4] 1107 	ld	a, e
    00000312 DD 86 FC         [19] 1108 	add	a, -4 (ix)
    00000315 47               [ 4] 1109 	ld	b, a
    00000316 7A               [ 4] 1110 	ld	a, d
    00000317 DD 8E FD         [19] 1111 	adc	a, -3 (ix)
    0000031A 5F               [ 4] 1112 	ld	e, a
    0000031B DD 6E FE         [19] 1113 	ld	l, -2 (ix)
    0000031E DD 66 FF         [19] 1114 	ld	h, -1 (ix)
    00000321 70               [ 7] 1115 	ld	(hl), b
    00000322 23               [ 6] 1116 	inc	hl
    00000323 73               [ 7] 1117 	ld	(hl), e
    00000324 C3r80r03         [10] 1118 	jp	00114$
    00000327                       1119 00108$:
                                   1120 ;C:\Users\reina\OneDrive\Documentos\MSXgl\engine/src/print.c:550: else if((chr >= 'A') && (chr <= 'Z') && (g_PrintData.CharFirst <= 'a') && (g_PrintData.CharLast >= 'z')) // try to remap to lower case letter
    00000327 79               [ 4] 1121 	ld	a, c
    00000328 D6 41            [ 7] 1122 	sub	a, #0x41
    0000032A 38 4B            [12] 1123 	jr	C, 00102$
    0000032C 3E 5A            [ 7] 1124 	ld	a, #0x5a
    0000032E 91               [ 4] 1125 	sub	a, c
    0000032F 38 46            [12] 1126 	jr	C, 00102$
    00000331 3E 61            [ 7] 1127 	ld	a, #0x61
    00000333 93               [ 4] 1128 	sub	a, e
    00000334 38 41            [12] 1129 	jr	C, 00102$
    00000336 3Ar15r00         [13] 1130 	ld	a, (#_g_PrintData + 21)
    00000339 D6 7A            [ 7] 1131 	sub	a, #0x7a
    0000033B 38 3A            [12] 1132 	jr	C, 00102$
                                   1133 ;C:\Users\reina\OneDrive\Documentos\MSXgl\engine/src/print.c:552: chr = chr - 'A' + 'a';
    0000033D 79               [ 4] 1134 	ld	a, c
    0000033E C6 20            [ 7] 1135 	add	a, #0x20
    00000340 4F               [ 4] 1136 	ld	c, a
                                   1137 ;C:\Users\reina\OneDrive\Documentos\MSXgl\engine/src/print.c:553: *patterns = g_PrintData.FontPatterns + g_PrintData.PatternY * (chr - g_PrintData.CharFirst);
    00000341 21r1Cr00         [10] 1138 	ld	hl, #_g_PrintData + 28
    00000344 7E               [ 7] 1139 	ld	a, (hl)
    00000345 DD 77 FC         [19] 1140 	ld	-4 (ix), a
    00000348 23               [ 6] 1141 	inc	hl
    00000349 7E               [ 7] 1142 	ld	a, (hl)
    0000034A DD 77 FD         [19] 1143 	ld	-3 (ix), a
    0000034D 21r01r00         [10] 1144 	ld	hl, #_g_PrintData + 1
    00000350 46               [ 7] 1145 	ld	b, (hl)
    00000351 69               [ 4] 1146 	ld	l, c
                                   1147 ;	spillPairReg hl
                                   1148 ;	spillPairReg hl
                                   1149 ;	spillPairReg hl
                                   1150 ;	spillPairReg hl
    00000352 26 00            [ 7] 1151 	ld	h, #0x00
    00000354 54               [ 4] 1152 	ld	d, h
    00000355 BF               [ 4] 1153 	cp	a, a
    00000356 ED 52            [15] 1154 	sbc	hl, de
    00000358 EB               [ 4] 1155 	ex	de, hl
    00000359 68               [ 4] 1156 	ld	l, b
                                   1157 ;	spillPairReg hl
                                   1158 ;	spillPairReg hl
    0000035A 26 00            [ 7] 1159 	ld	h, #0x00
                                   1160 ;	spillPairReg hl
                                   1161 ;	spillPairReg hl
    0000035C C5               [11] 1162 	push	bc
    0000035D CDr00r00         [17] 1163 	call	__mulint
    00000360 C1               [10] 1164 	pop	bc
    00000361 7B               [ 4] 1165 	ld	a, e
    00000362 DD 86 FC         [19] 1166 	add	a, -4 (ix)
    00000365 47               [ 4] 1167 	ld	b, a
    00000366 7A               [ 4] 1168 	ld	a, d
    00000367 DD 8E FD         [19] 1169 	adc	a, -3 (ix)
    0000036A 5F               [ 4] 1170 	ld	e, a
    0000036B DD 6E FE         [19] 1171 	ld	l, -2 (ix)
    0000036E DD 66 FF         [19] 1172 	ld	h, -1 (ix)
    00000371 70               [ 7] 1173 	ld	(hl), b
    00000372 23               [ 6] 1174 	inc	hl
    00000373 73               [ 7] 1175 	ld	(hl), e
    00000374 C3r80r03         [10] 1176 	jp	00114$
    00000377                       1177 00102$:
                                   1178 ;C:\Users\reina\OneDrive\Documentos\MSXgl\engine/src/print.c:556: *patterns = g_PrintInvalid;
    00000377 D1               [10] 1179 	pop	de
    00000378 E1               [10] 1180 	pop	hl
    00000379 E5               [11] 1181 	push	hl
    0000037A D5               [11] 1182 	push	de
    0000037B 36r00            [10] 1183 	ld	(hl), #<(_g_PrintInvalid)
    0000037D 23               [ 6] 1184 	inc	hl
    0000037E 36s00            [10] 1185 	ld	(hl), #>(_g_PrintInvalid)
    00000380                       1186 00114$:
                                   1187 ;C:\Users\reina\OneDrive\Documentos\MSXgl\engine/src/print.c:558: return chr;
    00000380 79               [ 4] 1188 	ld	a, c
                                   1189 ;C:\Users\reina\OneDrive\Documentos\MSXgl\engine/src/print.c:559: }
    00000381 DD F9            [10] 1190 	ld	sp, ix
    00000383 DD E1            [14] 1191 	pop	ix
    00000385 C9               [10] 1192 	ret
                                   1193 ;C:\Users\reina\OneDrive\Documentos\MSXgl\engine/src/print.c:860: void CopyNo8HeightFontData(const u8* src, u16 dst, u8 height)
                                   1194 ;	---------------------------------
                                   1195 ; Function CopyNo8HeightFontData
                                   1196 ; ---------------------------------
    00000386                       1197 _CopyNo8HeightFontData::
    00000386 DD E5            [15] 1198 	push	ix
    00000388 DD 21 00 00      [14] 1199 	ld	ix,#0
    0000038C DD 39            [15] 1200 	add	ix,sp
    0000038E F5               [11] 1201 	push	af
    0000038F 3B               [ 6] 1202 	dec	sp
    00000390 E3               [19] 1203 	ex	(sp), hl
    00000391 4B               [ 4] 1204 	ld	c, e
    00000392 42               [ 4] 1205 	ld	b, d
                                   1206 ;C:\Users\reina\OneDrive\Documentos\MSXgl\engine/src/print.c:862: for(u8 i = 0; i < g_PrintData.CharCount; ++i)
    00000393 DD 36 FF 00      [19] 1207 	ld	-1 (ix), #0x00
    00000397                       1208 00103$:
    00000397 21r16r00         [10] 1209 	ld	hl, #(_g_PrintData + 22)
    0000039A 5E               [ 7] 1210 	ld	e, (hl)
    0000039B DD 7E FF         [19] 1211 	ld	a, -1 (ix)
    0000039E 93               [ 4] 1212 	sub	a, e
    0000039F 30 39            [12] 1213 	jr	NC, 00105$
                                   1214 ;C:\Users\reina\OneDrive\Documentos\MSXgl\engine/src/print.c:864: VDP_FillVRAM(0, dst, 0, 8);
    000003A1 C5               [11] 1215 	push	bc
    000003A2 21 08 00         [10] 1216 	ld	hl, #0x0008
    000003A5 E5               [11] 1217 	push	hl
    000003A6 59               [ 4] 1218 	ld	e, c
    000003A7 50               [ 4] 1219 	ld	d, b
    000003A8 AF               [ 4] 1220 	xor	a, a
    000003A9 CDr00r00         [17] 1221 	call	_VDP_FillVRAM_16K
    000003AC C1               [10] 1222 	pop	bc
                                   1223 ;C:\Users\reina\OneDrive\Documentos\MSXgl\engine/src/print.c:865: VDP_WriteVRAM(src, dst, 0, height);
    000003AD DD 5E 04         [19] 1224 	ld	e, 4 (ix)
    000003B0 16 00            [ 7] 1225 	ld	d, #0x00
    000003B2 C5               [11] 1226 	push	bc
    000003B3 D5               [11] 1227 	push	de
    000003B4 59               [ 4] 1228 	ld	e, c
    000003B5 50               [ 4] 1229 	ld	d, b
    000003B6 DD 6E FD         [19] 1230 	ld	l, -3 (ix)
                                   1231 ;	spillPairReg hl
                                   1232 ;	spillPairReg hl
    000003B9 DD 66 FE         [19] 1233 	ld	h, -2 (ix)
                                   1234 ;	spillPairReg hl
                                   1235 ;	spillPairReg hl
    000003BC CDr00r00         [17] 1236 	call	_VDP_WriteVRAM_16K
    000003BF C1               [10] 1237 	pop	bc
                                   1238 ;C:\Users\reina\OneDrive\Documentos\MSXgl\engine/src/print.c:866: src += height;
    000003C0 DD 7E FD         [19] 1239 	ld	a, -3 (ix)
    000003C3 DD 86 04         [19] 1240 	add	a, 4 (ix)
    000003C6 DD 77 FD         [19] 1241 	ld	-3 (ix), a
    000003C9 30 03            [12] 1242 	jr	NC, 00118$
    000003CB DD 34 FE         [23] 1243 	inc	-2 (ix)
    000003CE                       1244 00118$:
                                   1245 ;C:\Users\reina\OneDrive\Documentos\MSXgl\engine/src/print.c:867: dst += 8;
    000003CE 21 08 00         [10] 1246 	ld	hl, #0x0008
    000003D1 09               [11] 1247 	add	hl, bc
    000003D2 4D               [ 4] 1248 	ld	c, l
    000003D3 44               [ 4] 1249 	ld	b, h
                                   1250 ;C:\Users\reina\OneDrive\Documentos\MSXgl\engine/src/print.c:862: for(u8 i = 0; i < g_PrintData.CharCount; ++i)
    000003D4 DD 34 FF         [23] 1251 	inc	-1 (ix)
    000003D7 C3r97r03         [10] 1252 	jp	00103$
    000003DA                       1253 00105$:
                                   1254 ;C:\Users\reina\OneDrive\Documentos\MSXgl\engine/src/print.c:869: }
    000003DA DD F9            [10] 1255 	ld	sp, ix
    000003DC DD E1            [14] 1256 	pop	ix
    000003DE E1               [10] 1257 	pop	hl
    000003DF 33               [ 6] 1258 	inc	sp
    000003E0 E9               [ 4] 1259 	jp	(hl)
                                   1260 ;C:\Users\reina\OneDrive\Documentos\MSXgl\engine/src/print.c:874: void Print_SetTextFont(const u8* fontData, u8 offset)
                                   1261 ;	---------------------------------
                                   1262 ; Function Print_SetTextFont
                                   1263 ; ---------------------------------
    000003E1                       1264 _Print_SetTextFont::
    000003E1 DD E5            [15] 1265 	push	ix
    000003E3 DD 21 00 00      [14] 1266 	ld	ix,#0
    000003E7 DD 39            [15] 1267 	add	ix,sp
    000003E9 FD 21 F4 FF      [14] 1268 	ld	iy, #-12
    000003ED FD 39            [15] 1269 	add	iy, sp
    000003EF FD F9            [10] 1270 	ld	sp, iy
    000003F1 DD 75 FE         [19] 1271 	ld	-2 (ix), l
    000003F4 DD 74 FF         [19] 1272 	ld	-1 (ix), h
                                   1273 ;C:\Users\reina\OneDrive\Documentos\MSXgl\engine/src/print.c:876: g_PrintData.PatternOffset = offset;
    000003F7 21r20r00         [10] 1274 	ld	hl, #(_g_PrintData + 32)
    000003FA DD 7E 04         [19] 1275 	ld	a, 4 (ix)
    000003FD 77               [ 7] 1276 	ld	(hl), a
                                   1277 ;C:\Users\reina\OneDrive\Documentos\MSXgl\engine/src/print.c:879: if(fontData == NULL) // Use Bios font (if any)
    000003FE DD 7E FF         [19] 1278 	ld	a, -1 (ix)
    00000401 DD B6 FE         [19] 1279 	or	a, -2 (ix)
    00000404 C2r8Ar04         [10] 1280 	jp	NZ, 00102$
                                   1281 ;C:\Users\reina\OneDrive\Documentos\MSXgl\engine/src/print.c:880: Print_SetFontEx(8, 8, 1, 1, 1, 255, (const u8*)g_CGTABL + 8); // @todo Should be [1, 255] to include all characters
    00000407 2A 04 00         [16] 1282 	ld	hl, (_g_CGTABL)
    0000040A DD 75 FC         [19] 1283 	ld	-4 (ix), l
    0000040D DD 74 FD         [19] 1284 	ld	-3 (ix), h
    00000410 DD 7E FC         [19] 1285 	ld	a, -4 (ix)
    00000413 C6 08            [ 7] 1286 	add	a, #0x08
    00000415 DD 77 F8         [19] 1287 	ld	-8 (ix), a
    00000418 DD 7E FD         [19] 1288 	ld	a, -3 (ix)
    0000041B CE 00            [ 7] 1289 	adc	a, #0x00
    0000041D DD 77 F9         [19] 1290 	ld	-7 (ix), a
                                   1291 ;C:\Users\reina\OneDrive\Documentos\MSXgl\engine/src/print.h:197: g_PrintData.PatternX     = patternX;
    00000420 21r00r00         [10] 1292 	ld	hl, #_g_PrintData
    00000423 36 08            [10] 1293 	ld	(hl), #0x08
                                   1294 ;C:\Users\reina\OneDrive\Documentos\MSXgl\engine/src/print.h:198: g_PrintData.PatternY     = patternY;
    00000425 21r01r00         [10] 1295 	ld	hl, #(_g_PrintData + 1)
    00000428 36 08            [10] 1296 	ld	(hl), #0x08
                                   1297 ;C:\Users\reina\OneDrive\Documentos\MSXgl\engine/src/print.h:199: g_PrintData.UnitX        = sizeX;
    0000042A 21r02r00         [10] 1298 	ld	hl, #(_g_PrintData + 2)
    0000042D 36 01            [10] 1299 	ld	(hl), #0x01
                                   1300 ;C:\Users\reina\OneDrive\Documentos\MSXgl\engine/src/print.h:200: g_PrintData.UnitY        = sizeY;
    0000042F 21r03r00         [10] 1301 	ld	hl, #(_g_PrintData + 3)
    00000432 36 01            [10] 1302 	ld	(hl), #0x01
                                   1303 ;C:\Users\reina\OneDrive\Documentos\MSXgl\engine/src/print.h:201: g_PrintData.CharFirst    = firstChr;
    00000434 21r14r00         [10] 1304 	ld	hl, #(_g_PrintData + 20)
    00000437 36 01            [10] 1305 	ld	(hl), #0x01
                                   1306 ;C:\Users\reina\OneDrive\Documentos\MSXgl\engine/src/print.h:202: g_PrintData.CharLast     = lastChr;
    00000439 21r15r00         [10] 1307 	ld	hl, #(_g_PrintData + 21)
    0000043C 36 FF            [10] 1308 	ld	(hl), #0xff
                                   1309 ;C:\Users\reina\OneDrive\Documentos\MSXgl\engine/src/print.h:203: g_PrintData.CharCount    = lastChr - firstChr + 1;
    0000043E 21r16r00         [10] 1310 	ld	hl, #_g_PrintData + 22
    00000441 E3               [19] 1311 	ex	(sp), hl
    00000442 E1               [10] 1312 	pop	hl
    00000443 E5               [11] 1313 	push	hl
    00000444 36 FF            [10] 1314 	ld	(hl), #0xff
                                   1315 ;C:\Users\reina\OneDrive\Documentos\MSXgl\engine/src/print.h:204: g_PrintData.FontPatterns = patterns;
    00000446 21r1Cr00         [10] 1316 	ld	hl, #_g_PrintData + 28
    00000449 DD 75 F6         [19] 1317 	ld	-10 (ix), l
    0000044C DD 74 F7         [19] 1318 	ld	-9 (ix), h
    0000044F C1               [10] 1319 	pop	bc
    00000450 E1               [10] 1320 	pop	hl
    00000451 E5               [11] 1321 	push	hl
    00000452 C5               [11] 1322 	push	bc
    00000453 DD 7E F8         [19] 1323 	ld	a, -8 (ix)
    00000456 77               [ 7] 1324 	ld	(hl), a
    00000457 23               [ 6] 1325 	inc	hl
    00000458 DD 7E F9         [19] 1326 	ld	a, -7 (ix)
    0000045B 77               [ 7] 1327 	ld	(hl), a
                                   1328 ;C:\Users\reina\OneDrive\Documentos\MSXgl\engine/src/print.h:205: g_PrintData.FontAddr     = g_PrintData.FontPatterns - (firstChr * g_PrintData.PatternY); // pre-compute address of the virtual index 0 character (used to quick drawing in PutChar_GX functions)
    0000045C 3Ar01r00         [13] 1329 	ld	a, (#(_g_PrintData + 1) + 0)
    0000045F DD 77 FD         [19] 1330 	ld	-3 (ix), a
    00000462 DD 77 FA         [19] 1331 	ld	-6 (ix), a
    00000465 DD 36 FB 00      [19] 1332 	ld	-5 (ix), #0x00
    00000469 DD 7E F8         [19] 1333 	ld	a, -8 (ix)
    0000046C DD 96 FA         [19] 1334 	sub	a, -6 (ix)
    0000046F DD 77 FC         [19] 1335 	ld	-4 (ix), a
    00000472 DD 7E F9         [19] 1336 	ld	a, -7 (ix)
    00000475 DD 9E FB         [19] 1337 	sbc	a, -5 (ix)
    00000478 DD 77 FD         [19] 1338 	ld	-3 (ix), a
    0000047B 21r1Er00         [10] 1339 	ld	hl, #(_g_PrintData + 30)
    0000047E DD 7E FC         [19] 1340 	ld	a, -4 (ix)
    00000481 77               [ 7] 1341 	ld	(hl), a
    00000482 23               [ 6] 1342 	inc	hl
    00000483 DD 7E FD         [19] 1343 	ld	a, -3 (ix)
    00000486 77               [ 7] 1344 	ld	(hl), a
                                   1345 ;C:\Users\reina\OneDrive\Documentos\MSXgl\engine/src/print.c:880: Print_SetFontEx(8, 8, 1, 1, 1, 255, (const u8*)g_CGTABL + 8); // @todo Should be [1, 255] to include all characters
    00000487 C3r52r05         [10] 1346 	jp	00103$
    0000048A                       1347 00102$:
                                   1348 ;C:\Users\reina\OneDrive\Documentos\MSXgl\engine/src/print.c:882: Print_SetFontEx(8, 8, 1, 1, fontData[2], fontData[3], fontData+4);
    0000048A DD 7E FE         [19] 1349 	ld	a, -2 (ix)
    0000048D C6 04            [ 7] 1350 	add	a, #0x04
    0000048F DD 77 F8         [19] 1351 	ld	-8 (ix), a
    00000492 DD 7E FF         [19] 1352 	ld	a, -1 (ix)
    00000495 CE 00            [ 7] 1353 	adc	a, #0x00
    00000497 DD 77 F9         [19] 1354 	ld	-7 (ix), a
    0000049A DD 7E FE         [19] 1355 	ld	a, -2 (ix)
    0000049D DD 77 FC         [19] 1356 	ld	-4 (ix), a
    000004A0 DD 7E FF         [19] 1357 	ld	a, -1 (ix)
    000004A3 DD 77 FD         [19] 1358 	ld	-3 (ix), a
    000004A6 DD 6E FC         [19] 1359 	ld	l, -4 (ix)
    000004A9 DD 66 FD         [19] 1360 	ld	h, -3 (ix)
    000004AC 23               [ 6] 1361 	inc	hl
    000004AD 23               [ 6] 1362 	inc	hl
    000004AE 23               [ 6] 1363 	inc	hl
    000004AF 7E               [ 7] 1364 	ld	a, (hl)
    000004B0 DD 77 FD         [19] 1365 	ld	-3 (ix), a
    000004B3 DD 7E FE         [19] 1366 	ld	a, -2 (ix)
    000004B6 DD 77 FB         [19] 1367 	ld	-5 (ix), a
    000004B9 DD 7E FF         [19] 1368 	ld	a, -1 (ix)
    000004BC DD 77 FC         [19] 1369 	ld	-4 (ix), a
    000004BF DD 6E FB         [19] 1370 	ld	l, -5 (ix)
    000004C2 DD 66 FC         [19] 1371 	ld	h, -4 (ix)
    000004C5 23               [ 6] 1372 	inc	hl
    000004C6 23               [ 6] 1373 	inc	hl
    000004C7 7E               [ 7] 1374 	ld	a, (hl)
    000004C8 DD 77 FA         [19] 1375 	ld	-6 (ix), a
                                   1376 ;C:\Users\reina\OneDrive\Documentos\MSXgl\engine/src/print.h:197: g_PrintData.PatternX     = patternX;
    000004CB 21r00r00         [10] 1377 	ld	hl, #_g_PrintData
    000004CE 36 08            [10] 1378 	ld	(hl), #0x08
                                   1379 ;C:\Users\reina\OneDrive\Documentos\MSXgl\engine/src/print.h:198: g_PrintData.PatternY     = patternY;
    000004D0 21r01r00         [10] 1380 	ld	hl, #(_g_PrintData + 1)
    000004D3 36 08            [10] 1381 	ld	(hl), #0x08
                                   1382 ;C:\Users\reina\OneDrive\Documentos\MSXgl\engine/src/print.h:199: g_PrintData.UnitX        = sizeX;
    000004D5 21r02r00         [10] 1383 	ld	hl, #(_g_PrintData + 2)
    000004D8 36 01            [10] 1384 	ld	(hl), #0x01
                                   1385 ;C:\Users\reina\OneDrive\Documentos\MSXgl\engine/src/print.h:200: g_PrintData.UnitY        = sizeY;
    000004DA 21r03r00         [10] 1386 	ld	hl, #(_g_PrintData + 3)
    000004DD 36 01            [10] 1387 	ld	(hl), #0x01
                                   1388 ;C:\Users\reina\OneDrive\Documentos\MSXgl\engine/src/print.h:201: g_PrintData.CharFirst    = firstChr;
    000004DF 21r14r00         [10] 1389 	ld	hl, #(_g_PrintData + 20)
    000004E2 DD 7E FA         [19] 1390 	ld	a, -6 (ix)
    000004E5 77               [ 7] 1391 	ld	(hl), a
                                   1392 ;C:\Users\reina\OneDrive\Documentos\MSXgl\engine/src/print.h:202: g_PrintData.CharLast     = lastChr;
    000004E6 21r15r00         [10] 1393 	ld	hl, #(_g_PrintData + 21)
    000004E9 DD 7E FD         [19] 1394 	ld	a, -3 (ix)
    000004EC 77               [ 7] 1395 	ld	(hl), a
                                   1396 ;C:\Users\reina\OneDrive\Documentos\MSXgl\engine/src/print.h:203: g_PrintData.CharCount    = lastChr - firstChr + 1;
    000004ED 21r16r00         [10] 1397 	ld	hl, #_g_PrintData + 22
    000004F0 E3               [19] 1398 	ex	(sp), hl
    000004F1 DD 7E FD         [19] 1399 	ld	a, -3 (ix)
    000004F4 DD 96 FA         [19] 1400 	sub	a, -6 (ix)
    000004F7 DD 77 FD         [19] 1401 	ld	-3 (ix), a
    000004FA DD 34 FD         [23] 1402 	inc	-3 (ix)
    000004FD E1               [10] 1403 	pop	hl
    000004FE E5               [11] 1404 	push	hl
    000004FF DD 7E FD         [19] 1405 	ld	a, -3 (ix)
    00000502 77               [ 7] 1406 	ld	(hl), a
                                   1407 ;C:\Users\reina\OneDrive\Documentos\MSXgl\engine/src/print.h:204: g_PrintData.FontPatterns = patterns;
    00000503 21r1Cr00         [10] 1408 	ld	hl, #_g_PrintData + 28
    00000506 DD 75 F6         [19] 1409 	ld	-10 (ix), l
    00000509 DD 74 F7         [19] 1410 	ld	-9 (ix), h
    0000050C C1               [10] 1411 	pop	bc
    0000050D E1               [10] 1412 	pop	hl
    0000050E E5               [11] 1413 	push	hl
    0000050F C5               [11] 1414 	push	bc
    00000510 DD 7E F8         [19] 1415 	ld	a, -8 (ix)
    00000513 77               [ 7] 1416 	ld	(hl), a
    00000514 23               [ 6] 1417 	inc	hl
    00000515 DD 7E F9         [19] 1418 	ld	a, -7 (ix)
    00000518 77               [ 7] 1419 	ld	(hl), a
                                   1420 ;C:\Users\reina\OneDrive\Documentos\MSXgl\engine/src/print.h:205: g_PrintData.FontAddr     = g_PrintData.FontPatterns - (firstChr * g_PrintData.PatternY); // pre-compute address of the virtual index 0 character (used to quick drawing in PutChar_GX functions)
    00000519 3Ar01r00         [13] 1421 	ld	a, (#(_g_PrintData + 1) + 0)
    0000051C DD 77 FD         [19] 1422 	ld	-3 (ix), a
    0000051F 5F               [ 4] 1423 	ld	e, a
    00000520 DD 66 FA         [19] 1424 	ld	h, -6 (ix)
                                   1425 ;	spillPairReg hl
                                   1426 ;	spillPairReg hl
    00000523 2E 00            [ 7] 1427 	ld	l, #0x00
    00000525 55               [ 4] 1428 	ld	d, l
    00000526 06 08            [ 7] 1429 	ld	b, #0x08
    00000528                       1430 00145$:
    00000528 29               [11] 1431 	add	hl, hl
    00000529 30 01            [12] 1432 	jr	NC, 00146$
    0000052B 19               [11] 1433 	add	hl, de
    0000052C                       1434 00146$:
    0000052C 10 FA            [13] 1435 	djnz	00145$
    0000052E DD 75 FC         [19] 1436 	ld	-4 (ix), l
    00000531 DD 74 FD         [19] 1437 	ld	-3 (ix), h
    00000534 DD 7E F8         [19] 1438 	ld	a, -8 (ix)
    00000537 DD 96 FC         [19] 1439 	sub	a, -4 (ix)
    0000053A DD 77 FA         [19] 1440 	ld	-6 (ix), a
    0000053D DD 7E F9         [19] 1441 	ld	a, -7 (ix)
    00000540 DD 9E FD         [19] 1442 	sbc	a, -3 (ix)
    00000543 DD 77 FB         [19] 1443 	ld	-5 (ix), a
    00000546 21r1Er00         [10] 1444 	ld	hl, #(_g_PrintData + 30)
    00000549 DD 7E FA         [19] 1445 	ld	a, -6 (ix)
    0000054C 77               [ 7] 1446 	ld	(hl), a
    0000054D 23               [ 6] 1447 	inc	hl
    0000054E DD 7E FB         [19] 1448 	ld	a, -5 (ix)
    00000551 77               [ 7] 1449 	ld	(hl), a
                                   1450 ;C:\Users\reina\OneDrive\Documentos\MSXgl\engine/src/print.c:882: Print_SetFontEx(8, 8, 1, 1, fontData[2], fontData[3], fontData+4);
    00000552                       1451 00103$:
                                   1452 ;C:\Users\reina\OneDrive\Documentos\MSXgl\engine/src/print.c:883: Print_Initialize();
    00000552 CDr00r00         [17] 1453 	call	_Print_Initialize
                                   1454 ;C:\Users\reina\OneDrive\Documentos\MSXgl\engine/src/print.c:884: Print_SetMode(PRINT_MODE_TEXT);
    00000555 3E 04            [ 7] 1455 	ld	a, #0x04
    00000557 CDr65r00         [17] 1456 	call	_Print_SetMode
                                   1457 ;C:\Users\reina\OneDrive\Documentos\MSXgl\engine/src/print.c:887: const u8* src = g_PrintData.FontPatterns;
    0000055A DD 6E F6         [19] 1458 	ld	l, -10 (ix)
    0000055D DD 66 F7         [19] 1459 	ld	h, -9 (ix)
    00000560 7E               [ 7] 1460 	ld	a, (hl)
    00000561 DD 77 FC         [19] 1461 	ld	-4 (ix), a
    00000564 23               [ 6] 1462 	inc	hl
    00000565 7E               [ 7] 1463 	ld	a, (hl)
    00000566 DD 77 FD         [19] 1464 	ld	-3 (ix), a
                                   1465 ;C:\Users\reina\OneDrive\Documentos\MSXgl\engine/src/print.c:888: u16 dst = (u16)g_ScreenPatternLow + (offset * 8);
    00000569 DD 7E 04         [19] 1466 	ld	a, 4 (ix)
    0000056C DD 77 FA         [19] 1467 	ld	-6 (ix), a
    0000056F DD 36 FB 00      [19] 1468 	ld	-5 (ix), #0x00
    00000573 06 03            [ 7] 1469 	ld	b, #0x03
    00000575                       1470 00147$:
    00000575 DD CB FA 26      [23] 1471 	sla	-6 (ix)
    00000579 DD CB FB 16      [23] 1472 	rl	-5 (ix)
    0000057D 10 F6            [13] 1473 	djnz	00147$
    0000057F 2Ar00r00         [16] 1474 	ld	hl, (_g_ScreenPatternLow)
    00000582 DD 75 F6         [19] 1475 	ld	-10 (ix), l
    00000585 DD 74 F7         [19] 1476 	ld	-9 (ix), h
    00000588 DD 7E FA         [19] 1477 	ld	a, -6 (ix)
    0000058B DD 77 F8         [19] 1478 	ld	-8 (ix), a
    0000058E DD 7E FB         [19] 1479 	ld	a, -5 (ix)
    00000591 DD 77 F9         [19] 1480 	ld	-7 (ix), a
    00000594 DD 7E F6         [19] 1481 	ld	a, -10 (ix)
    00000597 DD 86 F8         [19] 1482 	add	a, -8 (ix)
    0000059A DD 77 FA         [19] 1483 	ld	-6 (ix), a
    0000059D DD 7E F7         [19] 1484 	ld	a, -9 (ix)
    000005A0 DD 8E F9         [19] 1485 	adc	a, -7 (ix)
    000005A3 DD 77 FB         [19] 1486 	ld	-5 (ix), a
                                   1487 ;C:\Users\reina\OneDrive\Documentos\MSXgl\engine/src/print.c:890: if(fontData != NULL)
    000005A6 DD 7E FF         [19] 1488 	ld	a, -1 (ix)
    000005A9 DD B6 FE         [19] 1489 	or	a, -2 (ix)
    000005AC 28 1D            [12] 1490 	jr	Z, 00105$
                                   1491 ;C:\Users\reina\OneDrive\Documentos\MSXgl\engine/src/print.c:891: CopyNo8HeightFontData(src, dst, fontData[0] & 0x0F);
    000005AE DD 6E FE         [19] 1492 	ld	l, -2 (ix)
    000005B1 DD 66 FF         [19] 1493 	ld	h, -1 (ix)
    000005B4 7E               [ 7] 1494 	ld	a, (hl)
    000005B5 E6 0F            [ 7] 1495 	and	a, #0x0f
    000005B7 F5               [11] 1496 	push	af
    000005B8 33               [ 6] 1497 	inc	sp
    000005B9 DD 5E FA         [19] 1498 	ld	e, -6 (ix)
    000005BC DD 56 FB         [19] 1499 	ld	d, -5 (ix)
    000005BF DD 6E FC         [19] 1500 	ld	l, -4 (ix)
                                   1501 ;	spillPairReg hl
                                   1502 ;	spillPairReg hl
    000005C2 DD 66 FD         [19] 1503 	ld	h, -3 (ix)
                                   1504 ;	spillPairReg hl
                                   1505 ;	spillPairReg hl
    000005C5 CDr86r03         [17] 1506 	call	_CopyNo8HeightFontData
    000005C8 C3rFAr05         [10] 1507 	jp	00106$
    000005CB                       1508 00105$:
                                   1509 ;C:\Users\reina\OneDrive\Documentos\MSXgl\engine/src/print.c:894: VDP_WriteVRAM(src, dst, 0, g_PrintData.CharCount * 8);
    000005CB E1               [10] 1510 	pop	hl
    000005CC E5               [11] 1511 	push	hl
    000005CD 7E               [ 7] 1512 	ld	a, (hl)
    000005CE DD 77 F9         [19] 1513 	ld	-7 (ix), a
    000005D1 DD 77 F8         [19] 1514 	ld	-8 (ix), a
    000005D4 DD 36 F9 00      [19] 1515 	ld	-7 (ix), #0x00
    000005D8 06 03            [ 7] 1516 	ld	b, #0x03
    000005DA                       1517 00148$:
    000005DA DD CB F8 26      [23] 1518 	sla	-8 (ix)
    000005DE DD CB F9 16      [23] 1519 	rl	-7 (ix)
    000005E2 10 F6            [13] 1520 	djnz	00148$
    000005E4 DD 6E F8         [19] 1521 	ld	l, -8 (ix)
                                   1522 ;	spillPairReg hl
                                   1523 ;	spillPairReg hl
    000005E7 DD 66 F9         [19] 1524 	ld	h, -7 (ix)
                                   1525 ;	spillPairReg hl
                                   1526 ;	spillPairReg hl
    000005EA E5               [11] 1527 	push	hl
    000005EB DD 5E FA         [19] 1528 	ld	e, -6 (ix)
    000005EE DD 56 FB         [19] 1529 	ld	d, -5 (ix)
    000005F1 DD 6E FC         [19] 1530 	ld	l, -4 (ix)
                                   1531 ;	spillPairReg hl
                                   1532 ;	spillPairReg hl
    000005F4 DD 66 FD         [19] 1533 	ld	h, -3 (ix)
                                   1534 ;	spillPairReg hl
                                   1535 ;	spillPairReg hl
    000005F7 CDr00r00         [17] 1536 	call	_VDP_WriteVRAM_16K
    000005FA                       1537 00106$:
                                   1538 ;C:\Users\reina\OneDrive\Documentos\MSXgl\engine/src/vdp.h:476: inline u8 VDP_GetMode() { return g_VDP_Data.Mode; }
    000005FA 3Ar00r00         [13] 1539 	ld	a, (#_g_VDP_Data + 0)
                                   1540 ;C:\Users\reina\OneDrive\Documentos\MSXgl\engine/src/print.c:896: switch(VDP_GetMode())
    000005FD D6 03            [ 7] 1541 	sub	a, #0x03
    000005FF C2rF3r06         [10] 1542 	jp	NZ,00118$
                                   1543 ;C:\Users\reina\OneDrive\Documentos\MSXgl\engine/src/print.c:905: dst += 256 * 8;
    00000602 DD 7E FA         [19] 1544 	ld	a, -6 (ix)
    00000605 DD 77 F8         [19] 1545 	ld	-8 (ix), a
    00000608 DD 7E FB         [19] 1546 	ld	a, -5 (ix)
    0000060B DD 77 F9         [19] 1547 	ld	-7 (ix), a
    0000060E DD 7E F8         [19] 1548 	ld	a, -8 (ix)
    00000611 DD 77 FA         [19] 1549 	ld	-6 (ix), a
    00000614 DD 7E F9         [19] 1550 	ld	a, -7 (ix)
    00000617 C6 08            [ 7] 1551 	add	a, #0x08
    00000619 DD 77 FB         [19] 1552 	ld	-5 (ix), a
    0000061C DD 7E FA         [19] 1553 	ld	a, -6 (ix)
    0000061F DD 77 F8         [19] 1554 	ld	-8 (ix), a
    00000622 DD 7E FB         [19] 1555 	ld	a, -5 (ix)
    00000625 DD 77 F9         [19] 1556 	ld	-7 (ix), a
                                   1557 ;C:\Users\reina\OneDrive\Documentos\MSXgl\engine/src/print.c:907: if(fontData != NULL)
    00000628 DD 7E FF         [19] 1558 	ld	a, -1 (ix)
    0000062B DD B6 FE         [19] 1559 	or	a, -2 (ix)
    0000062E 28 1D            [12] 1560 	jr	Z, 00109$
                                   1561 ;C:\Users\reina\OneDrive\Documentos\MSXgl\engine/src/print.c:908: CopyNo8HeightFontData(src, dst, fontData[0] & 0x0F);
    00000630 DD 6E FE         [19] 1562 	ld	l, -2 (ix)
    00000633 DD 66 FF         [19] 1563 	ld	h, -1 (ix)
    00000636 7E               [ 7] 1564 	ld	a, (hl)
    00000637 E6 0F            [ 7] 1565 	and	a, #0x0f
    00000639 F5               [11] 1566 	push	af
    0000063A 33               [ 6] 1567 	inc	sp
    0000063B DD 5E F8         [19] 1568 	ld	e, -8 (ix)
    0000063E DD 56 F9         [19] 1569 	ld	d, -7 (ix)
    00000641 DD 6E FC         [19] 1570 	ld	l, -4 (ix)
                                   1571 ;	spillPairReg hl
                                   1572 ;	spillPairReg hl
    00000644 DD 66 FD         [19] 1573 	ld	h, -3 (ix)
                                   1574 ;	spillPairReg hl
                                   1575 ;	spillPairReg hl
    00000647 CDr86r03         [17] 1576 	call	_CopyNo8HeightFontData
    0000064A C3r7Cr06         [10] 1577 	jp	00110$
    0000064D                       1578 00109$:
                                   1579 ;C:\Users\reina\OneDrive\Documentos\MSXgl\engine/src/print.c:911: VDP_WriteVRAM(src, dst, 0, g_PrintData.CharCount * 8);
    0000064D E1               [10] 1580 	pop	hl
    0000064E E5               [11] 1581 	push	hl
    0000064F 7E               [ 7] 1582 	ld	a, (hl)
    00000650 DD 77 FB         [19] 1583 	ld	-5 (ix), a
    00000653 DD 77 FA         [19] 1584 	ld	-6 (ix), a
    00000656 DD 36 FB 00      [19] 1585 	ld	-5 (ix), #0x00
    0000065A 06 03            [ 7] 1586 	ld	b, #0x03
    0000065C                       1587 00151$:
    0000065C DD CB FA 26      [23] 1588 	sla	-6 (ix)
    00000660 DD CB FB 16      [23] 1589 	rl	-5 (ix)
    00000664 10 F6            [13] 1590 	djnz	00151$
    00000666 DD 6E FA         [19] 1591 	ld	l, -6 (ix)
                                   1592 ;	spillPairReg hl
                                   1593 ;	spillPairReg hl
    00000669 DD 66 FB         [19] 1594 	ld	h, -5 (ix)
                                   1595 ;	spillPairReg hl
                                   1596 ;	spillPairReg hl
    0000066C E5               [11] 1597 	push	hl
    0000066D DD 5E F8         [19] 1598 	ld	e, -8 (ix)
    00000670 DD 56 F9         [19] 1599 	ld	d, -7 (ix)
    00000673 DD 6E FC         [19] 1600 	ld	l, -4 (ix)
                                   1601 ;	spillPairReg hl
                                   1602 ;	spillPairReg hl
    00000676 DD 66 FD         [19] 1603 	ld	h, -3 (ix)
                                   1604 ;	spillPairReg hl
                                   1605 ;	spillPairReg hl
    00000679 CDr00r00         [17] 1606 	call	_VDP_WriteVRAM_16K
    0000067C                       1607 00110$:
                                   1608 ;C:\Users\reina\OneDrive\Documentos\MSXgl\engine/src/print.c:912: dst += 256 * 8;
    0000067C DD 7E F8         [19] 1609 	ld	a, -8 (ix)
    0000067F DD 77 FA         [19] 1610 	ld	-6 (ix), a
    00000682 DD 7E F9         [19] 1611 	ld	a, -7 (ix)
    00000685 DD 77 FB         [19] 1612 	ld	-5 (ix), a
    00000688 DD 7E FA         [19] 1613 	ld	a, -6 (ix)
    0000068B DD 77 F8         [19] 1614 	ld	-8 (ix), a
    0000068E DD 7E FB         [19] 1615 	ld	a, -5 (ix)
    00000691 C6 08            [ 7] 1616 	add	a, #0x08
    00000693 DD 77 F9         [19] 1617 	ld	-7 (ix), a
    00000696 DD 7E F8         [19] 1618 	ld	a, -8 (ix)
    00000699 DD 77 FA         [19] 1619 	ld	-6 (ix), a
    0000069C DD 7E F9         [19] 1620 	ld	a, -7 (ix)
    0000069F DD 77 FB         [19] 1621 	ld	-5 (ix), a
                                   1622 ;C:\Users\reina\OneDrive\Documentos\MSXgl\engine/src/print.c:914: if(fontData != NULL)
    000006A2 DD 7E FF         [19] 1623 	ld	a, -1 (ix)
    000006A5 DD B6 FE         [19] 1624 	or	a, -2 (ix)
    000006A8 28 1D            [12] 1625 	jr	Z, 00112$
                                   1626 ;C:\Users\reina\OneDrive\Documentos\MSXgl\engine/src/print.c:915: CopyNo8HeightFontData(src, dst, fontData[0] & 0x0F);
    000006AA DD 6E FE         [19] 1627 	ld	l, -2 (ix)
    000006AD DD 66 FF         [19] 1628 	ld	h, -1 (ix)
    000006B0 7E               [ 7] 1629 	ld	a, (hl)
    000006B1 E6 0F            [ 7] 1630 	and	a, #0x0f
    000006B3 F5               [11] 1631 	push	af
    000006B4 33               [ 6] 1632 	inc	sp
    000006B5 DD 5E FA         [19] 1633 	ld	e, -6 (ix)
    000006B8 DD 56 FB         [19] 1634 	ld	d, -5 (ix)
    000006BB DD 6E FC         [19] 1635 	ld	l, -4 (ix)
                                   1636 ;	spillPairReg hl
                                   1637 ;	spillPairReg hl
    000006BE DD 66 FD         [19] 1638 	ld	h, -3 (ix)
                                   1639 ;	spillPairReg hl
                                   1640 ;	spillPairReg hl
    000006C1 CDr86r03         [17] 1641 	call	_CopyNo8HeightFontData
    000006C4 C3rF3r06         [10] 1642 	jp	00118$
    000006C7                       1643 00112$:
                                   1644 ;C:\Users\reina\OneDrive\Documentos\MSXgl\engine/src/print.c:918: VDP_WriteVRAM(src, dst, 0, g_PrintData.CharCount * 8);
    000006C7 E1               [10] 1645 	pop	hl
    000006C8 E5               [11] 1646 	push	hl
    000006C9 7E               [ 7] 1647 	ld	a, (hl)
    000006CA DD 77 F8         [19] 1648 	ld	-8 (ix), a
    000006CD DD 36 F9 00      [19] 1649 	ld	-7 (ix), #0x00
    000006D1 06 03            [ 7] 1650 	ld	b, #0x03
    000006D3                       1651 00152$:
    000006D3 DD CB F8 26      [23] 1652 	sla	-8 (ix)
    000006D7 DD CB F9 16      [23] 1653 	rl	-7 (ix)
    000006DB 10 F6            [13] 1654 	djnz	00152$
    000006DD DD 6E F8         [19] 1655 	ld	l, -8 (ix)
                                   1656 ;	spillPairReg hl
                                   1657 ;	spillPairReg hl
    000006E0 DD 66 F9         [19] 1658 	ld	h, -7 (ix)
                                   1659 ;	spillPairReg hl
                                   1660 ;	spillPairReg hl
    000006E3 E5               [11] 1661 	push	hl
    000006E4 DD 5E FA         [19] 1662 	ld	e, -6 (ix)
    000006E7 DD 56 FB         [19] 1663 	ld	d, -5 (ix)
    000006EA DD 6E FC         [19] 1664 	ld	l, -4 (ix)
                                   1665 ;	spillPairReg hl
                                   1666 ;	spillPairReg hl
    000006ED DD 66 FD         [19] 1667 	ld	h, -3 (ix)
                                   1668 ;	spillPairReg hl
                                   1669 ;	spillPairReg hl
    000006F0 CDr00r00         [17] 1670 	call	_VDP_WriteVRAM_16K
                                   1671 ;C:\Users\reina\OneDrive\Documentos\MSXgl\engine/src/print.c:921: };
    000006F3                       1672 00118$:
                                   1673 ;C:\Users\reina\OneDrive\Documentos\MSXgl\engine/src/print.c:922: }
    000006F3 DD F9            [10] 1674 	ld	sp, ix
    000006F5 DD E1            [14] 1675 	pop	ix
    000006F7 E1               [10] 1676 	pop	hl
    000006F8 33               [ 6] 1677 	inc	sp
    000006F9 E9               [ 4] 1678 	jp	(hl)
                                   1679 ;C:\Users\reina\OneDrive\Documentos\MSXgl\engine/src/print.c:927: void DrawChar_Layout(u8 chr)
                                   1680 ;	---------------------------------
                                   1681 ; Function DrawChar_Layout
                                   1682 ; ---------------------------------
    000006FA                       1683 _DrawChar_Layout::
    000006FA DD E5            [15] 1684 	push	ix
    000006FC DD 21 00 00      [14] 1685 	ld	ix,#0
    00000700 DD 39            [15] 1686 	add	ix,sp
    00000702 3B               [ 6] 1687 	dec	sp
                                   1688 ;C:\Users\reina\OneDrive\Documentos\MSXgl\engine/src/print.c:930: chr = Print_ValidateChar(chr);
    00000703 CDr6Br02         [17] 1689 	call	_Print_ValidateChar
    00000706 4F               [ 4] 1690 	ld	c, a
                                   1691 ;C:\Users\reina\OneDrive\Documentos\MSXgl\engine/src/print.c:932: u8 shape = chr - g_PrintData.CharFirst + g_PrintData.PatternOffset;
    00000707 21r14r00         [10] 1692 	ld	hl, #_g_PrintData + 20
    0000070A 46               [ 7] 1693 	ld	b, (hl)
    0000070B 79               [ 4] 1694 	ld	a, c
    0000070C 90               [ 4] 1695 	sub	a, b
    0000070D 21r20r00         [10] 1696 	ld	hl, #_g_PrintData + 32
    00000710 4E               [ 7] 1697 	ld	c, (hl)
    00000711 81               [ 4] 1698 	add	a, c
    00000712 DD 77 FF         [19] 1699 	ld	-1 (ix), a
                                   1700 ;C:\Users\reina\OneDrive\Documentos\MSXgl\engine/src/print.c:933: u16 dst = (u16)g_ScreenLayoutLow + (g_PrintData.CursorY * g_PrintData.ScreenWidth) + g_PrintData.CursorX;
    00000715 21r06r00         [10] 1701 	ld	hl, #_g_PrintData + 6
    00000718 4E               [ 7] 1702 	ld	c, (hl)
    00000719 ED 5Br1Ar00      [20] 1703 	ld	de, (#_g_PrintData + 26)
    0000071D 26 00            [ 7] 1704 	ld	h, #0x00
                                   1705 ;	spillPairReg hl
                                   1706 ;	spillPairReg hl
    0000071F 69               [ 4] 1707 	ld	l, c
                                   1708 ;	spillPairReg hl
                                   1709 ;	spillPairReg hl
    00000720 CDr00r00         [17] 1710 	call	__mulint
    00000723 FD 2Ar00r00      [20] 1711 	ld	iy, (_g_ScreenLayoutLow)
    00000727 FD 19            [15] 1712 	add	iy, de
    00000729 3Ar05r00         [13] 1713 	ld	a, (#_g_PrintData + 5)
    0000072C 6F               [ 4] 1714 	ld	l, a
                                   1715 ;	spillPairReg hl
                                   1716 ;	spillPairReg hl
    0000072D 26 00            [ 7] 1717 	ld	h, #0x00
                                   1718 ;	spillPairReg hl
                                   1719 ;	spillPairReg hl
    0000072F FD E5            [15] 1720 	push	iy
    00000731 C1               [10] 1721 	pop	bc
    00000732 09               [11] 1722 	add	hl, bc
    00000733 EB               [ 4] 1723 	ex	de, hl
                                   1724 ;C:\Users\reina\OneDrive\Documentos\MSXgl\engine/src/print.c:934: VDP_Poke(shape, dst, g_ScreenLayoutHigh);
    00000734 DD 7E FF         [19] 1725 	ld	a, -1 (ix)
    00000737 CDr00r00         [17] 1726 	call	_VDP_Poke_16K
                                   1727 ;C:\Users\reina\OneDrive\Documentos\MSXgl\engine/src/print.c:935: }
    0000073A 33               [ 6] 1728 	inc	sp
    0000073B DD E1            [14] 1729 	pop	ix
    0000073D C9               [10] 1730 	ret
                                   1731 ;C:\Users\reina\OneDrive\Documentos\MSXgl\engine/src/print.c:1100: void Print_Clear()
                                   1732 ;	---------------------------------
                                   1733 ; Function Print_Clear
                                   1734 ; ---------------------------------
    0000073E                       1735 _Print_Clear::
                                   1736 ;C:\Users\reina\OneDrive\Documentos\MSXgl\engine/src/vdp.h:476: inline u8 VDP_GetMode() { return g_VDP_Data.Mode; }
                                   1737 ;C:\Users\reina\OneDrive\Documentos\MSXgl\engine/src/vdp.h:492: return mode >= VDP_MODE_GRAPHIC4;
    0000073E 3Ar00r00         [13] 1738 	ld	a, (#_g_VDP_Data + 0)
    00000741 D6 06            [ 7] 1739 	sub	a, #0x06
    00000743 3E 00            [ 7] 1740 	ld	a, #0x00
    00000745 17               [ 4] 1741 	rla
                                   1742 ;C:\Users\reina\OneDrive\Documentos\MSXgl\engine/src/print.c:1102: if(VDP_IsBitmapMode(VDP_GetMode())) // Bitmap mode
    00000746 EE 01            [ 7] 1743 	xor	a,#0x01
    00000748 C0               [11] 1744 	ret	NZ
                                   1745 ;C:\Users\reina\OneDrive\Documentos\MSXgl\engine/src/print.c:1113: VDP_FillVRAM(0, g_ScreenLayoutLow, g_ScreenLayoutHigh, 24 * g_PrintData.ScreenWidth);
    00000749 2Ar1Ar00         [16] 1746 	ld	hl, (#(_g_PrintData + 26) + 0)
    0000074C 4D               [ 4] 1747 	ld	c, l
    0000074D 44               [ 4] 1748 	ld	b, h
    0000074E 29               [11] 1749 	add	hl, hl
    0000074F 09               [11] 1750 	add	hl, bc
    00000750 29               [11] 1751 	add	hl, hl
    00000751 29               [11] 1752 	add	hl, hl
    00000752 29               [11] 1753 	add	hl, hl
    00000753 E5               [11] 1754 	push	hl
    00000754 ED 5Br00r00      [20] 1755 	ld	de, (_g_ScreenLayoutLow)
    00000758 AF               [ 4] 1756 	xor	a, a
    00000759 CDr00r00         [17] 1757 	call	_VDP_FillVRAM_16K
                                   1758 ;C:\Users\reina\OneDrive\Documentos\MSXgl\engine/src/print.c:1116: }
    0000075C C9               [10] 1759 	ret
                                   1760 ;C:\Users\reina\OneDrive\Documentos\MSXgl\engine/src/print.c:1121: void Print_Backspace(u8 num)
                                   1761 ;	---------------------------------
                                   1762 ; Function Print_Backspace
                                   1763 ; ---------------------------------
    0000075D                       1764 _Print_Backspace::
    0000075D DD E5            [15] 1765 	push	ix
    0000075F DD 21 00 00      [14] 1766 	ld	ix,#0
    00000763 DD 39            [15] 1767 	add	ix,sp
    00000765 3B               [ 6] 1768 	dec	sp
    00000766 DD 77 FF         [19] 1769 	ld	-1 (ix), a
                                   1770 ;C:\Users\reina\OneDrive\Documentos\MSXgl\engine/src/vdp.h:476: inline u8 VDP_GetMode() { return g_VDP_Data.Mode; }
                                   1771 ;C:\Users\reina\OneDrive\Documentos\MSXgl\engine/src/vdp.h:492: return mode >= VDP_MODE_GRAPHIC4;
    00000769 3Ar00r00         [13] 1772 	ld	a, (#_g_VDP_Data+0)
    0000076C D6 06            [ 7] 1773 	sub	a, #0x06
    0000076E 3E 00            [ 7] 1774 	ld	a, #0x00
    00000770 17               [ 4] 1775 	rla
                                   1776 ;C:\Users\reina\OneDrive\Documentos\MSXgl\engine/src/print.c:1123: if(VDP_IsBitmapMode(VDP_GetMode())) // Bitmap mode
    00000771 EE 01            [ 7] 1777 	xor	a,#0x01
    00000773 20 34            [12] 1778 	jr	NZ, 00106$
                                   1779 ;C:\Users\reina\OneDrive\Documentos\MSXgl\engine/src/print.c:1141: u16 dst = g_ScreenLayoutLow + (g_PrintData.CursorY * g_PrintData.ScreenWidth) + g_PrintData.CursorX - num;
    00000775 21r06r00         [10] 1780 	ld	hl, #_g_PrintData + 6
    00000778 4E               [ 7] 1781 	ld	c, (hl)
    00000779 ED 5Br1Ar00      [20] 1782 	ld	de, (#_g_PrintData + 26)
    0000077D 26 00            [ 7] 1783 	ld	h, #0x00
                                   1784 ;	spillPairReg hl
                                   1785 ;	spillPairReg hl
    0000077F 69               [ 4] 1786 	ld	l, c
                                   1787 ;	spillPairReg hl
                                   1788 ;	spillPairReg hl
    00000780 CDr00r00         [17] 1789 	call	__mulint
    00000783 2Ar00r00         [16] 1790 	ld	hl, (_g_ScreenLayoutLow)
    00000786 19               [11] 1791 	add	hl, de
    00000787 01r05r00         [10] 1792 	ld	bc, #_g_PrintData + 5
    0000078A 0A               [ 7] 1793 	ld	a, (bc)
    0000078B 5F               [ 4] 1794 	ld	e, a
    0000078C 16 00            [ 7] 1795 	ld	d, #0x00
    0000078E 19               [11] 1796 	add	hl, de
    0000078F DD 5E FF         [19] 1797 	ld	e, -1 (ix)
    00000792 16 00            [ 7] 1798 	ld	d, #0x00
    00000794 BF               [ 4] 1799 	cp	a, a
    00000795 ED 52            [15] 1800 	sbc	hl, de
    00000797 EB               [ 4] 1801 	ex	de, hl
                                   1802 ;C:\Users\reina\OneDrive\Documentos\MSXgl\engine/src/print.c:1142: VDP_FillVRAM(0, dst, g_ScreenLayoutHigh, num);
    00000798 DD 6E FF         [19] 1803 	ld	l, -1 (ix)
                                   1804 ;	spillPairReg hl
                                   1805 ;	spillPairReg hl
    0000079B 26 00            [ 7] 1806 	ld	h, #0x00
                                   1807 ;	spillPairReg hl
                                   1808 ;	spillPairReg hl
    0000079D C5               [11] 1809 	push	bc
    0000079E E5               [11] 1810 	push	hl
    0000079F AF               [ 4] 1811 	xor	a, a
    000007A0 CDr00r00         [17] 1812 	call	_VDP_FillVRAM_16K
    000007A3 C1               [10] 1813 	pop	bc
                                   1814 ;C:\Users\reina\OneDrive\Documentos\MSXgl\engine/src/print.c:1143: g_PrintData.CursorX -= num;
    000007A4 0A               [ 7] 1815 	ld	a, (bc)
    000007A5 DD 96 FF         [19] 1816 	sub	a, -1 (ix)
    000007A8 02               [ 7] 1817 	ld	(bc), a
    000007A9                       1818 00106$:
                                   1819 ;C:\Users\reina\OneDrive\Documentos\MSXgl\engine/src/print.c:1146: }
    000007A9 33               [ 6] 1820 	inc	sp
    000007AA DD E1            [14] 1821 	pop	ix
    000007AC C9               [10] 1822 	ret
                                   1823 ;C:\Users\reina\OneDrive\Documentos\MSXgl\engine/src/print.c:1151: void Print_DrawChar(u8 chr)
                                   1824 ;	---------------------------------
                                   1825 ; Function Print_DrawChar
                                   1826 ; ---------------------------------
    000007AD                       1827 _Print_DrawChar::
    000007AD DD E5            [15] 1828 	push	ix
    000007AF DD 21 00 00      [14] 1829 	ld	ix,#0
    000007B3 DD 39            [15] 1830 	add	ix,sp
    000007B5 3B               [ 6] 1831 	dec	sp
    000007B6 DD 77 FF         [19] 1832 	ld	-1 (ix), a
                                   1833 ;C:\Users\reina\OneDrive\Documentos\MSXgl\engine/src/print.c:1154: if(g_PrintData.CursorX + PRINT_W(g_PrintData.UnitX) > g_PrintData.ScreenWidth) // Handle automatic new-line when 
    000007B9 01r05r00         [10] 1834 	ld	bc, #_g_PrintData + 5
    000007BC 0A               [ 7] 1835 	ld	a, (bc)
    000007BD 5F               [ 4] 1836 	ld	e, a
    000007BE 16 00            [ 7] 1837 	ld	d, #0x00
    000007C0 13               [ 6] 1838 	inc	de
    000007C1 2Ar1Ar00         [16] 1839 	ld	hl, (#_g_PrintData + 26)
    000007C4 AF               [ 4] 1840 	xor	a, a
    000007C5 ED 52            [15] 1841 	sbc	hl, de
    000007C7 30 08            [12] 1842 	jr	NC, 00102$
                                   1843 ;C:\Users\reina\OneDrive\Documentos\MSXgl\engine/src/print.h:436: g_PrintData.CursorX = 0;
    000007C9 AF               [ 4] 1844 	xor	a, a
    000007CA 02               [ 7] 1845 	ld	(bc), a
                                   1846 ;C:\Users\reina\OneDrive\Documentos\MSXgl\engine/src/print.h:437: g_PrintData.CursorY += PRINT_H(g_PrintData.UnitY);
    000007CB 11r06r00         [10] 1847 	ld	de, #_g_PrintData + 6
    000007CE 1A               [ 7] 1848 	ld	a, (de)
    000007CF 3C               [ 4] 1849 	inc	a
    000007D0 12               [ 7] 1850 	ld	(de), a
                                   1851 ;C:\Users\reina\OneDrive\Documentos\MSXgl\engine/src/print.c:1155: Print_Return();
    000007D1                       1852 00102$:
                                   1853 ;C:\Users\reina\OneDrive\Documentos\MSXgl\engine/src/print.c:1160: g_PrintData.DrawChar(chr);
    000007D1 2Ar17r00         [16] 1854 	ld	hl, (#_g_PrintData + 23)
    000007D4 C5               [11] 1855 	push	bc
    000007D5 DD 7E FF         [19] 1856 	ld	a, -1 (ix)
    000007D8 CDr00r00         [17] 1857 	call	___sdcc_call_hl
    000007DB C1               [10] 1858 	pop	bc
                                   1859 ;C:\Users\reina\OneDrive\Documentos\MSXgl\engine/src/print.c:1163: g_PrintData.CursorX += PRINT_W(g_PrintData.UnitX);
    000007DC 0A               [ 7] 1860 	ld	a, (bc)
    000007DD 3C               [ 4] 1861 	inc	a
    000007DE 02               [ 7] 1862 	ld	(bc), a
                                   1863 ;C:\Users\reina\OneDrive\Documentos\MSXgl\engine/src/print.c:1164: }
    000007DF 33               [ 6] 1864 	inc	sp
    000007E0 DD E1            [14] 1865 	pop	ix
    000007E2 C9               [10] 1866 	ret
                                   1867 ;C:\Users\reina\OneDrive\Documentos\MSXgl\engine/src/print.c:1170: void Print_DrawCharX(c8 chr, u8 num)
                                   1868 ;	---------------------------------
                                   1869 ; Function Print_DrawCharX
                                   1870 ; ---------------------------------
    000007E3                       1871 _Print_DrawCharX::
    000007E3 4F               [ 4] 1872 	ld	c, a
                                   1873 ;C:\Users\reina\OneDrive\Documentos\MSXgl\engine/src/print.c:1172: for(u8 i = 0; i < num; ++i)
    000007E4 06 00            [ 7] 1874 	ld	b, #0x00
    000007E6                       1875 00103$:
    000007E6 78               [ 4] 1876 	ld	a, b
    000007E7 95               [ 4] 1877 	sub	a, l
    000007E8 D0               [11] 1878 	ret	NC
                                   1879 ;C:\Users\reina\OneDrive\Documentos\MSXgl\engine/src/print.c:1173: Print_DrawChar(chr);
    000007E9 E5               [11] 1880 	push	hl
    000007EA C5               [11] 1881 	push	bc
    000007EB 79               [ 4] 1882 	ld	a, c
    000007EC CDrADr07         [17] 1883 	call	_Print_DrawChar
    000007EF C1               [10] 1884 	pop	bc
    000007F0 E1               [10] 1885 	pop	hl
                                   1886 ;C:\Users\reina\OneDrive\Documentos\MSXgl\engine/src/print.c:1172: for(u8 i = 0; i < num; ++i)
    000007F1 04               [ 4] 1887 	inc	b
                                   1888 ;C:\Users\reina\OneDrive\Documentos\MSXgl\engine/src/print.c:1174: }
    000007F2 C3rE6r07         [10] 1889 	jp	00103$
                                   1890 ;C:\Users\reina\OneDrive\Documentos\MSXgl\engine/src/print.c:1179: void Print_DrawText(const c8* str)
                                   1891 ;	---------------------------------
                                   1892 ; Function Print_DrawText
                                   1893 ; ---------------------------------
    000007F5                       1894 _Print_DrawText::
    000007F5 EB               [ 4] 1895 	ex	de, hl
                                   1896 ;C:\Users\reina\OneDrive\Documentos\MSXgl\engine/src/print.c:1181: while(*str != 0)
    000007F6                       1897 00107$:
    000007F6 1A               [ 7] 1898 	ld	a, (de)
                                   1899 ;C:\Users\reina\OneDrive\Documentos\MSXgl\engine/src/print.c:1183: if(*str == '\t')
    000007F7 4F               [ 4] 1900 	ld	c,a
    000007F8 B7               [ 4] 1901 	or	a,a
    000007F9 C8               [11] 1902 	ret	Z
    000007FA D6 09            [ 7] 1903 	sub	a, #0x09
    000007FC 20 19            [12] 1904 	jr	NZ, 00105$
                                   1905 ;C:\Users\reina\OneDrive\Documentos\MSXgl\engine/src/print.h:428: g_PrintData.CursorX += PRINT_W(g_PrintData.UnitX) + g_PrintData.TabSize - 1;
    000007FE 01r05r00         [10] 1906 	ld	bc, #_g_PrintData + 5
    00000801 0A               [ 7] 1907 	ld	a, (bc)
    00000802 21r04r00         [10] 1908 	ld	hl, #(_g_PrintData + 4)
    00000805 6E               [ 7] 1909 	ld	l, (hl)
                                   1910 ;	spillPairReg hl
    00000806 85               [ 4] 1911 	add	a, l
    00000807 02               [ 7] 1912 	ld	(bc), a
                                   1913 ;C:\Users\reina\OneDrive\Documentos\MSXgl\engine/src/print.h:429: g_PrintData.CursorX &= ~(g_PrintData.TabSize - 1);
    00000808 21r04r00         [10] 1914 	ld	hl, #(_g_PrintData + 4)
    0000080B 6E               [ 7] 1915 	ld	l, (hl)
                                   1916 ;	spillPairReg hl
    0000080C 2D               [ 4] 1917 	dec	l
    0000080D F5               [11] 1918 	push	af
    0000080E 7D               [ 4] 1919 	ld	a, l
    0000080F 2F               [ 4] 1920 	cpl
    00000810 6F               [ 4] 1921 	ld	l, a
                                   1922 ;	spillPairReg hl
                                   1923 ;	spillPairReg hl
    00000811 F1               [10] 1924 	pop	af
    00000812 A5               [ 4] 1925 	and	a, l
    00000813 02               [ 7] 1926 	ld	(bc), a
                                   1927 ;C:\Users\reina\OneDrive\Documentos\MSXgl\engine/src/print.c:1184: Print_Tab();
    00000814 C3r30r08         [10] 1928 	jp	00106$
    00000817                       1929 00105$:
                                   1930 ;C:\Users\reina\OneDrive\Documentos\MSXgl\engine/src/print.c:1185: else if(*str == '\n')
    00000817 79               [ 4] 1931 	ld	a, c
    00000818 D6 0A            [ 7] 1932 	sub	a, #0x0a
    0000081A 20 0E            [12] 1933 	jr	NZ, 00102$
                                   1934 ;C:\Users\reina\OneDrive\Documentos\MSXgl\engine/src/print.h:436: g_PrintData.CursorX = 0;
    0000081C 21r05r00         [10] 1935 	ld	hl, #(_g_PrintData + 5)
    0000081F 36 00            [10] 1936 	ld	(hl), #0x00
                                   1937 ;C:\Users\reina\OneDrive\Documentos\MSXgl\engine/src/print.h:437: g_PrintData.CursorY += PRINT_H(g_PrintData.UnitY);
    00000821 01r06r00         [10] 1938 	ld	bc, #_g_PrintData + 6
    00000824 0A               [ 7] 1939 	ld	a, (bc)
    00000825 3C               [ 4] 1940 	inc	a
    00000826 02               [ 7] 1941 	ld	(bc), a
                                   1942 ;C:\Users\reina\OneDrive\Documentos\MSXgl\engine/src/print.c:1186: Print_Return();
    00000827 C3r30r08         [10] 1943 	jp	00106$
    0000082A                       1944 00102$:
                                   1945 ;C:\Users\reina\OneDrive\Documentos\MSXgl\engine/src/print.c:1192: Print_DrawChar(*str);
    0000082A D5               [11] 1946 	push	de
    0000082B 79               [ 4] 1947 	ld	a, c
    0000082C CDrADr07         [17] 1948 	call	_Print_DrawChar
    0000082F D1               [10] 1949 	pop	de
    00000830                       1950 00106$:
                                   1951 ;C:\Users\reina\OneDrive\Documentos\MSXgl\engine/src/print.c:1193: str++;
    00000830 13               [ 6] 1952 	inc	de
                                   1953 ;C:\Users\reina\OneDrive\Documentos\MSXgl\engine/src/print.c:1195: }
    00000831 C3rF6r07         [10] 1954 	jp	00107$
                                   1955 ;C:\Users\reina\OneDrive\Documentos\MSXgl\engine/src/print.c:1200: void Print_DrawBin8(u8 value)
                                   1956 ;	---------------------------------
                                   1957 ; Function Print_DrawBin8
                                   1958 ; ---------------------------------
    00000834                       1959 _Print_DrawBin8::
    00000834 6F               [ 4] 1960 	ld	l, a
                                   1961 ;	spillPairReg hl
                                   1962 ;	spillPairReg hl
                                   1963 ;C:\Users\reina\OneDrive\Documentos\MSXgl\engine/src/print.c:1202: u8 flag = (u8)(1 << 7);
                                   1964 ;C:\Users\reina\OneDrive\Documentos\MSXgl\engine/src/print.c:1203: for(u8 i = 0; i < 8; ++i)
    00000835 01 80 00         [10] 1965 	ld	bc, #0x80
    00000838                       1966 00103$:
    00000838 78               [ 4] 1967 	ld	a, b
    00000839 D6 08            [ 7] 1968 	sub	a, #0x08
    0000083B D0               [11] 1969 	ret	NC
                                   1970 ;C:\Users\reina\OneDrive\Documentos\MSXgl\engine/src/print.c:1205: Print_DrawChar((value & flag) ? '1' : '0');
    0000083C 7D               [ 4] 1971 	ld	a, l
    0000083D A1               [ 4] 1972 	and	a,c
    0000083E 28 06            [12] 1973 	jr	Z, 00107$
    00000840 11 31 00         [10] 1974 	ld	de, #0x0031
    00000843 C3r49r08         [10] 1975 	jp	00108$
    00000846                       1976 00107$:
    00000846 11 30 00         [10] 1977 	ld	de, #0x0030
    00000849                       1978 00108$:
    00000849 E5               [11] 1979 	push	hl
    0000084A C5               [11] 1980 	push	bc
    0000084B 7B               [ 4] 1981 	ld	a, e
    0000084C CDrADr07         [17] 1982 	call	_Print_DrawChar
    0000084F C1               [10] 1983 	pop	bc
    00000850 E1               [10] 1984 	pop	hl
                                   1985 ;C:\Users\reina\OneDrive\Documentos\MSXgl\engine/src/print.c:1206: flag >>= 1;
    00000851 CB 39            [ 8] 1986 	srl	c
                                   1987 ;C:\Users\reina\OneDrive\Documentos\MSXgl\engine/src/print.c:1203: for(u8 i = 0; i < 8; ++i)
    00000853 04               [ 4] 1988 	inc	b
                                   1989 ;C:\Users\reina\OneDrive\Documentos\MSXgl\engine/src/print.c:1211: }
    00000854 C3r38r08         [10] 1990 	jp	00103$
                                   1991 ;C:\Users\reina\OneDrive\Documentos\MSXgl\engine/src/print.c:1216: void Print_DrawHex8(u8 value)
                                   1992 ;	---------------------------------
                                   1993 ; Function Print_DrawHex8
                                   1994 ; ---------------------------------
    00000857                       1995 _Print_DrawHex8::
    00000857 5F               [ 4] 1996 	ld	e, a
                                   1997 ;C:\Users\reina\OneDrive\Documentos\MSXgl\engine/src/print.c:1218: Print_DrawChar(g_HexChar[(value >> 4) & 0x000F]);
    00000858 01r55r00         [10] 1998 	ld	bc, #_g_HexChar+0
    0000085B 7B               [ 4] 1999 	ld	a, e
    0000085C 07               [ 4] 2000 	rlca
    0000085D 07               [ 4] 2001 	rlca
    0000085E 07               [ 4] 2002 	rlca
    0000085F 07               [ 4] 2003 	rlca
                                   2004 ;	spillPairReg hl
                                   2005 ;	spillPairReg hl
                                   2006 ;	spillPairReg hl
                                   2007 ;	spillPairReg hl
    00000860 E6 0F            [ 7] 2008 	and	a, #0xf
    00000862 6F               [ 4] 2009 	ld	l, a
                                   2010 ;	spillPairReg hl
                                   2011 ;	spillPairReg hl
    00000863 26 00            [ 7] 2012 	ld	h, #0x00
                                   2013 ;	spillPairReg hl
                                   2014 ;	spillPairReg hl
    00000865 09               [11] 2015 	add	hl, bc
    00000866 56               [ 7] 2016 	ld	d, (hl)
    00000867 C5               [11] 2017 	push	bc
    00000868 D5               [11] 2018 	push	de
    00000869 7A               [ 4] 2019 	ld	a, d
    0000086A CDrADr07         [17] 2020 	call	_Print_DrawChar
    0000086D D1               [10] 2021 	pop	de
    0000086E C1               [10] 2022 	pop	bc
                                   2023 ;C:\Users\reina\OneDrive\Documentos\MSXgl\engine/src/print.c:1219: Print_DrawChar(g_HexChar[value & 0x000F]);
    0000086F 16 00            [ 7] 2024 	ld	d, #0x00
    00000871 7B               [ 4] 2025 	ld	a, e
    00000872 E6 0F            [ 7] 2026 	and	a, #0x0f
    00000874 6F               [ 4] 2027 	ld	l, a
                                   2028 ;	spillPairReg hl
                                   2029 ;	spillPairReg hl
    00000875 26 00            [ 7] 2030 	ld	h, #0x00
                                   2031 ;	spillPairReg hl
                                   2032 ;	spillPairReg hl
    00000877 09               [11] 2033 	add	hl, bc
    00000878 4E               [ 7] 2034 	ld	c, (hl)
    00000879 79               [ 4] 2035 	ld	a, c
                                   2036 ;C:\Users\reina\OneDrive\Documentos\MSXgl\engine/src/print.c:1223: }
    0000087A C3rADr07         [10] 2037 	jp	_Print_DrawChar
                                   2038 ;C:\Users\reina\OneDrive\Documentos\MSXgl\engine/src/print.c:1228: void Print_DrawHex16(u16 value)
                                   2039 ;	---------------------------------
                                   2040 ; Function Print_DrawHex16
                                   2041 ; ---------------------------------
    0000087D                       2042 _Print_DrawHex16::
                                   2043 ;C:\Users\reina\OneDrive\Documentos\MSXgl\engine/src/print.c:1230: Print_DrawHex8(value >> 8);
    0000087D 4C               [ 4] 2044 	ld	c, h
    0000087E E5               [11] 2045 	push	hl
    0000087F 79               [ 4] 2046 	ld	a, c
    00000880 CDr57r08         [17] 2047 	call	_Print_DrawHex8
    00000883 E1               [10] 2048 	pop	hl
                                   2049 ;C:\Users\reina\OneDrive\Documentos\MSXgl\engine/src/print.c:1231: Print_DrawHex8((u8)value);
    00000884 7D               [ 4] 2050 	ld	a, l
                                   2051 ;C:\Users\reina\OneDrive\Documentos\MSXgl\engine/src/print.c:1232: }
    00000885 C3r57r08         [10] 2052 	jp	_Print_DrawHex8
                                   2053 ;C:\Users\reina\OneDrive\Documentos\MSXgl\engine/src/print.c:1238: void Print_DrawHex32(u32 value)
                                   2054 ;	---------------------------------
                                   2055 ; Function Print_DrawHex32
                                   2056 ; ---------------------------------
    00000888                       2057 _Print_DrawHex32::
                                   2058 ;C:\Users\reina\OneDrive\Documentos\MSXgl\engine/src/print.c:1240: Print_DrawHex16(value >> 16);
                                   2059 ;	spillPairReg hl
                                   2060 ;	spillPairReg hl
                                   2061 ;	spillPairReg hl
                                   2062 ;	spillPairReg hl
    00000888 E5               [11] 2063 	push	hl
    00000889 D5               [11] 2064 	push	de
    0000088A CDr7Dr08         [17] 2065 	call	_Print_DrawHex16
    0000088D D1               [10] 2066 	pop	de
    0000088E C1               [10] 2067 	pop	bc
                                   2068 ;C:\Users\reina\OneDrive\Documentos\MSXgl\engine/src/print.c:1241: Print_DrawHex16((u16)value);
    0000088F EB               [ 4] 2069 	ex	de, hl
                                   2070 ;C:\Users\reina\OneDrive\Documentos\MSXgl\engine/src/print.c:1242: }
    00000890 C3r7Dr08         [10] 2071 	jp	_Print_DrawHex16
                                   2072 ;C:\Users\reina\OneDrive\Documentos\MSXgl\engine/src/print.c:1249: void Print_DrawInt(i32 value)
                                   2073 ;	---------------------------------
                                   2074 ; Function Print_DrawInt
                                   2075 ; ---------------------------------
    00000893                       2076 _Print_DrawInt::
    00000893 DD E5            [15] 2077 	push	ix
    00000895 DD 21 00 00      [14] 2078 	ld	ix,#0
    00000899 DD 39            [15] 2079 	add	ix,sp
    0000089B FD 21 F4 FF      [14] 2080 	ld	iy, #-12
    0000089F FD 39            [15] 2081 	add	iy, sp
    000008A1 FD F9            [10] 2082 	ld	sp, iy
    000008A3 DD 73 FC         [19] 2083 	ld	-4 (ix), e
    000008A6 DD 72 FD         [19] 2084 	ld	-3 (ix), d
    000008A9 DD 75 FE         [19] 2085 	ld	-2 (ix), l
    000008AC DD 74 FF         [19] 2086 	ld	-1 (ix), h
                                   2087 ;C:\Users\reina\OneDrive\Documentos\MSXgl\engine/src/print.c:1256: if(value < 0)
    000008AF DD CB FF 7E      [20] 2088 	bit	7, -1 (ix)
    000008B3 28 23            [12] 2089 	jr	Z, 00102$
                                   2090 ;C:\Users\reina\OneDrive\Documentos\MSXgl\engine/src/print.c:1258: Print_DrawChar('-');
    000008B5 3E 2D            [ 7] 2091 	ld	a, #0x2d
    000008B7 CDrADr07         [17] 2092 	call	_Print_DrawChar
                                   2093 ;C:\Users\reina\OneDrive\Documentos\MSXgl\engine/src/print.c:1259: value = -value;
    000008BA AF               [ 4] 2094 	xor	a, a
    000008BB DD 96 FC         [19] 2095 	sub	a, -4 (ix)
    000008BE DD 77 FC         [19] 2096 	ld	-4 (ix), a
    000008C1 3E 00            [ 7] 2097 	ld	a, #0x00
    000008C3 DD 9E FD         [19] 2098 	sbc	a, -3 (ix)
    000008C6 DD 77 FD         [19] 2099 	ld	-3 (ix), a
    000008C9 3E 00            [ 7] 2100 	ld	a, #0x00
    000008CB DD 9E FE         [19] 2101 	sbc	a, -2 (ix)
    000008CE DD 77 FE         [19] 2102 	ld	-2 (ix), a
    000008D1 9F               [ 4] 2103 	sbc	a, a
    000008D2 DD 96 FF         [19] 2104 	sub	a, -1 (ix)
    000008D5 DD 77 FF         [19] 2105 	ld	-1 (ix), a
    000008D8                       2106 00102$:
                                   2107 ;C:\Users\reina\OneDrive\Documentos\MSXgl\engine/src/print.c:1263: c8* ptr = str;
    000008D8 21 00 00         [10] 2108 	ld	hl, #0
    000008DB 39               [11] 2109 	add	hl, sp
    000008DC 4D               [ 4] 2110 	ld	c, l
    000008DD 44               [ 4] 2111 	ld	b, h
                                   2112 ;C:\Users\reina\OneDrive\Documentos\MSXgl\engine/src/print.c:1264: *ptr = 0;
    000008DE AF               [ 4] 2113 	xor	a, a
    000008DF 02               [ 7] 2114 	ld	(bc), a
                                   2115 ;C:\Users\reina\OneDrive\Documentos\MSXgl\engine/src/print.c:1265: while(value >= 10)
    000008E0                       2116 00103$:
                                   2117 ;C:\Users\reina\OneDrive\Documentos\MSXgl\engine/src/print.c:1267: *++ptr = '0' + (value % 10);
    000008E0 69               [ 4] 2118 	ld	l, c
                                   2119 ;	spillPairReg hl
                                   2120 ;	spillPairReg hl
    000008E1 60               [ 4] 2121 	ld	h, b
                                   2122 ;	spillPairReg hl
                                   2123 ;	spillPairReg hl
    000008E2 23               [ 6] 2124 	inc	hl
                                   2125 ;C:\Users\reina\OneDrive\Documentos\MSXgl\engine/src/print.c:1265: while(value >= 10)
    000008E3 DD 7E FC         [19] 2126 	ld	a, -4 (ix)
    000008E6 D6 0A            [ 7] 2127 	sub	a, #0x0a
    000008E8 DD 7E FD         [19] 2128 	ld	a, -3 (ix)
    000008EB DE 00            [ 7] 2129 	sbc	a, #0x00
    000008ED DD 7E FE         [19] 2130 	ld	a, -2 (ix)
    000008F0 DE 00            [ 7] 2131 	sbc	a, #0x00
    000008F2 DD 7E FF         [19] 2132 	ld	a, -1 (ix)
    000008F5 17               [ 4] 2133 	rla
    000008F6 3F               [ 4] 2134 	ccf
    000008F7 1F               [ 4] 2135 	rra
    000008F8 DE 80            [ 7] 2136 	sbc	a, #0x80
    000008FA 38 4D            [12] 2137 	jr	C, 00105$
                                   2138 ;C:\Users\reina\OneDrive\Documentos\MSXgl\engine/src/print.c:1267: *++ptr = '0' + (value % 10);
    000008FC 4D               [ 4] 2139 	ld	c, l
    000008FD 44               [ 4] 2140 	ld	b, h
    000008FE E5               [11] 2141 	push	hl
    000008FF C5               [11] 2142 	push	bc
    00000900 11 00 00         [10] 2143 	ld	de, #0x0000
    00000903 D5               [11] 2144 	push	de
    00000904 1E 0A            [ 7] 2145 	ld	e, #0x0a
    00000906 D5               [11] 2146 	push	de
    00000907 DD 5E FC         [19] 2147 	ld	e, -4 (ix)
    0000090A DD 56 FD         [19] 2148 	ld	d, -3 (ix)
    0000090D DD 6E FE         [19] 2149 	ld	l, -2 (ix)
                                   2150 ;	spillPairReg hl
                                   2151 ;	spillPairReg hl
    00000910 DD 66 FF         [19] 2152 	ld	h, -1 (ix)
                                   2153 ;	spillPairReg hl
                                   2154 ;	spillPairReg hl
    00000913 CDr00r00         [17] 2155 	call	__modslong
    00000916 F1               [10] 2156 	pop	af
    00000917 E3               [19] 2157 	ex	(sp),hl
    00000918 FD E1            [14] 2158 	pop	iy
    0000091A C1               [10] 2159 	pop	bc
    0000091B E1               [10] 2160 	pop	hl
    0000091C 7B               [ 4] 2161 	ld	a, e
    0000091D C6 30            [ 7] 2162 	add	a, #0x30
    0000091F 77               [ 7] 2163 	ld	(hl), a
                                   2164 ;C:\Users\reina\OneDrive\Documentos\MSXgl\engine/src/print.c:1268: value /= 10;
    00000920 C5               [11] 2165 	push	bc
    00000921 21 00 00         [10] 2166 	ld	hl, #0x0000
    00000924 E5               [11] 2167 	push	hl
    00000925 2E 0A            [ 7] 2168 	ld	l, #0x0a
    00000927 E5               [11] 2169 	push	hl
    00000928 DD 5E FC         [19] 2170 	ld	e, -4 (ix)
    0000092B DD 56 FD         [19] 2171 	ld	d, -3 (ix)
    0000092E DD 6E FE         [19] 2172 	ld	l, -2 (ix)
                                   2173 ;	spillPairReg hl
                                   2174 ;	spillPairReg hl
    00000931 DD 66 FF         [19] 2175 	ld	h, -1 (ix)
                                   2176 ;	spillPairReg hl
                                   2177 ;	spillPairReg hl
    00000934 CDr00r00         [17] 2178 	call	__divslong
    00000937 F1               [10] 2179 	pop	af
    00000938 F1               [10] 2180 	pop	af
    00000939 C1               [10] 2181 	pop	bc
    0000093A DD 73 FC         [19] 2182 	ld	-4 (ix), e
    0000093D DD 72 FD         [19] 2183 	ld	-3 (ix), d
    00000940 DD 75 FE         [19] 2184 	ld	-2 (ix), l
    00000943 DD 74 FF         [19] 2185 	ld	-1 (ix), h
    00000946 C3rE0r08         [10] 2186 	jp	00103$
    00000949                       2187 00105$:
                                   2188 ;C:\Users\reina\OneDrive\Documentos\MSXgl\engine/src/print.c:1270: *++ptr = '0' + value;
    00000949 DD 7E FC         [19] 2189 	ld	a, -4 (ix)
    0000094C C6 30            [ 7] 2190 	add	a, #0x30
    0000094E 77               [ 7] 2191 	ld	(hl), a
                                   2192 ;C:\Users\reina\OneDrive\Documentos\MSXgl\engine/src/print.c:1271: while(*ptr != 0)
    0000094F                       2193 00106$:
    0000094F 7E               [ 7] 2194 	ld	a, (hl)
    00000950 B7               [ 4] 2195 	or	a, a
    00000951 28 0B            [12] 2196 	jr	Z, 00109$
                                   2197 ;C:\Users\reina\OneDrive\Documentos\MSXgl\engine/src/print.c:1272: Print_DrawChar(*ptr--);	
    00000953 2B               [ 6] 2198 	dec	hl
    00000954 4F               [ 4] 2199 	ld	c, a
    00000955 E5               [11] 2200 	push	hl
    00000956 79               [ 4] 2201 	ld	a, c
    00000957 CDrADr07         [17] 2202 	call	_Print_DrawChar
    0000095A E1               [10] 2203 	pop	hl
    0000095B C3r4Fr09         [10] 2204 	jp	00106$
    0000095E                       2205 00109$:
                                   2206 ;C:\Users\reina\OneDrive\Documentos\MSXgl\engine/src/print.c:1273: }
    0000095E DD F9            [10] 2207 	ld	sp, ix
    00000960 DD E1            [14] 2208 	pop	ix
    00000962 C9               [10] 2209 	ret
                                   2210 ;C:\Users\reina\OneDrive\Documentos\MSXgl\engine/src/print.c:1282: void Print_DrawFormat(const c8* format, ...)
                                   2211 ;	---------------------------------
                                   2212 ; Function Print_DrawFormat
                                   2213 ; ---------------------------------
    00000963                       2214 _Print_DrawFormat::
    00000963 DD E5            [15] 2215 	push	ix
    00000965 DD 21 00 00      [14] 2216 	ld	ix,#0
    00000969 DD 39            [15] 2217 	add	ix,sp
    0000096B 21 EC FF         [10] 2218 	ld	hl, #-20
    0000096E 39               [11] 2219 	add	hl, sp
    0000096F F9               [ 6] 2220 	ld	sp, hl
                                   2221 ;C:\Users\reina\OneDrive\Documentos\MSXgl\engine/src/print.c:1287: va_start(args, format);
    00000970 21 1A 00         [10] 2222 	ld	hl, #26
    00000973 39               [11] 2223 	add	hl, sp
    00000974 DD 75 F8         [19] 2224 	ld	-8 (ix), l
    00000977 DD 74 F9         [19] 2225 	ld	-7 (ix), h
                                   2226 ;C:\Users\reina\OneDrive\Documentos\MSXgl\engine/src/print.c:1289: const c8* ptr = format;
    0000097A DD 7E 04         [19] 2227 	ld	a, 4 (ix)
    0000097D DD 77 FC         [19] 2228 	ld	-4 (ix), a
    00000980 DD 7E 05         [19] 2229 	ld	a, 5 (ix)
    00000983 DD 77 FD         [19] 2230 	ld	-3 (ix), a
                                   2231 ;C:\Users\reina\OneDrive\Documentos\MSXgl\engine/src/print.c:1290: while(*ptr != 0)
    00000986                       2232 00191$:
    00000986 DD 6E FC         [19] 2233 	ld	l, -4 (ix)
    00000989 DD 66 FD         [19] 2234 	ld	h, -3 (ix)
    0000098C 7E               [ 7] 2235 	ld	a, (hl)
    0000098D DD 77 FF         [19] 2236 	ld	-1 (ix), a
    00000990 B7               [ 4] 2237 	or	a, a
    00000991 CArE0r0F         [10] 2238 	jp	Z, 00196$
                                   2239 ;C:\Users\reina\OneDrive\Documentos\MSXgl\engine/src/print.c:1292: if(*ptr == '%')
    00000994 DD 7E FF         [19] 2240 	ld	a, -1 (ix)
    00000997 D6 25            [ 7] 2241 	sub	a, #0x25
    00000999 C2r9Dr0F         [10] 2242 	jp	NZ,00189$
                                   2243 ;C:\Users\reina\OneDrive\Documentos\MSXgl\engine/src/print.c:1294: ptr++;
    0000099C DD 4E FC         [19] 2244 	ld	c, -4 (ix)
    0000099F DD 46 FD         [19] 2245 	ld	b, -3 (ix)
    000009A2 03               [ 6] 2246 	inc	bc
                                   2247 ;C:\Users\reina\OneDrive\Documentos\MSXgl\engine/src/print.c:1297: u8 len = 0;
    000009A3 DD 36 FF 00      [19] 2248 	ld	-1 (ix), #0x00
                                   2249 ;C:\Users\reina\OneDrive\Documentos\MSXgl\engine/src/print.c:1298: if((*ptr >= '0') && (*ptr <= '9'))
    000009A7 0A               [ 7] 2250 	ld	a, (bc)
    000009A8 5F               [ 4] 2251 	ld	e, a
    000009A9 D6 30            [ 7] 2252 	sub	a, #0x30
    000009AB 38 0C            [12] 2253 	jr	C, 00204$
    000009AD 3E 39            [ 7] 2254 	ld	a, #0x39
    000009AF 93               [ 4] 2255 	sub	a, e
    000009B0 38 07            [12] 2256 	jr	C, 00204$
                                   2257 ;C:\Users\reina\OneDrive\Documentos\MSXgl\engine/src/print.c:1300: len = *ptr - '0';
    000009B2 7B               [ 4] 2258 	ld	a, e
    000009B3 C6 D0            [ 7] 2259 	add	a, #0xd0
    000009B5 DD 77 FF         [19] 2260 	ld	-1 (ix), a
                                   2261 ;C:\Users\reina\OneDrive\Documentos\MSXgl\engine/src/print.c:1301: ptr++;
    000009B8 03               [ 6] 2262 	inc	bc
                                   2263 ;C:\Users\reina\OneDrive\Documentos\MSXgl\engine/src/print.c:1303: while((*ptr >= '0') && (*ptr <= '9'))
    000009B9                       2264 00204$:
    000009B9 DD 71 F6         [19] 2265 	ld	-10 (ix), c
    000009BC DD 70 F7         [19] 2266 	ld	-9 (ix), b
    000009BF                       2267 00105$:
    000009BF DD 6E F6         [19] 2268 	ld	l, -10 (ix)
    000009C2 DD 66 F7         [19] 2269 	ld	h, -9 (ix)
    000009C5 7E               [ 7] 2270 	ld	a, (hl)
    000009C6 DD 77 FE         [19] 2271 	ld	-2 (ix), a
    000009C9 D6 30            [ 7] 2272 	sub	a, #0x30
    000009CB 38 23            [12] 2273 	jr	C, 00239$
    000009CD 3E 39            [ 7] 2274 	ld	a, #0x39
    000009CF DD 96 FE         [19] 2275 	sub	a, -2 (ix)
    000009D2 38 1C            [12] 2276 	jr	C, 00239$
                                   2277 ;C:\Users\reina\OneDrive\Documentos\MSXgl\engine/src/print.c:1305: len *= 10;
    000009D4 DD 6E FF         [19] 2278 	ld	l, -1 (ix)
                                   2279 ;	spillPairReg hl
                                   2280 ;	spillPairReg hl
    000009D7 4D               [ 4] 2281 	ld	c, l
    000009D8 29               [11] 2282 	add	hl, hl
    000009D9 29               [11] 2283 	add	hl, hl
    000009DA 09               [11] 2284 	add	hl, bc
    000009DB 29               [11] 2285 	add	hl, hl
                                   2286 ;C:\Users\reina\OneDrive\Documentos\MSXgl\engine/src/print.c:1306: len += *ptr - '0';
    000009DC DD 7E FE         [19] 2287 	ld	a, -2 (ix)
    000009DF C6 D0            [ 7] 2288 	add	a, #0xd0
    000009E1 85               [ 4] 2289 	add	a, l
    000009E2 DD 77 FF         [19] 2290 	ld	-1 (ix), a
                                   2291 ;C:\Users\reina\OneDrive\Documentos\MSXgl\engine/src/print.c:1307: ptr++;
    000009E5 DD 34 F6         [23] 2292 	inc	-10 (ix)
    000009E8 20 D5            [12] 2293 	jr	NZ, 00105$
    000009EA DD 34 F7         [23] 2294 	inc	-9 (ix)
    000009ED C3rBFr09         [10] 2295 	jp	00105$
    000009F0                       2296 00239$:
    000009F0 DD 7E F6         [19] 2297 	ld	a, -10 (ix)
    000009F3 DD 77 FC         [19] 2298 	ld	-4 (ix), a
    000009F6 DD 7E F7         [19] 2299 	ld	a, -9 (ix)
    000009F9 DD 77 FD         [19] 2300 	ld	-3 (ix), a
                                   2301 ;C:\Users\reina\OneDrive\Documentos\MSXgl\engine/src/print.c:1311: if((*ptr == 'i') || (*ptr == 'd'))
    000009FC DD 7E FE         [19] 2302 	ld	a, -2 (ix)
    000009FF D6 69            [ 7] 2303 	sub	a, #0x69
    00000A01 28 07            [12] 2304 	jr	Z, 00178$
    00000A03 DD 7E FE         [19] 2305 	ld	a, -2 (ix)
    00000A06 D6 64            [ 7] 2306 	sub	a, #0x64
    00000A08 20 61            [12] 2307 	jr	NZ, 00179$
    00000A0A                       2308 00178$:
                                   2309 ;C:\Users\reina\OneDrive\Documentos\MSXgl\engine/src/print.c:1313: i16 val = (i16)va_arg(args, i16);
    00000A0A DD 7E F8         [19] 2310 	ld	a, -8 (ix)
    00000A0D C6 02            [ 7] 2311 	add	a, #0x02
    00000A0F DD 77 FA         [19] 2312 	ld	-6 (ix), a
    00000A12 DD 7E F9         [19] 2313 	ld	a, -7 (ix)
    00000A15 CE 00            [ 7] 2314 	adc	a, #0x00
    00000A17 DD 77 FB         [19] 2315 	ld	-5 (ix), a
    00000A1A DD 7E FA         [19] 2316 	ld	a, -6 (ix)
    00000A1D DD 77 F8         [19] 2317 	ld	-8 (ix), a
    00000A20 DD 7E FB         [19] 2318 	ld	a, -5 (ix)
    00000A23 DD 77 F9         [19] 2319 	ld	-7 (ix), a
    00000A26 DD 7E FA         [19] 2320 	ld	a, -6 (ix)
    00000A29 C6 FE            [ 7] 2321 	add	a, #0xfe
    00000A2B DD 77 FE         [19] 2322 	ld	-2 (ix), a
    00000A2E DD 7E FB         [19] 2323 	ld	a, -5 (ix)
    00000A31 CE FF            [ 7] 2324 	adc	a, #0xff
    00000A33 DD 77 FF         [19] 2325 	ld	-1 (ix), a
    00000A36 DD 6E FE         [19] 2326 	ld	l, -2 (ix)
    00000A39 DD 66 FF         [19] 2327 	ld	h, -1 (ix)
    00000A3C 7E               [ 7] 2328 	ld	a, (hl)
    00000A3D DD 77 FE         [19] 2329 	ld	-2 (ix), a
    00000A40 23               [ 6] 2330 	inc	hl
    00000A41 7E               [ 7] 2331 	ld	a, (hl)
    00000A42 DD 77 FF         [19] 2332 	ld	-1 (ix), a
                                   2333 ;C:\Users\reina\OneDrive\Documentos\MSXgl\engine/src/print.c:1314: Print_DrawInt(val);
    00000A45 DD 7E FE         [19] 2334 	ld	a, -2 (ix)
    00000A48 DD 77 F4         [19] 2335 	ld	-12 (ix), a
    00000A4B DD 7E FF         [19] 2336 	ld	a, -1 (ix)
    00000A4E DD 77 F5         [19] 2337 	ld	-11 (ix), a
    00000A51 07               [ 4] 2338 	rlca
    00000A52 9F               [ 4] 2339 	sbc	a, a
    00000A53 DD 77 F6         [19] 2340 	ld	-10 (ix), a
    00000A56 DD 77 F7         [19] 2341 	ld	-9 (ix), a
    00000A59 DD 5E F4         [19] 2342 	ld	e, -12 (ix)
    00000A5C DD 56 F5         [19] 2343 	ld	d, -11 (ix)
    00000A5F DD 6E F6         [19] 2344 	ld	l, -10 (ix)
                                   2345 ;	spillPairReg hl
                                   2346 ;	spillPairReg hl
    00000A62 DD 66 F7         [19] 2347 	ld	h, -9 (ix)
                                   2348 ;	spillPairReg hl
                                   2349 ;	spillPairReg hl
    00000A65 CDr93r08         [17] 2350 	call	_Print_DrawInt
    00000A68 C3rD4r0F         [10] 2351 	jp	00190$
    00000A6B                       2352 00179$:
                                   2353 ;C:\Users\reina\OneDrive\Documentos\MSXgl\engine/src/print.c:1316: else if(*ptr == 'u')
    00000A6B DD 7E FE         [19] 2354 	ld	a, -2 (ix)
    00000A6E D6 75            [ 7] 2355 	sub	a, #0x75
    00000A70 20 60            [12] 2356 	jr	NZ, 00176$
                                   2357 ;C:\Users\reina\OneDrive\Documentos\MSXgl\engine/src/print.c:1318: u16 val = (u16)va_arg(args, u16);
    00000A72 DD 7E F8         [19] 2358 	ld	a, -8 (ix)
    00000A75 C6 02            [ 7] 2359 	add	a, #0x02
    00000A77 DD 77 FA         [19] 2360 	ld	-6 (ix), a
    00000A7A DD 7E F9         [19] 2361 	ld	a, -7 (ix)
    00000A7D CE 00            [ 7] 2362 	adc	a, #0x00
    00000A7F DD 77 FB         [19] 2363 	ld	-5 (ix), a
    00000A82 DD 7E FA         [19] 2364 	ld	a, -6 (ix)
    00000A85 DD 77 F8         [19] 2365 	ld	-8 (ix), a
    00000A88 DD 7E FB         [19] 2366 	ld	a, -5 (ix)
    00000A8B DD 77 F9         [19] 2367 	ld	-7 (ix), a
    00000A8E DD 7E FA         [19] 2368 	ld	a, -6 (ix)
    00000A91 C6 FE            [ 7] 2369 	add	a, #0xfe
    00000A93 DD 77 FE         [19] 2370 	ld	-2 (ix), a
    00000A96 DD 7E FB         [19] 2371 	ld	a, -5 (ix)
    00000A99 CE FF            [ 7] 2372 	adc	a, #0xff
    00000A9B DD 77 FF         [19] 2373 	ld	-1 (ix), a
    00000A9E DD 6E FE         [19] 2374 	ld	l, -2 (ix)
    00000AA1 DD 66 FF         [19] 2375 	ld	h, -1 (ix)
    00000AA4 7E               [ 7] 2376 	ld	a, (hl)
    00000AA5 DD 77 FE         [19] 2377 	ld	-2 (ix), a
    00000AA8 23               [ 6] 2378 	inc	hl
    00000AA9 7E               [ 7] 2379 	ld	a, (hl)
    00000AAA DD 77 FF         [19] 2380 	ld	-1 (ix), a
                                   2381 ;C:\Users\reina\OneDrive\Documentos\MSXgl\engine/src/print.c:1319: Print_DrawInt(val);
    00000AAD DD 7E FE         [19] 2382 	ld	a, -2 (ix)
    00000AB0 DD 77 F4         [19] 2383 	ld	-12 (ix), a
    00000AB3 DD 7E FF         [19] 2384 	ld	a, -1 (ix)
    00000AB6 DD 77 F5         [19] 2385 	ld	-11 (ix), a
    00000AB9 AF               [ 4] 2386 	xor	a, a
    00000ABA DD 77 F6         [19] 2387 	ld	-10 (ix), a
    00000ABD DD 77 F7         [19] 2388 	ld	-9 (ix), a
    00000AC0 DD 5E F4         [19] 2389 	ld	e, -12 (ix)
    00000AC3 DD 56 F5         [19] 2390 	ld	d, -11 (ix)
    00000AC6 DD 6E F6         [19] 2391 	ld	l, -10 (ix)
                                   2392 ;	spillPairReg hl
                                   2393 ;	spillPairReg hl
    00000AC9 DD 66 F7         [19] 2394 	ld	h, -9 (ix)
                                   2395 ;	spillPairReg hl
                                   2396 ;	spillPairReg hl
    00000ACC CDr93r08         [17] 2397 	call	_Print_DrawInt
    00000ACF C3rD4r0F         [10] 2398 	jp	00190$
    00000AD2                       2399 00176$:
                                   2400 ;C:\Users\reina\OneDrive\Documentos\MSXgl\engine/src/print.c:1321: else if(*ptr == 'x')
    00000AD2 DD 7E FE         [19] 2401 	ld	a, -2 (ix)
    00000AD5 D6 78            [ 7] 2402 	sub	a, #0x78
    00000AD7 C2r24r0C         [10] 2403 	jp	NZ,00173$
                                   2404 ;C:\Users\reina\OneDrive\Documentos\MSXgl\engine/src/print.c:1323: if(len == 0)
    00000ADA DD 7E FF         [19] 2405 	ld	a, -1 (ix)
    00000ADD B7               [ 4] 2406 	or	a, a
    00000ADE 20 04            [12] 2407 	jr	NZ, 00109$
                                   2408 ;C:\Users\reina\OneDrive\Documentos\MSXgl\engine/src/print.c:1324: len = 4;
    00000AE0 DD 36 FF 04      [19] 2409 	ld	-1 (ix), #0x04
    00000AE4                       2410 00109$:
                                   2411 ;C:\Users\reina\OneDrive\Documentos\MSXgl\engine/src/print.c:1325: u16 val = (u16)va_arg(args, u16);
    00000AE4 DD 7E F8         [19] 2412 	ld	a, -8 (ix)
    00000AE7 C6 02            [ 7] 2413 	add	a, #0x02
    00000AE9 DD 77 F6         [19] 2414 	ld	-10 (ix), a
    00000AEC DD 7E F9         [19] 2415 	ld	a, -7 (ix)
    00000AEF CE 00            [ 7] 2416 	adc	a, #0x00
    00000AF1 DD 77 F7         [19] 2417 	ld	-9 (ix), a
    00000AF4 DD 7E F6         [19] 2418 	ld	a, -10 (ix)
    00000AF7 DD 77 F8         [19] 2419 	ld	-8 (ix), a
    00000AFA DD 7E F7         [19] 2420 	ld	a, -9 (ix)
    00000AFD DD 77 F9         [19] 2421 	ld	-7 (ix), a
    00000B00 DD 7E F6         [19] 2422 	ld	a, -10 (ix)
    00000B03 C6 FE            [ 7] 2423 	add	a, #0xfe
    00000B05 DD 77 FA         [19] 2424 	ld	-6 (ix), a
    00000B08 DD 7E F7         [19] 2425 	ld	a, -9 (ix)
    00000B0B CE FF            [ 7] 2426 	adc	a, #0xff
    00000B0D DD 77 FB         [19] 2427 	ld	-5 (ix), a
    00000B10 DD 6E FA         [19] 2428 	ld	l, -6 (ix)
    00000B13 DD 66 FB         [19] 2429 	ld	h, -5 (ix)
    00000B16 7E               [ 7] 2430 	ld	a, (hl)
    00000B17 DD 77 F4         [19] 2431 	ld	-12 (ix), a
    00000B1A 23               [ 6] 2432 	inc	hl
    00000B1B 7E               [ 7] 2433 	ld	a, (hl)
    00000B1C DD 77 F5         [19] 2434 	ld	-11 (ix), a
                                   2435 ;C:\Users\reina\OneDrive\Documentos\MSXgl\engine/src/print.c:1326: if(len > 3)
    00000B1F 3E 03            [ 7] 2436 	ld	a, #0x03
    00000B21 DD 96 FF         [19] 2437 	sub	a, -1 (ix)
    00000B24 30 36            [12] 2438 	jr	NC, 00111$
                                   2439 ;C:\Users\reina\OneDrive\Documentos\MSXgl\engine/src/print.c:1327: Print_DrawChar(g_HexChar[(val >> 12) & 0x000F]);
    00000B26 DD 7E F5         [19] 2440 	ld	a, -11 (ix)
    00000B29 07               [ 4] 2441 	rlca
    00000B2A 07               [ 4] 2442 	rlca
    00000B2B 07               [ 4] 2443 	rlca
    00000B2C 07               [ 4] 2444 	rlca
    00000B2D E6 0F            [ 7] 2445 	and	a, #0x0f
    00000B2F DD 77 FA         [19] 2446 	ld	-6 (ix), a
    00000B32 DD 36 FB 00      [19] 2447 	ld	-5 (ix), #0x00
    00000B36 DD 7E FA         [19] 2448 	ld	a, -6 (ix)
    00000B39 E6 0F            [ 7] 2449 	and	a, #0x0f
    00000B3B DD 77 F6         [19] 2450 	ld	-10 (ix), a
    00000B3E DD 36 F7 00      [19] 2451 	ld	-9 (ix), #0x00
    00000B42 3Er55            [ 7] 2452 	ld	a, #<(_g_HexChar)
    00000B44 DD 86 F6         [19] 2453 	add	a, -10 (ix)
    00000B47 DD 77 FA         [19] 2454 	ld	-6 (ix), a
    00000B4A 3Es00            [ 7] 2455 	ld	a, #>(_g_HexChar)
    00000B4C DD 8E F7         [19] 2456 	adc	a, -9 (ix)
    00000B4F DD 77 FB         [19] 2457 	ld	-5 (ix), a
    00000B52 DD 6E FA         [19] 2458 	ld	l, -6 (ix)
    00000B55 DD 66 FB         [19] 2459 	ld	h, -5 (ix)
    00000B58 7E               [ 7] 2460 	ld	a, (hl)
    00000B59 CDrADr07         [17] 2461 	call	_Print_DrawChar
    00000B5C                       2462 00111$:
                                   2463 ;C:\Users\reina\OneDrive\Documentos\MSXgl\engine/src/print.c:1328: if(len > 2)
    00000B5C 3E 02            [ 7] 2464 	ld	a, #0x02
    00000B5E DD 96 FF         [19] 2465 	sub	a, -1 (ix)
    00000B61 30 33            [12] 2466 	jr	NC, 00113$
                                   2467 ;C:\Users\reina\OneDrive\Documentos\MSXgl\engine/src/print.c:1329: Print_DrawChar(g_HexChar[(val >> 8) & 0x000F]);
    00000B63 DD 7E F5         [19] 2468 	ld	a, -11 (ix)
    00000B66 DD 77 FE         [19] 2469 	ld	-2 (ix), a
    00000B69 DD 77 FA         [19] 2470 	ld	-6 (ix), a
    00000B6C DD 36 FB 00      [19] 2471 	ld	-5 (ix), #0x00
    00000B70 DD 7E FA         [19] 2472 	ld	a, -6 (ix)
    00000B73 E6 0F            [ 7] 2473 	and	a, #0x0f
    00000B75 DD 77 F6         [19] 2474 	ld	-10 (ix), a
    00000B78 DD 36 F7 00      [19] 2475 	ld	-9 (ix), #0x00
    00000B7C 3Er55            [ 7] 2476 	ld	a, #<(_g_HexChar)
    00000B7E DD 86 F6         [19] 2477 	add	a, -10 (ix)
    00000B81 DD 77 FA         [19] 2478 	ld	-6 (ix), a
    00000B84 3Es00            [ 7] 2479 	ld	a, #>(_g_HexChar)
    00000B86 DD 8E F7         [19] 2480 	adc	a, -9 (ix)
    00000B89 DD 77 FB         [19] 2481 	ld	-5 (ix), a
    00000B8C DD 6E FA         [19] 2482 	ld	l, -6 (ix)
    00000B8F DD 66 FB         [19] 2483 	ld	h, -5 (ix)
    00000B92 7E               [ 7] 2484 	ld	a, (hl)
    00000B93 CDrADr07         [17] 2485 	call	_Print_DrawChar
    00000B96                       2486 00113$:
                                   2487 ;C:\Users\reina\OneDrive\Documentos\MSXgl\engine/src/print.c:1330: if(len > 1)
    00000B96 3E 01            [ 7] 2488 	ld	a, #0x01
    00000B98 DD 96 FF         [19] 2489 	sub	a, -1 (ix)
    00000B9B 30 52            [12] 2490 	jr	NC, 00115$
                                   2491 ;C:\Users\reina\OneDrive\Documentos\MSXgl\engine/src/print.c:1331: Print_DrawChar(g_HexChar[(val >> 4) & 0x000F]);
    00000B9D DD 7E F4         [19] 2492 	ld	a, -12 (ix)
    00000BA0 DD 77 FE         [19] 2493 	ld	-2 (ix), a
    00000BA3 DD 7E F5         [19] 2494 	ld	a, -11 (ix)
    00000BA6 DD 77 FF         [19] 2495 	ld	-1 (ix), a
    00000BA9 DD CB FF 3E      [23] 2496 	srl	-1 (ix)
    00000BAD DD CB FE 1E      [23] 2497 	rr	-2 (ix)
    00000BB1 DD CB FF 3E      [23] 2498 	srl	-1 (ix)
    00000BB5 DD CB FE 1E      [23] 2499 	rr	-2 (ix)
    00000BB9 DD CB FF 3E      [23] 2500 	srl	-1 (ix)
    00000BBD DD CB FE 1E      [23] 2501 	rr	-2 (ix)
    00000BC1 DD CB FF 3E      [23] 2502 	srl	-1 (ix)
    00000BC5 DD CB FE 1E      [23] 2503 	rr	-2 (ix)
    00000BC9 DD 7E FE         [19] 2504 	ld	a, -2 (ix)
    00000BCC E6 0F            [ 7] 2505 	and	a, #0x0f
    00000BCE DD 77 FA         [19] 2506 	ld	-6 (ix), a
    00000BD1 DD 36 FB 00      [19] 2507 	ld	-5 (ix), #0x00
    00000BD5 3Er55            [ 7] 2508 	ld	a, #<(_g_HexChar)
    00000BD7 DD 86 FA         [19] 2509 	add	a, -6 (ix)
    00000BDA DD 77 FE         [19] 2510 	ld	-2 (ix), a
    00000BDD 3Es00            [ 7] 2511 	ld	a, #>(_g_HexChar)
    00000BDF DD 8E FB         [19] 2512 	adc	a, -5 (ix)
    00000BE2 DD 77 FF         [19] 2513 	ld	-1 (ix), a
    00000BE5 DD 6E FE         [19] 2514 	ld	l, -2 (ix)
    00000BE8 DD 66 FF         [19] 2515 	ld	h, -1 (ix)
    00000BEB 7E               [ 7] 2516 	ld	a, (hl)
    00000BEC CDrADr07         [17] 2517 	call	_Print_DrawChar
    00000BEF                       2518 00115$:
                                   2519 ;C:\Users\reina\OneDrive\Documentos\MSXgl\engine/src/print.c:1332: Print_DrawChar(g_HexChar[val & 0x000F]);
    00000BEF DD 7E F4         [19] 2520 	ld	a, -12 (ix)
    00000BF2 DD 77 FE         [19] 2521 	ld	-2 (ix), a
    00000BF5 DD 7E F5         [19] 2522 	ld	a, -11 (ix)
    00000BF8 DD 77 FF         [19] 2523 	ld	-1 (ix), a
    00000BFB DD 7E FE         [19] 2524 	ld	a, -2 (ix)
    00000BFE E6 0F            [ 7] 2525 	and	a, #0x0f
    00000C00 DD 77 FA         [19] 2526 	ld	-6 (ix), a
    00000C03 DD 36 FB 00      [19] 2527 	ld	-5 (ix), #0x00
    00000C07 3Er55            [ 7] 2528 	ld	a, #<(_g_HexChar)
    00000C09 DD 86 FA         [19] 2529 	add	a, -6 (ix)
    00000C0C DD 77 FE         [19] 2530 	ld	-2 (ix), a
    00000C0F 3Es00            [ 7] 2531 	ld	a, #>(_g_HexChar)
    00000C11 DD 8E FB         [19] 2532 	adc	a, -5 (ix)
    00000C14 DD 77 FF         [19] 2533 	ld	-1 (ix), a
    00000C17 DD 6E FE         [19] 2534 	ld	l, -2 (ix)
    00000C1A DD 66 FF         [19] 2535 	ld	h, -1 (ix)
    00000C1D 7E               [ 7] 2536 	ld	a, (hl)
    00000C1E CDrADr07         [17] 2537 	call	_Print_DrawChar
    00000C21 C3rD4r0F         [10] 2538 	jp	00190$
    00000C24                       2539 00173$:
                                   2540 ;C:\Users\reina\OneDrive\Documentos\MSXgl\engine/src/print.c:1334: else if(*ptr == 'b')
    00000C24 DD 7E FE         [19] 2541 	ld	a, -2 (ix)
    00000C27 D6 62            [ 7] 2542 	sub	a, #0x62
    00000C29 C2rC5r0C         [10] 2543 	jp	NZ,00170$
                                   2544 ;C:\Users\reina\OneDrive\Documentos\MSXgl\engine/src/print.c:1336: if(len == 0)
    00000C2C DD 7E FF         [19] 2545 	ld	a, -1 (ix)
    00000C2F B7               [ 4] 2546 	or	a, a
    00000C30 20 04            [12] 2547 	jr	NZ, 00117$
                                   2548 ;C:\Users\reina\OneDrive\Documentos\MSXgl\engine/src/print.c:1337: len = 16;
    00000C32 DD 36 FF 10      [19] 2549 	ld	-1 (ix), #0x10
    00000C36                       2550 00117$:
                                   2551 ;C:\Users\reina\OneDrive\Documentos\MSXgl\engine/src/print.c:1338: u16 val = (u16)va_arg(args, u16);
    00000C36 DD 7E F8         [19] 2552 	ld	a, -8 (ix)
    00000C39 C6 02            [ 7] 2553 	add	a, #0x02
    00000C3B DD 77 F6         [19] 2554 	ld	-10 (ix), a
    00000C3E DD 7E F9         [19] 2555 	ld	a, -7 (ix)
    00000C41 CE 00            [ 7] 2556 	adc	a, #0x00
    00000C43 DD 77 F7         [19] 2557 	ld	-9 (ix), a
    00000C46 DD 7E F6         [19] 2558 	ld	a, -10 (ix)
    00000C49 DD 77 F8         [19] 2559 	ld	-8 (ix), a
    00000C4C DD 7E F7         [19] 2560 	ld	a, -9 (ix)
    00000C4F DD 77 F9         [19] 2561 	ld	-7 (ix), a
    00000C52 DD 7E F6         [19] 2562 	ld	a, -10 (ix)
    00000C55 C6 FE            [ 7] 2563 	add	a, #0xfe
    00000C57 DD 77 FA         [19] 2564 	ld	-6 (ix), a
    00000C5A DD 7E F7         [19] 2565 	ld	a, -9 (ix)
    00000C5D CE FF            [ 7] 2566 	adc	a, #0xff
    00000C5F DD 77 FB         [19] 2567 	ld	-5 (ix), a
    00000C62 DD 6E FA         [19] 2568 	ld	l, -6 (ix)
    00000C65 DD 66 FB         [19] 2569 	ld	h, -5 (ix)
    00000C68 7E               [ 7] 2570 	ld	a, (hl)
    00000C69 DD 77 FA         [19] 2571 	ld	-6 (ix), a
    00000C6C 23               [ 6] 2572 	inc	hl
    00000C6D 7E               [ 7] 2573 	ld	a, (hl)
    00000C6E DD 77 FB         [19] 2574 	ld	-5 (ix), a
                                   2575 ;C:\Users\reina\OneDrive\Documentos\MSXgl\engine/src/print.c:1339: u16 bit = 1 << (len - 1);
    00000C71 DD 35 FF         [23] 2576 	dec	-1 (ix)
    00000C74 DD 46 FF         [19] 2577 	ld	b, -1 (ix)
    00000C77 DD 36 FE 01      [19] 2578 	ld	-2 (ix), #0x01
    00000C7B DD 36 FF 00      [19] 2579 	ld	-1 (ix), #0
    00000C7F 04               [ 4] 2580 	inc	b
    00000C80 C3r8Br0C         [10] 2581 	jp	00417$
    00000C83                       2582 00416$:
    00000C83 DD CB FE 26      [23] 2583 	sla	-2 (ix)
    00000C87 DD CB FF 16      [23] 2584 	rl	-1 (ix)
    00000C8B                       2585 00417$:
    00000C8B 10 F6            [13] 2586 	djnz	00416$
                                   2587 ;C:\Users\reina\OneDrive\Documentos\MSXgl\engine/src/print.c:1340: while(bit)
    00000C8D                       2588 00121$:
    00000C8D DD 7E FF         [19] 2589 	ld	a, -1 (ix)
    00000C90 DD B6 FE         [19] 2590 	or	a, -2 (ix)
    00000C93 CArD4r0F         [10] 2591 	jp	Z, 00190$
                                   2592 ;C:\Users\reina\OneDrive\Documentos\MSXgl\engine/src/print.c:1342: if(val & bit)
    00000C96 DD 7E FA         [19] 2593 	ld	a, -6 (ix)
    00000C99 DD A6 FE         [19] 2594 	and	a, -2 (ix)
    00000C9C DD 77 F6         [19] 2595 	ld	-10 (ix), a
    00000C9F DD 7E FB         [19] 2596 	ld	a, -5 (ix)
    00000CA2 DD A6 FF         [19] 2597 	and	a, -1 (ix)
    00000CA5 DD 77 F7         [19] 2598 	ld	-9 (ix), a
    00000CA8 DD B6 F6         [19] 2599 	or	a, -10 (ix)
    00000CAB 28 08            [12] 2600 	jr	Z, 00119$
                                   2601 ;C:\Users\reina\OneDrive\Documentos\MSXgl\engine/src/print.c:1343: Print_DrawChar('1');
    00000CAD 3E 31            [ 7] 2602 	ld	a, #0x31
    00000CAF CDrADr07         [17] 2603 	call	_Print_DrawChar
    00000CB2 C3rBAr0C         [10] 2604 	jp	00120$
    00000CB5                       2605 00119$:
                                   2606 ;C:\Users\reina\OneDrive\Documentos\MSXgl\engine/src/print.c:1345: Print_DrawChar('0');
    00000CB5 3E 30            [ 7] 2607 	ld	a, #0x30
    00000CB7 CDrADr07         [17] 2608 	call	_Print_DrawChar
    00000CBA                       2609 00120$:
                                   2610 ;C:\Users\reina\OneDrive\Documentos\MSXgl\engine/src/print.c:1346: bit >>= 1;
    00000CBA DD CB FF 3E      [23] 2611 	srl	-1 (ix)
    00000CBE DD CB FE 1E      [23] 2612 	rr	-2 (ix)
    00000CC2 C3r8Dr0C         [10] 2613 	jp	00121$
    00000CC5                       2614 00170$:
                                   2615 ;C:\Users\reina\OneDrive\Documentos\MSXgl\engine/src/print.c:1350: else if((*ptr == 'I') || (*ptr == 'D'))
    00000CC5 DD 7E FE         [19] 2616 	ld	a, -2 (ix)
    00000CC8 D6 49            [ 7] 2617 	sub	a, #0x49
    00000CCA 28 07            [12] 2618 	jr	Z, 00165$
    00000CCC DD 7E FE         [19] 2619 	ld	a, -2 (ix)
    00000CCF D6 44            [ 7] 2620 	sub	a, #0x44
    00000CD1 20 26            [12] 2621 	jr	NZ, 00166$
    00000CD3                       2622 00165$:
                                   2623 ;C:\Users\reina\OneDrive\Documentos\MSXgl\engine/src/print.c:1352: i32 val = (i32)va_arg(args, i32);
    00000CD3 DD 6E F8         [19] 2624 	ld	l, -8 (ix)
    00000CD6 DD 66 F9         [19] 2625 	ld	h, -7 (ix)
    00000CD9 11 04 00         [10] 2626 	ld	de, #0x0004
    00000CDC 19               [11] 2627 	add	hl, de
    00000CDD DD 75 F8         [19] 2628 	ld	-8 (ix), l
    00000CE0 DD 74 F9         [19] 2629 	ld	-7 (ix), h
    00000CE3 7D               [ 4] 2630 	ld	a, l
    00000CE4 C6 FC            [ 7] 2631 	add	a, #0xfc
    00000CE6 6F               [ 4] 2632 	ld	l, a
                                   2633 ;	spillPairReg hl
                                   2634 ;	spillPairReg hl
    00000CE7 7C               [ 4] 2635 	ld	a, h
    00000CE8 CE FF            [ 7] 2636 	adc	a, #0xff
    00000CEA 67               [ 4] 2637 	ld	h, a
                                   2638 ;	spillPairReg hl
                                   2639 ;	spillPairReg hl
    00000CEB 5E               [ 7] 2640 	ld	e, (hl)
    00000CEC 23               [ 6] 2641 	inc	hl
    00000CED 56               [ 7] 2642 	ld	d, (hl)
    00000CEE 23               [ 6] 2643 	inc	hl
    00000CEF 4E               [ 7] 2644 	ld	c, (hl)
    00000CF0 23               [ 6] 2645 	inc	hl
    00000CF1 66               [ 7] 2646 	ld	h, (hl)
                                   2647 ;	spillPairReg hl
                                   2648 ;C:\Users\reina\OneDrive\Documentos\MSXgl\engine/src/print.c:1353: Print_DrawInt(val);
    00000CF2 69               [ 4] 2649 	ld	l, c
                                   2650 ;	spillPairReg hl
                                   2651 ;	spillPairReg hl
    00000CF3 CDr93r08         [17] 2652 	call	_Print_DrawInt
    00000CF6 C3rD4r0F         [10] 2653 	jp	00190$
    00000CF9                       2654 00166$:
                                   2655 ;C:\Users\reina\OneDrive\Documentos\MSXgl\engine/src/print.c:1355: else if(*ptr == 'U')
    00000CF9 DD 7E FE         [19] 2656 	ld	a, -2 (ix)
    00000CFC D6 55            [ 7] 2657 	sub	a, #0x55
    00000CFE 20 26            [12] 2658 	jr	NZ, 00163$
                                   2659 ;C:\Users\reina\OneDrive\Documentos\MSXgl\engine/src/print.c:1357: u32 val = (u32)va_arg(args, u32);
    00000D00 DD 6E F8         [19] 2660 	ld	l, -8 (ix)
    00000D03 DD 66 F9         [19] 2661 	ld	h, -7 (ix)
    00000D06 11 04 00         [10] 2662 	ld	de, #0x0004
    00000D09 19               [11] 2663 	add	hl, de
    00000D0A DD 75 F8         [19] 2664 	ld	-8 (ix), l
    00000D0D DD 74 F9         [19] 2665 	ld	-7 (ix), h
    00000D10 7D               [ 4] 2666 	ld	a, l
    00000D11 C6 FC            [ 7] 2667 	add	a, #0xfc
    00000D13 6F               [ 4] 2668 	ld	l, a
                                   2669 ;	spillPairReg hl
                                   2670 ;	spillPairReg hl
    00000D14 7C               [ 4] 2671 	ld	a, h
    00000D15 CE FF            [ 7] 2672 	adc	a, #0xff
    00000D17 67               [ 4] 2673 	ld	h, a
                                   2674 ;	spillPairReg hl
                                   2675 ;	spillPairReg hl
    00000D18 5E               [ 7] 2676 	ld	e, (hl)
    00000D19 23               [ 6] 2677 	inc	hl
    00000D1A 56               [ 7] 2678 	ld	d, (hl)
    00000D1B 23               [ 6] 2679 	inc	hl
    00000D1C 4E               [ 7] 2680 	ld	c, (hl)
    00000D1D 23               [ 6] 2681 	inc	hl
    00000D1E 66               [ 7] 2682 	ld	h, (hl)
                                   2683 ;	spillPairReg hl
                                   2684 ;C:\Users\reina\OneDrive\Documentos\MSXgl\engine/src/print.c:1358: Print_DrawInt(val);
    00000D1F 69               [ 4] 2685 	ld	l, c
                                   2686 ;	spillPairReg hl
                                   2687 ;	spillPairReg hl
    00000D20 CDr93r08         [17] 2688 	call	_Print_DrawInt
    00000D23 C3rD4r0F         [10] 2689 	jp	00190$
    00000D26                       2690 00163$:
                                   2691 ;C:\Users\reina\OneDrive\Documentos\MSXgl\engine/src/print.c:1360: else if(*ptr == 'X')
    00000D26 DD 7E FE         [19] 2692 	ld	a, -2 (ix)
    00000D29 D6 58            [ 7] 2693 	sub	a, #0x58
    00000D2B C2rA3r0E         [10] 2694 	jp	NZ,00160$
                                   2695 ;C:\Users\reina\OneDrive\Documentos\MSXgl\engine/src/print.c:1362: if(len == 0)
    00000D2E DD 7E FF         [19] 2696 	ld	a, -1 (ix)
    00000D31 B7               [ 4] 2697 	or	a, a
    00000D32 20 04            [12] 2698 	jr	NZ, 00125$
                                   2699 ;C:\Users\reina\OneDrive\Documentos\MSXgl\engine/src/print.c:1363: len = 8;
    00000D34 DD 36 FF 08      [19] 2700 	ld	-1 (ix), #0x08
    00000D38                       2701 00125$:
                                   2702 ;C:\Users\reina\OneDrive\Documentos\MSXgl\engine/src/print.c:1364: u32 val = (u32)va_arg(args, u32);
    00000D38 DD 6E F8         [19] 2703 	ld	l, -8 (ix)
    00000D3B DD 66 F9         [19] 2704 	ld	h, -7 (ix)
    00000D3E 11 04 00         [10] 2705 	ld	de, #0x0004
    00000D41 19               [11] 2706 	add	hl, de
    00000D42 DD 75 F8         [19] 2707 	ld	-8 (ix), l
    00000D45 DD 74 F9         [19] 2708 	ld	-7 (ix), h
    00000D48 7D               [ 4] 2709 	ld	a, l
    00000D49 C6 FC            [ 7] 2710 	add	a, #0xfc
    00000D4B 6F               [ 4] 2711 	ld	l, a
                                   2712 ;	spillPairReg hl
                                   2713 ;	spillPairReg hl
    00000D4C 7C               [ 4] 2714 	ld	a, h
    00000D4D CE FF            [ 7] 2715 	adc	a, #0xff
    00000D4F 67               [ 4] 2716 	ld	h, a
                                   2717 ;	spillPairReg hl
                                   2718 ;	spillPairReg hl
    00000D50 4E               [ 7] 2719 	ld	c, (hl)
    00000D51 23               [ 6] 2720 	inc	hl
    00000D52 46               [ 7] 2721 	ld	b, (hl)
    00000D53 23               [ 6] 2722 	inc	hl
    00000D54 5E               [ 7] 2723 	ld	e, (hl)
    00000D55 23               [ 6] 2724 	inc	hl
    00000D56 56               [ 7] 2725 	ld	d, (hl)
                                   2726 ;C:\Users\reina\OneDrive\Documentos\MSXgl\engine/src/print.c:1366: if(len > 7)
    00000D57 3E 07            [ 7] 2727 	ld	a, #0x07
    00000D59 DD 96 FF         [19] 2728 	sub	a, -1 (ix)
    00000D5C 30 2D            [12] 2729 	jr	NC, 00127$
                                   2730 ;C:\Users\reina\OneDrive\Documentos\MSXgl\engine/src/print.c:1367: Print_DrawChar(g_HexChar[(val >> 28) & 0xF]);
    00000D5E DD 72 F4         [19] 2731 	ld	-12 (ix), d
    00000D61 AF               [ 4] 2732 	xor	a, a
    00000D62 DD 77 F5         [19] 2733 	ld	-11 (ix), a
    00000D65 DD 77 F6         [19] 2734 	ld	-10 (ix), a
    00000D68 DD 77 F7         [19] 2735 	ld	-9 (ix), a
    00000D6B 3E 04            [ 7] 2736 	ld	a, #0x04
    00000D6D                       2737 00425$:
    00000D6D DD CB F4 3E      [23] 2738 	srl	-12 (ix)
    00000D71 3D               [ 4] 2739 	dec	a
    00000D72 20 F9            [12] 2740 	jr	NZ, 00425$
    00000D74 DD 7E F4         [19] 2741 	ld	a, -12 (ix)
                                   2742 ;	spillPairReg hl
                                   2743 ;	spillPairReg hl
    00000D77 E6 0F            [ 7] 2744 	and	a, #0x0f
    00000D79 26 00            [ 7] 2745 	ld	h, #0x00
                                   2746 ;	spillPairReg hl
                                   2747 ;	spillPairReg hl
    00000D7B C6r55            [ 7] 2748 	add	a, #<(_g_HexChar)
    00000D7D 6F               [ 4] 2749 	ld	l, a
                                   2750 ;	spillPairReg hl
                                   2751 ;	spillPairReg hl
    00000D7E 7C               [ 4] 2752 	ld	a, h
    00000D7F CEs00            [ 7] 2753 	adc	a, #>(_g_HexChar)
    00000D81 67               [ 4] 2754 	ld	h, a
    00000D82 6E               [ 7] 2755 	ld	l, (hl)
                                   2756 ;	spillPairReg hl
    00000D83 C5               [11] 2757 	push	bc
    00000D84 D5               [11] 2758 	push	de
    00000D85 7D               [ 4] 2759 	ld	a, l
    00000D86 CDrADr07         [17] 2760 	call	_Print_DrawChar
    00000D89 D1               [10] 2761 	pop	de
    00000D8A C1               [10] 2762 	pop	bc
    00000D8B                       2763 00127$:
                                   2764 ;C:\Users\reina\OneDrive\Documentos\MSXgl\engine/src/print.c:1368: if(len > 6)
    00000D8B 3E 06            [ 7] 2765 	ld	a, #0x06
    00000D8D DD 96 FF         [19] 2766 	sub	a, -1 (ix)
    00000D90 30 15            [12] 2767 	jr	NC, 00129$
                                   2768 ;C:\Users\reina\OneDrive\Documentos\MSXgl\engine/src/print.c:1369: Print_DrawChar(g_HexChar[(val >> 24) & 0xF]);
    00000D92 7A               [ 4] 2769 	ld	a, d
                                   2770 ;	spillPairReg hl
                                   2771 ;	spillPairReg hl
    00000D93 E6 0F            [ 7] 2772 	and	a, #0x0f
    00000D95 26 00            [ 7] 2773 	ld	h, #0x00
                                   2774 ;	spillPairReg hl
                                   2775 ;	spillPairReg hl
    00000D97 C6r55            [ 7] 2776 	add	a, #<(_g_HexChar)
    00000D99 6F               [ 4] 2777 	ld	l, a
                                   2778 ;	spillPairReg hl
                                   2779 ;	spillPairReg hl
    00000D9A 7C               [ 4] 2780 	ld	a, h
    00000D9B CEs00            [ 7] 2781 	adc	a, #>(_g_HexChar)
    00000D9D 67               [ 4] 2782 	ld	h, a
    00000D9E 6E               [ 7] 2783 	ld	l, (hl)
                                   2784 ;	spillPairReg hl
    00000D9F C5               [11] 2785 	push	bc
    00000DA0 D5               [11] 2786 	push	de
    00000DA1 7D               [ 4] 2787 	ld	a, l
    00000DA2 CDrADr07         [17] 2788 	call	_Print_DrawChar
    00000DA5 D1               [10] 2789 	pop	de
    00000DA6 C1               [10] 2790 	pop	bc
    00000DA7                       2791 00129$:
                                   2792 ;C:\Users\reina\OneDrive\Documentos\MSXgl\engine/src/print.c:1370: if(len > 5)
    00000DA7 3E 05            [ 7] 2793 	ld	a, #0x05
    00000DA9 DD 96 FF         [19] 2794 	sub	a, -1 (ix)
    00000DAC 30 31            [12] 2795 	jr	NC, 00131$
                                   2796 ;C:\Users\reina\OneDrive\Documentos\MSXgl\engine/src/print.c:1371: Print_DrawChar(g_HexChar[(val >> 20) & 0xF]);
    00000DAE DD 73 F4         [19] 2797 	ld	-12 (ix), e
    00000DB1 DD 72 F5         [19] 2798 	ld	-11 (ix), d
    00000DB4 AF               [ 4] 2799 	xor	a, a
    00000DB5 DD 77 F6         [19] 2800 	ld	-10 (ix), a
    00000DB8 DD 77 F7         [19] 2801 	ld	-9 (ix), a
    00000DBB 3E 04            [ 7] 2802 	ld	a, #0x04
    00000DBD                       2803 00427$:
    00000DBD DD CB F5 3E      [23] 2804 	srl	-11 (ix)
    00000DC1 DD CB F4 1E      [23] 2805 	rr	-12 (ix)
    00000DC5 3D               [ 4] 2806 	dec	a
    00000DC6 20 F5            [12] 2807 	jr	NZ, 00427$
    00000DC8 DD 7E F4         [19] 2808 	ld	a, -12 (ix)
                                   2809 ;	spillPairReg hl
                                   2810 ;	spillPairReg hl
    00000DCB E6 0F            [ 7] 2811 	and	a, #0x0f
    00000DCD 26 00            [ 7] 2812 	ld	h, #0x00
                                   2813 ;	spillPairReg hl
                                   2814 ;	spillPairReg hl
    00000DCF C6r55            [ 7] 2815 	add	a, #<(_g_HexChar)
    00000DD1 6F               [ 4] 2816 	ld	l, a
                                   2817 ;	spillPairReg hl
                                   2818 ;	spillPairReg hl
    00000DD2 7C               [ 4] 2819 	ld	a, h
    00000DD3 CEs00            [ 7] 2820 	adc	a, #>(_g_HexChar)
    00000DD5 67               [ 4] 2821 	ld	h, a
    00000DD6 6E               [ 7] 2822 	ld	l, (hl)
                                   2823 ;	spillPairReg hl
    00000DD7 C5               [11] 2824 	push	bc
    00000DD8 D5               [11] 2825 	push	de
    00000DD9 7D               [ 4] 2826 	ld	a, l
    00000DDA CDrADr07         [17] 2827 	call	_Print_DrawChar
    00000DDD D1               [10] 2828 	pop	de
    00000DDE C1               [10] 2829 	pop	bc
    00000DDF                       2830 00131$:
                                   2831 ;C:\Users\reina\OneDrive\Documentos\MSXgl\engine/src/print.c:1372: if(len > 4)
    00000DDF 3E 04            [ 7] 2832 	ld	a, #0x04
    00000DE1 DD 96 FF         [19] 2833 	sub	a, -1 (ix)
    00000DE4 30 15            [12] 2834 	jr	NC, 00133$
                                   2835 ;C:\Users\reina\OneDrive\Documentos\MSXgl\engine/src/print.c:1373: Print_DrawChar(g_HexChar[(val >> 16) & 0xF]);
    00000DE6 7B               [ 4] 2836 	ld	a, e
                                   2837 ;	spillPairReg hl
                                   2838 ;	spillPairReg hl
    00000DE7 E6 0F            [ 7] 2839 	and	a, #0x0f
    00000DE9 26 00            [ 7] 2840 	ld	h, #0x00
                                   2841 ;	spillPairReg hl
                                   2842 ;	spillPairReg hl
    00000DEB C6r55            [ 7] 2843 	add	a, #<(_g_HexChar)
    00000DED 6F               [ 4] 2844 	ld	l, a
                                   2845 ;	spillPairReg hl
                                   2846 ;	spillPairReg hl
    00000DEE 7C               [ 4] 2847 	ld	a, h
    00000DEF CEs00            [ 7] 2848 	adc	a, #>(_g_HexChar)
    00000DF1 67               [ 4] 2849 	ld	h, a
    00000DF2 6E               [ 7] 2850 	ld	l, (hl)
                                   2851 ;	spillPairReg hl
    00000DF3 C5               [11] 2852 	push	bc
    00000DF4 D5               [11] 2853 	push	de
    00000DF5 7D               [ 4] 2854 	ld	a, l
    00000DF6 CDrADr07         [17] 2855 	call	_Print_DrawChar
    00000DF9 D1               [10] 2856 	pop	de
    00000DFA C1               [10] 2857 	pop	bc
    00000DFB                       2858 00133$:
                                   2859 ;C:\Users\reina\OneDrive\Documentos\MSXgl\engine/src/print.c:1374: if(len > 3)
    00000DFB 3E 03            [ 7] 2860 	ld	a, #0x03
    00000DFD DD 96 FF         [19] 2861 	sub	a, -1 (ix)
    00000E00 30 35            [12] 2862 	jr	NC, 00135$
                                   2863 ;C:\Users\reina\OneDrive\Documentos\MSXgl\engine/src/print.c:1375: Print_DrawChar(g_HexChar[(val >> 12) & 0xF]);
    00000E02 DD 70 F4         [19] 2864 	ld	-12 (ix), b
    00000E05 DD 73 F5         [19] 2865 	ld	-11 (ix), e
    00000E08 DD 72 F6         [19] 2866 	ld	-10 (ix), d
    00000E0B DD 36 F7 00      [19] 2867 	ld	-9 (ix), #0x00
    00000E0F 3E 04            [ 7] 2868 	ld	a, #0x04
    00000E11                       2869 00429$:
    00000E11 DD CB F6 3E      [23] 2870 	srl	-10 (ix)
    00000E15 DD CB F5 1E      [23] 2871 	rr	-11 (ix)
    00000E19 DD CB F4 1E      [23] 2872 	rr	-12 (ix)
    00000E1D 3D               [ 4] 2873 	dec	a
    00000E1E 20 F1            [12] 2874 	jr	NZ, 00429$
    00000E20 DD 7E F4         [19] 2875 	ld	a, -12 (ix)
                                   2876 ;	spillPairReg hl
                                   2877 ;	spillPairReg hl
    00000E23 E6 0F            [ 7] 2878 	and	a, #0x0f
    00000E25 6F               [ 4] 2879 	ld	l, a
                                   2880 ;	spillPairReg hl
                                   2881 ;	spillPairReg hl
    00000E26 26 00            [ 7] 2882 	ld	h, #0x00
                                   2883 ;	spillPairReg hl
                                   2884 ;	spillPairReg hl
    00000E28 D5               [11] 2885 	push	de
    00000E29 11r55r00         [10] 2886 	ld	de, #_g_HexChar
    00000E2C 19               [11] 2887 	add	hl, de
    00000E2D D1               [10] 2888 	pop	de
    00000E2E 6E               [ 7] 2889 	ld	l, (hl)
                                   2890 ;	spillPairReg hl
    00000E2F C5               [11] 2891 	push	bc
    00000E30 D5               [11] 2892 	push	de
    00000E31 7D               [ 4] 2893 	ld	a, l
    00000E32 CDrADr07         [17] 2894 	call	_Print_DrawChar
    00000E35 D1               [10] 2895 	pop	de
    00000E36 C1               [10] 2896 	pop	bc
    00000E37                       2897 00135$:
                                   2898 ;C:\Users\reina\OneDrive\Documentos\MSXgl\engine/src/print.c:1376: if(len > 2)
    00000E37 3E 02            [ 7] 2899 	ld	a, #0x02
    00000E39 DD 96 FF         [19] 2900 	sub	a, -1 (ix)
    00000E3C 30 15            [12] 2901 	jr	NC, 00137$
                                   2902 ;C:\Users\reina\OneDrive\Documentos\MSXgl\engine/src/print.c:1377: Print_DrawChar(g_HexChar[(val >> 8) & 0xF]);
    00000E3E 78               [ 4] 2903 	ld	a, b
                                   2904 ;	spillPairReg hl
                                   2905 ;	spillPairReg hl
    00000E3F E6 0F            [ 7] 2906 	and	a, #0x0f
    00000E41 26 00            [ 7] 2907 	ld	h, #0x00
                                   2908 ;	spillPairReg hl
                                   2909 ;	spillPairReg hl
    00000E43 C6r55            [ 7] 2910 	add	a, #<(_g_HexChar)
    00000E45 6F               [ 4] 2911 	ld	l, a
                                   2912 ;	spillPairReg hl
                                   2913 ;	spillPairReg hl
    00000E46 7C               [ 4] 2914 	ld	a, h
    00000E47 CEs00            [ 7] 2915 	adc	a, #>(_g_HexChar)
    00000E49 67               [ 4] 2916 	ld	h, a
    00000E4A 6E               [ 7] 2917 	ld	l, (hl)
                                   2918 ;	spillPairReg hl
    00000E4B C5               [11] 2919 	push	bc
    00000E4C D5               [11] 2920 	push	de
    00000E4D 7D               [ 4] 2921 	ld	a, l
    00000E4E CDrADr07         [17] 2922 	call	_Print_DrawChar
    00000E51 D1               [10] 2923 	pop	de
    00000E52 C1               [10] 2924 	pop	bc
    00000E53                       2925 00137$:
                                   2926 ;C:\Users\reina\OneDrive\Documentos\MSXgl\engine/src/print.c:1378: if(len > 1)
    00000E53 3E 01            [ 7] 2927 	ld	a, #0x01
    00000E55 DD 96 FF         [19] 2928 	sub	a, -1 (ix)
    00000E58 30 38            [12] 2929 	jr	NC, 00139$
                                   2930 ;C:\Users\reina\OneDrive\Documentos\MSXgl\engine/src/print.c:1379: Print_DrawChar(g_HexChar[(val >> 4) & 0xF]);
    00000E5A DD 71 F4         [19] 2931 	ld	-12 (ix), c
    00000E5D DD 70 F5         [19] 2932 	ld	-11 (ix), b
    00000E60 DD 73 F6         [19] 2933 	ld	-10 (ix), e
    00000E63 DD 72 F7         [19] 2934 	ld	-9 (ix), d
    00000E66 3E 04            [ 7] 2935 	ld	a, #0x04
    00000E68                       2936 00431$:
    00000E68 DD CB F7 3E      [23] 2937 	srl	-9 (ix)
    00000E6C DD CB F6 1E      [23] 2938 	rr	-10 (ix)
    00000E70 DD CB F5 1E      [23] 2939 	rr	-11 (ix)
    00000E74 DD CB F4 1E      [23] 2940 	rr	-12 (ix)
    00000E78 3D               [ 4] 2941 	dec	a
    00000E79 20 ED            [12] 2942 	jr	NZ, 00431$
    00000E7B DD 7E F4         [19] 2943 	ld	a, -12 (ix)
                                   2944 ;	spillPairReg hl
                                   2945 ;	spillPairReg hl
    00000E7E E6 0F            [ 7] 2946 	and	a, #0x0f
    00000E80 26 00            [ 7] 2947 	ld	h, #0x00
                                   2948 ;	spillPairReg hl
                                   2949 ;	spillPairReg hl
    00000E82 C6r55            [ 7] 2950 	add	a, #<(_g_HexChar)
    00000E84 6F               [ 4] 2951 	ld	l, a
                                   2952 ;	spillPairReg hl
                                   2953 ;	spillPairReg hl
    00000E85 7C               [ 4] 2954 	ld	a, h
    00000E86 CEs00            [ 7] 2955 	adc	a, #>(_g_HexChar)
    00000E88 67               [ 4] 2956 	ld	h, a
    00000E89 6E               [ 7] 2957 	ld	l, (hl)
                                   2958 ;	spillPairReg hl
    00000E8A C5               [11] 2959 	push	bc
    00000E8B D5               [11] 2960 	push	de
    00000E8C 7D               [ 4] 2961 	ld	a, l
    00000E8D CDrADr07         [17] 2962 	call	_Print_DrawChar
    00000E90 D1               [10] 2963 	pop	de
    00000E91 C1               [10] 2964 	pop	bc
    00000E92                       2965 00139$:
                                   2966 ;C:\Users\reina\OneDrive\Documentos\MSXgl\engine/src/print.c:1380: Print_DrawChar(g_HexChar[val & 0xF]);
    00000E92 79               [ 4] 2967 	ld	a, c
    00000E93 E6 0F            [ 7] 2968 	and	a, #0x0f
    00000E95 4F               [ 4] 2969 	ld	c, a
    00000E96 06 00            [ 7] 2970 	ld	b, #0x00
    00000E98 21r55r00         [10] 2971 	ld	hl, #_g_HexChar
    00000E9B 09               [11] 2972 	add	hl, bc
    00000E9C 7E               [ 7] 2973 	ld	a, (hl)
    00000E9D CDrADr07         [17] 2974 	call	_Print_DrawChar
    00000EA0 C3rD4r0F         [10] 2975 	jp	00190$
    00000EA3                       2976 00160$:
                                   2977 ;C:\Users\reina\OneDrive\Documentos\MSXgl\engine/src/print.c:1382: else if(*ptr == 'B')
    00000EA3 DD 7E FE         [19] 2978 	ld	a, -2 (ix)
    00000EA6 D6 42            [ 7] 2979 	sub	a, #0x42
    00000EA8 C2r4Fr0F         [10] 2980 	jp	NZ,00157$
                                   2981 ;C:\Users\reina\OneDrive\Documentos\MSXgl\engine/src/print.c:1384: if(len == 0)
    00000EAB DD 7E FF         [19] 2982 	ld	a, -1 (ix)
    00000EAE B7               [ 4] 2983 	or	a, a
    00000EAF 20 04            [12] 2984 	jr	NZ, 00141$
                                   2985 ;C:\Users\reina\OneDrive\Documentos\MSXgl\engine/src/print.c:1385: len = 16;
    00000EB1 DD 36 FF 10      [19] 2986 	ld	-1 (ix), #0x10
    00000EB5                       2987 00141$:
                                   2988 ;C:\Users\reina\OneDrive\Documentos\MSXgl\engine/src/print.c:1386: u32 val = (u32)va_arg(args, u32);
    00000EB5 DD 6E F8         [19] 2989 	ld	l, -8 (ix)
    00000EB8 DD 66 F9         [19] 2990 	ld	h, -7 (ix)
    00000EBB 11 04 00         [10] 2991 	ld	de, #0x0004
    00000EBE 19               [11] 2992 	add	hl, de
    00000EBF DD 75 F8         [19] 2993 	ld	-8 (ix), l
    00000EC2 DD 74 F9         [19] 2994 	ld	-7 (ix), h
    00000EC5 11 FC FF         [10] 2995 	ld	de, #0xfffc
    00000EC8 19               [11] 2996 	add	hl, de
    00000EC9 EB               [ 4] 2997 	ex	de,hl
    00000ECA 21 04 00         [10] 2998 	ld	hl, #4
    00000ECD 39               [11] 2999 	add	hl, sp
    00000ECE EB               [ 4] 3000 	ex	de, hl
    00000ECF 01 04 00         [10] 3001 	ld	bc, #0x0004
    00000ED2 ED B0            [21] 3002 	ldir
                                   3003 ;C:\Users\reina\OneDrive\Documentos\MSXgl\engine/src/print.c:1387: u32 bit = 1 << (len - 1);
    00000ED4 DD 46 FF         [19] 3004 	ld	b, -1 (ix)
    00000ED7 05               [ 4] 3005 	dec	b
    00000ED8 21 01 00         [10] 3006 	ld	hl, #0x0001
    00000EDB 04               [ 4] 3007 	inc	b
    00000EDC C3rE0r0E         [10] 3008 	jp	00436$
    00000EDF                       3009 00435$:
    00000EDF 29               [11] 3010 	add	hl, hl
    00000EE0                       3011 00436$:
    00000EE0 10 FD            [13] 3012 	djnz	00435$
    00000EE2 DD 75 F4         [19] 3013 	ld	-12 (ix), l
    00000EE5 7C               [ 4] 3014 	ld	a, h
    00000EE6 DD 77 F5         [19] 3015 	ld	-11 (ix), a
    00000EE9 07               [ 4] 3016 	rlca
    00000EEA 9F               [ 4] 3017 	sbc	a, a
    00000EEB DD 77 F6         [19] 3018 	ld	-10 (ix), a
    00000EEE DD 77 F7         [19] 3019 	ld	-9 (ix), a
                                   3020 ;C:\Users\reina\OneDrive\Documentos\MSXgl\engine/src/print.c:1388: while(bit)
    00000EF1                       3021 00145$:
    00000EF1 DD 7E F7         [19] 3022 	ld	a, -9 (ix)
    00000EF4 DD B6 F6         [19] 3023 	or	a, -10 (ix)
    00000EF7 DD B6 F5         [19] 3024 	or	a, -11 (ix)
    00000EFA DD B6 F4         [19] 3025 	or	a, -12 (ix)
    00000EFD CArD4r0F         [10] 3026 	jp	Z, 00190$
                                   3027 ;C:\Users\reina\OneDrive\Documentos\MSXgl\engine/src/print.c:1390: if(val & bit)
    00000F00 DD 7E F0         [19] 3028 	ld	a, -16 (ix)
    00000F03 DD A6 F4         [19] 3029 	and	a, -12 (ix)
    00000F06 DD 77 EC         [19] 3030 	ld	-20 (ix), a
    00000F09 DD 7E F1         [19] 3031 	ld	a, -15 (ix)
    00000F0C DD A6 F5         [19] 3032 	and	a, -11 (ix)
    00000F0F DD 77 ED         [19] 3033 	ld	-19 (ix), a
    00000F12 DD 7E F2         [19] 3034 	ld	a, -14 (ix)
    00000F15 DD A6 F6         [19] 3035 	and	a, -10 (ix)
    00000F18 DD 77 EE         [19] 3036 	ld	-18 (ix), a
    00000F1B DD 7E F3         [19] 3037 	ld	a, -13 (ix)
    00000F1E DD A6 F7         [19] 3038 	and	a, -9 (ix)
    00000F21 DD 77 EF         [19] 3039 	ld	-17 (ix), a
    00000F24 DD B6 EE         [19] 3040 	or	a, -18 (ix)
    00000F27 DD B6 ED         [19] 3041 	or	a, -19 (ix)
    00000F2A DD B6 EC         [19] 3042 	or	a, -20 (ix)
    00000F2D 28 08            [12] 3043 	jr	Z, 00143$
                                   3044 ;C:\Users\reina\OneDrive\Documentos\MSXgl\engine/src/print.c:1391: Print_DrawChar('1');
    00000F2F 3E 31            [ 7] 3045 	ld	a, #0x31
    00000F31 CDrADr07         [17] 3046 	call	_Print_DrawChar
    00000F34 C3r3Cr0F         [10] 3047 	jp	00144$
    00000F37                       3048 00143$:
                                   3049 ;C:\Users\reina\OneDrive\Documentos\MSXgl\engine/src/print.c:1393: Print_DrawChar('0');
    00000F37 3E 30            [ 7] 3050 	ld	a, #0x30
    00000F39 CDrADr07         [17] 3051 	call	_Print_DrawChar
    00000F3C                       3052 00144$:
                                   3053 ;C:\Users\reina\OneDrive\Documentos\MSXgl\engine/src/print.c:1394: bit >>= 1;
    00000F3C DD CB F7 3E      [23] 3054 	srl	-9 (ix)
    00000F40 DD CB F6 1E      [23] 3055 	rr	-10 (ix)
    00000F44 DD CB F5 1E      [23] 3056 	rr	-11 (ix)
    00000F48 DD CB F4 1E      [23] 3057 	rr	-12 (ix)
    00000F4C C3rF1r0E         [10] 3058 	jp	00145$
    00000F4F                       3059 00157$:
                                   3060 ;C:\Users\reina\OneDrive\Documentos\MSXgl\engine/src/print.c:1398: else if(*ptr == 'c')
    00000F4F DD 7E FE         [19] 3061 	ld	a, -2 (ix)
    00000F52 D6 63            [ 7] 3062 	sub	a, #0x63
    00000F54 20 17            [12] 3063 	jr	NZ, 00154$
                                   3064 ;C:\Users\reina\OneDrive\Documentos\MSXgl\engine/src/print.c:1400: c8 val = (c8)va_arg(args, u16);
    00000F56 DD 6E F8         [19] 3065 	ld	l, -8 (ix)
                                   3066 ;	spillPairReg hl
                                   3067 ;	spillPairReg hl
    00000F59 DD 66 F9         [19] 3068 	ld	h, -7 (ix)
                                   3069 ;	spillPairReg hl
                                   3070 ;	spillPairReg hl
    00000F5C 23               [ 6] 3071 	inc	hl
    00000F5D 23               [ 6] 3072 	inc	hl
    00000F5E DD 75 F8         [19] 3073 	ld	-8 (ix), l
    00000F61 DD 74 F9         [19] 3074 	ld	-7 (ix), h
    00000F64 2B               [ 6] 3075 	dec	hl
    00000F65 2B               [ 6] 3076 	dec	hl
                                   3077 ;C:\Users\reina\OneDrive\Documentos\MSXgl\engine/src/print.c:1401: Print_DrawChar(val);
    00000F66 7E               [ 7] 3078 	ld	a, (hl)
    00000F67 CDrADr07         [17] 3079 	call	_Print_DrawChar
    00000F6A C3rD4r0F         [10] 3080 	jp	00190$
    00000F6D                       3081 00154$:
                                   3082 ;C:\Users\reina\OneDrive\Documentos\MSXgl\engine/src/print.c:1403: else if(*ptr == 's')
    00000F6D DD 7E FE         [19] 3083 	ld	a, -2 (ix)
    00000F70 D6 73            [ 7] 3084 	sub	a, #0x73
    00000F72 20 1A            [12] 3085 	jr	NZ, 00151$
                                   3086 ;C:\Users\reina\OneDrive\Documentos\MSXgl\engine/src/print.c:1405: const c8* val = (const c8*)va_arg(args, const c8*);
    00000F74 DD 6E F8         [19] 3087 	ld	l, -8 (ix)
                                   3088 ;	spillPairReg hl
                                   3089 ;	spillPairReg hl
    00000F77 DD 66 F9         [19] 3090 	ld	h, -7 (ix)
                                   3091 ;	spillPairReg hl
                                   3092 ;	spillPairReg hl
    00000F7A 23               [ 6] 3093 	inc	hl
    00000F7B 23               [ 6] 3094 	inc	hl
    00000F7C DD 75 F8         [19] 3095 	ld	-8 (ix), l
    00000F7F DD 74 F9         [19] 3096 	ld	-7 (ix), h
    00000F82 2B               [ 6] 3097 	dec	hl
    00000F83 2B               [ 6] 3098 	dec	hl
    00000F84 4E               [ 7] 3099 	ld	c, (hl)
    00000F85 23               [ 6] 3100 	inc	hl
    00000F86 66               [ 7] 3101 	ld	h, (hl)
                                   3102 ;	spillPairReg hl
                                   3103 ;C:\Users\reina\OneDrive\Documentos\MSXgl\engine/src/print.c:1406: Print_DrawText(val);
    00000F87 69               [ 4] 3104 	ld	l, c
                                   3105 ;	spillPairReg hl
                                   3106 ;	spillPairReg hl
    00000F88 CDrF5r07         [17] 3107 	call	_Print_DrawText
    00000F8B C3rD4r0F         [10] 3108 	jp	00190$
    00000F8E                       3109 00151$:
                                   3110 ;C:\Users\reina\OneDrive\Documentos\MSXgl\engine/src/print.c:1408: else if(*ptr == '%')
    00000F8E DD 7E FE         [19] 3111 	ld	a, -2 (ix)
    00000F91 D6 25            [ 7] 3112 	sub	a, #0x25
    00000F93 20 3F            [12] 3113 	jr	NZ, 00190$
                                   3114 ;C:\Users\reina\OneDrive\Documentos\MSXgl\engine/src/print.c:1410: Print_DrawChar('%');
    00000F95 3E 25            [ 7] 3115 	ld	a, #0x25
    00000F97 CDrADr07         [17] 3116 	call	_Print_DrawChar
    00000F9A C3rD4r0F         [10] 3117 	jp	00190$
    00000F9D                       3118 00189$:
                                   3119 ;C:\Users\reina\OneDrive\Documentos\MSXgl\engine/src/print.c:1414: else if(*ptr == '\t')
    00000F9D DD 7E FF         [19] 3120 	ld	a, -1 (ix)
    00000FA0 D6 09            [ 7] 3121 	sub	a, #0x09
    00000FA2 20 15            [12] 3122 	jr	NZ, 00186$
                                   3123 ;C:\Users\reina\OneDrive\Documentos\MSXgl\engine/src/print.h:428: g_PrintData.CursorX += PRINT_W(g_PrintData.UnitX) + g_PrintData.TabSize - 1;
    00000FA4 01r05r00         [10] 3124 	ld	bc, #_g_PrintData + 5
    00000FA7 0A               [ 7] 3125 	ld	a, (bc)
    00000FA8 21r04r00         [10] 3126 	ld	hl, #(_g_PrintData + 4)
    00000FAB 5E               [ 7] 3127 	ld	e, (hl)
    00000FAC 83               [ 4] 3128 	add	a, e
    00000FAD 5F               [ 4] 3129 	ld	e, a
    00000FAE 02               [ 7] 3130 	ld	(bc), a
                                   3131 ;C:\Users\reina\OneDrive\Documentos\MSXgl\engine/src/print.h:429: g_PrintData.CursorX &= ~(g_PrintData.TabSize - 1);
    00000FAF 3Ar04r00         [13] 3132 	ld	a, (#(_g_PrintData + 4) + 0)
    00000FB2 3D               [ 4] 3133 	dec	a
    00000FB3 2F               [ 4] 3134 	cpl
    00000FB4 A3               [ 4] 3135 	and	a, e
    00000FB5 02               [ 7] 3136 	ld	(bc), a
                                   3137 ;C:\Users\reina\OneDrive\Documentos\MSXgl\engine/src/print.c:1415: Print_Tab();
    00000FB6 C3rD4r0F         [10] 3138 	jp	00190$
    00000FB9                       3139 00186$:
                                   3140 ;C:\Users\reina\OneDrive\Documentos\MSXgl\engine/src/print.c:1416: else if(*ptr == '\n')
    00000FB9 DD 7E FF         [19] 3141 	ld	a, -1 (ix)
    00000FBC D6 0A            [ 7] 3142 	sub	a, #0x0a
    00000FBE 20 0E            [12] 3143 	jr	NZ, 00183$
                                   3144 ;C:\Users\reina\OneDrive\Documentos\MSXgl\engine/src/print.h:436: g_PrintData.CursorX = 0;
    00000FC0 21r05r00         [10] 3145 	ld	hl, #(_g_PrintData + 5)
    00000FC3 36 00            [10] 3146 	ld	(hl), #0x00
                                   3147 ;C:\Users\reina\OneDrive\Documentos\MSXgl\engine/src/print.h:437: g_PrintData.CursorY += PRINT_H(g_PrintData.UnitY);
    00000FC5 01r06r00         [10] 3148 	ld	bc, #_g_PrintData + 6
    00000FC8 0A               [ 7] 3149 	ld	a, (bc)
    00000FC9 3C               [ 4] 3150 	inc	a
    00000FCA 02               [ 7] 3151 	ld	(bc), a
                                   3152 ;C:\Users\reina\OneDrive\Documentos\MSXgl\engine/src/print.c:1417: Print_Return();
    00000FCB C3rD4r0F         [10] 3153 	jp	00190$
    00000FCE                       3154 00183$:
                                   3155 ;C:\Users\reina\OneDrive\Documentos\MSXgl\engine/src/print.c:1423: Print_DrawChar(*ptr);
    00000FCE DD 7E FF         [19] 3156 	ld	a, -1 (ix)
    00000FD1 CDrADr07         [17] 3157 	call	_Print_DrawChar
    00000FD4                       3158 00190$:
                                   3159 ;C:\Users\reina\OneDrive\Documentos\MSXgl\engine/src/print.c:1425: ptr++;
    00000FD4 DD 34 FC         [23] 3160 	inc	-4 (ix)
    00000FD7 C2r86r09         [10] 3161 	jp	NZ,00191$
    00000FDA DD 34 FD         [23] 3162 	inc	-3 (ix)
    00000FDD C3r86r09         [10] 3163 	jp	00191$
                                   3164 ;C:\Users\reina\OneDrive\Documentos\MSXgl\engine/src/print.c:1428: va_end(args);
    00000FE0                       3165 00196$:
                                   3166 ;C:\Users\reina\OneDrive\Documentos\MSXgl\engine/src/print.c:1429: }
    00000FE0 DD F9            [10] 3167 	ld	sp, ix
    00000FE2 DD E1            [14] 3168 	pop	ix
    00000FE4 C9               [10] 3169 	ret
                                   3170 ;C:\Users\reina\OneDrive\Documentos\MSXgl\engine/src/print.c:1439: void Print_DrawLineH(u8 x, u8 y, u8 len)
                                   3171 ;	---------------------------------
                                   3172 ; Function Print_DrawLineH
                                   3173 ; ---------------------------------
    00000FE5                       3174 _Print_DrawLineH::
    00000FE5 DD E5            [15] 3175 	push	ix
    00000FE7 DD 21 00 00      [14] 3176 	ld	ix,#0
    00000FEB DD 39            [15] 3177 	add	ix,sp
    00000FED 47               [ 4] 3178 	ld	b, a
    00000FEE 4D               [ 4] 3179 	ld	c, l
                                   3180 ;C:\Users\reina\OneDrive\Documentos\MSXgl\engine/src/print.h:223: g_PrintData.CursorX = x;
    00000FEF 21r05r00         [10] 3181 	ld	hl, #(_g_PrintData + 5)
    00000FF2 70               [ 7] 3182 	ld	(hl), b
                                   3183 ;C:\Users\reina\OneDrive\Documentos\MSXgl\engine/src/print.h:224: g_PrintData.CursorY = y;
    00000FF3 21r06r00         [10] 3184 	ld	hl, #(_g_PrintData + 6)
    00000FF6 71               [ 7] 3185 	ld	(hl), c
                                   3186 ;C:\Users\reina\OneDrive\Documentos\MSXgl\engine/src/print.c:1442: Print_DrawCharX(0x17, len);
    00000FF7 DD 6E 04         [19] 3187 	ld	l, 4 (ix)
                                   3188 ;	spillPairReg hl
                                   3189 ;	spillPairReg hl
    00000FFA 3E 17            [ 7] 3190 	ld	a, #0x17
    00000FFC CDrE3r07         [17] 3191 	call	_Print_DrawCharX
                                   3192 ;C:\Users\reina\OneDrive\Documentos\MSXgl\engine/src/print.c:1443: }
    00000FFF DD E1            [14] 3193 	pop	ix
    00001001 E1               [10] 3194 	pop	hl
    00001002 33               [ 6] 3195 	inc	sp
    00001003 E9               [ 4] 3196 	jp	(hl)
                                   3197 ;C:\Users\reina\OneDrive\Documentos\MSXgl\engine/src/print.c:1447: void Print_DrawLineV(u8 x, u8 y, u8 len)
                                   3198 ;	---------------------------------
                                   3199 ; Function Print_DrawLineV
                                   3200 ; ---------------------------------
    00001004                       3201 _Print_DrawLineV::
    00001004 DD E5            [15] 3202 	push	ix
    00001006 DD 21 00 00      [14] 3203 	ld	ix,#0
    0000100A DD 39            [15] 3204 	add	ix,sp
    0000100C 3B               [ 6] 3205 	dec	sp
    0000100D 4F               [ 4] 3206 	ld	c, a
    0000100E DD 75 FF         [19] 3207 	ld	-1 (ix), l
                                   3208 ;C:\Users\reina\OneDrive\Documentos\MSXgl\engine/src/print.c:1449: for(u8 i = 0; i < len; i++)
    00001011 06 00            [ 7] 3209 	ld	b, #0x00
    00001013                       3210 00104$:
    00001013 78               [ 4] 3211 	ld	a, b
    00001014 DD 96 04         [19] 3212 	sub	a, 4 (ix)
    00001017 30 18            [12] 3213 	jr	NC, 00106$
                                   3214 ;C:\Users\reina\OneDrive\Documentos\MSXgl\engine/src/print.c:1451: Print_SetPosition(x, y + i);
    00001019 DD 7E FF         [19] 3215 	ld	a, -1 (ix)
    0000101C 80               [ 4] 3216 	add	a, b
    0000101D 5F               [ 4] 3217 	ld	e, a
                                   3218 ;C:\Users\reina\OneDrive\Documentos\MSXgl\engine/src/print.h:223: g_PrintData.CursorX = x;
    0000101E 21r05r00         [10] 3219 	ld	hl, #(_g_PrintData + 5)
    00001021 71               [ 7] 3220 	ld	(hl), c
                                   3221 ;C:\Users\reina\OneDrive\Documentos\MSXgl\engine/src/print.h:224: g_PrintData.CursorY = y;
    00001022 21r06r00         [10] 3222 	ld	hl, #(_g_PrintData + 6)
    00001025 73               [ 7] 3223 	ld	(hl), e
                                   3224 ;C:\Users\reina\OneDrive\Documentos\MSXgl\engine/src/print.c:1452: Print_DrawChar(0x16);
    00001026 C5               [11] 3225 	push	bc
    00001027 3E 16            [ 7] 3226 	ld	a, #0x16
    00001029 CDrADr07         [17] 3227 	call	_Print_DrawChar
    0000102C C1               [10] 3228 	pop	bc
                                   3229 ;C:\Users\reina\OneDrive\Documentos\MSXgl\engine/src/print.c:1449: for(u8 i = 0; i < len; i++)
    0000102D 04               [ 4] 3230 	inc	b
    0000102E C3r13r10         [10] 3231 	jp	00104$
    00001031                       3232 00106$:
                                   3233 ;C:\Users\reina\OneDrive\Documentos\MSXgl\engine/src/print.c:1454: }
    00001031 33               [ 6] 3234 	inc	sp
    00001032 DD E1            [14] 3235 	pop	ix
    00001034 E1               [10] 3236 	pop	hl
    00001035 33               [ 6] 3237 	inc	sp
    00001036 E9               [ 4] 3238 	jp	(hl)
                                   3239 ;C:\Users\reina\OneDrive\Documentos\MSXgl\engine/src/print.c:1458: void Print_DrawBox(u8 x, u8 y, u8 width, u8 height)
                                   3240 ;	---------------------------------
                                   3241 ; Function Print_DrawBox
                                   3242 ; ---------------------------------
    00001037                       3243 _Print_DrawBox::
    00001037 DD E5            [15] 3244 	push	ix
    00001039 DD 21 00 00      [14] 3245 	ld	ix,#0
    0000103D DD 39            [15] 3246 	add	ix,sp
    0000103F 3B               [ 6] 3247 	dec	sp
    00001040 57               [ 4] 3248 	ld	d, a
    00001041 5D               [ 4] 3249 	ld	e, l
                                   3250 ;C:\Users\reina\OneDrive\Documentos\MSXgl\engine/src/print.h:223: g_PrintData.CursorX = x;
    00001042 21r05r00         [10] 3251 	ld	hl, #(_g_PrintData + 5)
    00001045 72               [ 7] 3252 	ld	(hl), d
                                   3253 ;C:\Users\reina\OneDrive\Documentos\MSXgl\engine/src/print.h:224: g_PrintData.CursorY = y;
    00001046 21r06r00         [10] 3254 	ld	hl, #(_g_PrintData + 6)
    00001049 73               [ 7] 3255 	ld	(hl), e
                                   3256 ;C:\Users\reina\OneDrive\Documentos\MSXgl\engine/src/print.c:1462: Print_DrawChar(0x18);
    0000104A D5               [11] 3257 	push	de
    0000104B 3E 18            [ 7] 3258 	ld	a, #0x18
    0000104D CDrADr07         [17] 3259 	call	_Print_DrawChar
    00001050 D1               [10] 3260 	pop	de
                                   3261 ;C:\Users\reina\OneDrive\Documentos\MSXgl\engine/src/print.c:1463: Print_SetPosition(x + width - 1, y);
    00001051 7A               [ 4] 3262 	ld	a, d
    00001052 DD 86 04         [19] 3263 	add	a, 4 (ix)
    00001055 3D               [ 4] 3264 	dec	a
    00001056 4F               [ 4] 3265 	ld	c, a
                                   3266 ;C:\Users\reina\OneDrive\Documentos\MSXgl\engine/src/print.h:223: g_PrintData.CursorX = x;
    00001057 32r05r00         [13] 3267 	ld	(#(_g_PrintData + 5)),a
                                   3268 ;C:\Users\reina\OneDrive\Documentos\MSXgl\engine/src/print.h:224: g_PrintData.CursorY = y;
    0000105A 21r06r00         [10] 3269 	ld	hl, #(_g_PrintData + 6)
    0000105D 73               [ 7] 3270 	ld	(hl), e
                                   3271 ;C:\Users\reina\OneDrive\Documentos\MSXgl\engine/src/print.c:1464: Print_DrawChar(0x19);
    0000105E C5               [11] 3272 	push	bc
    0000105F D5               [11] 3273 	push	de
    00001060 3E 19            [ 7] 3274 	ld	a, #0x19
    00001062 CDrADr07         [17] 3275 	call	_Print_DrawChar
    00001065 D1               [10] 3276 	pop	de
    00001066 C1               [10] 3277 	pop	bc
                                   3278 ;C:\Users\reina\OneDrive\Documentos\MSXgl\engine/src/print.c:1465: Print_SetPosition(x, y + height - 1);
    00001067 7B               [ 4] 3279 	ld	a, e
    00001068 DD 86 05         [19] 3280 	add	a, 5 (ix)
    0000106B 3D               [ 4] 3281 	dec	a
    0000106C 47               [ 4] 3282 	ld	b, a
                                   3283 ;C:\Users\reina\OneDrive\Documentos\MSXgl\engine/src/print.h:223: g_PrintData.CursorX = x;
    0000106D 21r05r00         [10] 3284 	ld	hl, #(_g_PrintData + 5)
    00001070 72               [ 7] 3285 	ld	(hl), d
                                   3286 ;C:\Users\reina\OneDrive\Documentos\MSXgl\engine/src/print.h:224: g_PrintData.CursorY = y;
    00001071 32r06r00         [13] 3287 	ld	(#(_g_PrintData + 6)),a
                                   3288 ;C:\Users\reina\OneDrive\Documentos\MSXgl\engine/src/print.c:1466: Print_DrawChar(0x1A);
    00001074 C5               [11] 3289 	push	bc
    00001075 D5               [11] 3290 	push	de
    00001076 3E 1A            [ 7] 3291 	ld	a, #0x1a
    00001078 CDrADr07         [17] 3292 	call	_Print_DrawChar
    0000107B D1               [10] 3293 	pop	de
    0000107C C1               [10] 3294 	pop	bc
                                   3295 ;C:\Users\reina\OneDrive\Documentos\MSXgl\engine/src/print.h:223: g_PrintData.CursorX = x;
    0000107D 21r05r00         [10] 3296 	ld	hl, #(_g_PrintData + 5)
    00001080 71               [ 7] 3297 	ld	(hl), c
                                   3298 ;C:\Users\reina\OneDrive\Documentos\MSXgl\engine/src/print.h:224: g_PrintData.CursorY = y;
    00001081 21r06r00         [10] 3299 	ld	hl, #(_g_PrintData + 6)
    00001084 70               [ 7] 3300 	ld	(hl), b
                                   3301 ;C:\Users\reina\OneDrive\Documentos\MSXgl\engine/src/print.c:1468: Print_DrawChar(0x1B);
    00001085 C5               [11] 3302 	push	bc
    00001086 D5               [11] 3303 	push	de
    00001087 3E 1B            [ 7] 3304 	ld	a, #0x1b
    00001089 CDrADr07         [17] 3305 	call	_Print_DrawChar
    0000108C D1               [10] 3306 	pop	de
    0000108D C1               [10] 3307 	pop	bc
                                   3308 ;C:\Users\reina\OneDrive\Documentos\MSXgl\engine/src/print.c:1471: Print_DrawLineH(x + 1, y,              width - 2);
    0000108E DD 7E 04         [19] 3309 	ld	a, 4 (ix)
    00001091 C6 FE            [ 7] 3310 	add	a, #0xfe
    00001093 DD 77 FF         [19] 3311 	ld	-1 (ix), a
    00001096 62               [ 4] 3312 	ld	h, d
                                   3313 ;	spillPairReg hl
                                   3314 ;	spillPairReg hl
    00001097 24               [ 4] 3315 	inc	h
    00001098 E5               [11] 3316 	push	hl
    00001099 C5               [11] 3317 	push	bc
    0000109A D5               [11] 3318 	push	de
    0000109B DD 7E FF         [19] 3319 	ld	a, -1 (ix)
    0000109E F5               [11] 3320 	push	af
    0000109F 33               [ 6] 3321 	inc	sp
    000010A0 6B               [ 4] 3322 	ld	l, e
                                   3323 ;	spillPairReg hl
                                   3324 ;	spillPairReg hl
    000010A1 7C               [ 4] 3325 	ld	a, h
    000010A2 CDrE5r0F         [17] 3326 	call	_Print_DrawLineH
    000010A5 D1               [10] 3327 	pop	de
    000010A6 C1               [10] 3328 	pop	bc
    000010A7 E1               [10] 3329 	pop	hl
                                   3330 ;C:\Users\reina\OneDrive\Documentos\MSXgl\engine/src/print.c:1472: Print_DrawLineH(x + 1, y + height - 1, width - 2);
    000010A8 C5               [11] 3331 	push	bc
    000010A9 D5               [11] 3332 	push	de
    000010AA DD 7E FF         [19] 3333 	ld	a, -1 (ix)
    000010AD F5               [11] 3334 	push	af
    000010AE 33               [ 6] 3335 	inc	sp
    000010AF 68               [ 4] 3336 	ld	l, b
                                   3337 ;	spillPairReg hl
                                   3338 ;	spillPairReg hl
    000010B0 7C               [ 4] 3339 	ld	a, h
    000010B1 CDrE5r0F         [17] 3340 	call	_Print_DrawLineH
    000010B4 D1               [10] 3341 	pop	de
    000010B5 C1               [10] 3342 	pop	bc
                                   3343 ;C:\Users\reina\OneDrive\Documentos\MSXgl\engine/src/print.c:1475: Print_DrawLineV(x,             y + 1, height - 2);
    000010B6 DD 46 05         [19] 3344 	ld	b, 5 (ix)
    000010B9 05               [ 4] 3345 	dec	b
    000010BA 05               [ 4] 3346 	dec	b
    000010BB 1C               [ 4] 3347 	inc	e
    000010BC C5               [11] 3348 	push	bc
    000010BD D5               [11] 3349 	push	de
    000010BE C5               [11] 3350 	push	bc
    000010BF 33               [ 6] 3351 	inc	sp
    000010C0 6B               [ 4] 3352 	ld	l, e
                                   3353 ;	spillPairReg hl
                                   3354 ;	spillPairReg hl
    000010C1 7A               [ 4] 3355 	ld	a, d
    000010C2 CDr04r10         [17] 3356 	call	_Print_DrawLineV
    000010C5 D1               [10] 3357 	pop	de
    000010C6 C1               [10] 3358 	pop	bc
                                   3359 ;C:\Users\reina\OneDrive\Documentos\MSXgl\engine/src/print.c:1476: Print_DrawLineV(x + width - 1, y + 1, height - 2);
    000010C7 C5               [11] 3360 	push	bc
    000010C8 33               [ 6] 3361 	inc	sp
    000010C9 6B               [ 4] 3362 	ld	l, e
                                   3363 ;	spillPairReg hl
                                   3364 ;	spillPairReg hl
    000010CA 79               [ 4] 3365 	ld	a, c
    000010CB CDr04r10         [17] 3366 	call	_Print_DrawLineV
                                   3367 ;C:\Users\reina\OneDrive\Documentos\MSXgl\engine/src/print.c:1477: }
    000010CE 33               [ 6] 3368 	inc	sp
    000010CF DD E1            [14] 3369 	pop	ix
    000010D1 E1               [10] 3370 	pop	hl
    000010D2 F1               [10] 3371 	pop	af
    000010D3 E9               [ 4] 3372 	jp	(hl)
                                   3373 	.area _CODE
                                   3374 	.area _INITIALIZER
    00000000                       3375 __xinit__g_PrintInvalid:
    00000000 FF                    3376 	.db #0xff	; 255
    00000001 81                    3377 	.db #0x81	; 129
    00000002 81                    3378 	.db #0x81	; 129
    00000003 81                    3379 	.db #0x81	; 129
    00000004 81                    3380 	.db #0x81	; 129
    00000005 81                    3381 	.db #0x81	; 129
    00000006 81                    3382 	.db #0x81	; 129
    00000007 FF                    3383 	.db #0xff	; 255
                                   3384 	.area _CABS (ABS)
