                                      1 ;--------------------------------------------------------
                                      2 ; File Created by SDCC : free open source ANSI-C Compiler
                                      3 ; Version 4.2.0 #13081 (MINGW64)
                                      4 ;--------------------------------------------------------
                                      5 	.module sprite_fx
                                      6 	.optsdcc -mz80
                                      7 	
                                      8 ;--------------------------------------------------------
                                      9 ; Public variables in this module
                                     10 ;--------------------------------------------------------
                                     11 	.globl _g_SLTSL
                                     12 	.globl _g_GRPACY
                                     13 	.globl _g_GRPACX
                                     14 	.globl _g_LOGOPR
                                     15 	.globl _g_CMASK
                                     16 	.globl _g_CLOC
                                     17 	.globl _g_FNKSTR
                                     18 	.globl _g_ATRBYT
                                     19 	.globl _g_BDRCLR
                                     20 	.globl _g_BAKCLR
                                     21 	.globl _g_FORCLR
                                     22 	.globl _g_CSRX
                                     23 	.globl _g_CSRY
                                     24 	.globl _g_CLIKSW
                                     25 	.globl _g_MLTPAT
                                     26 	.globl _g_MLTATR
                                     27 	.globl _g_MLTCGP
                                     28 	.globl _g_MLTCOL
                                     29 	.globl _g_MLTNAM
                                     30 	.globl _g_GRPPAT
                                     31 	.globl _g_GRPATR
                                     32 	.globl _g_GRPCGP
                                     33 	.globl _g_GRPCOL
                                     34 	.globl _g_GRPNAM
                                     35 	.globl _g_T32PAT
                                     36 	.globl _g_T32ATR
                                     37 	.globl _g_T32CGP
                                     38 	.globl _g_T32COL
                                     39 	.globl _g_T32NAM
                                     40 	.globl _g_TXTPAT
                                     41 	.globl _g_TXTATR
                                     42 	.globl _g_TXTCGP
                                     43 	.globl _g_TXTCOL
                                     44 	.globl _g_TXTNAM
                                     45 	.globl _g_CLMLST
                                     46 	.globl _g_CRTCNT
                                     47 	.globl _g_LINLEN
                                     48 	.globl _g_LINL32
                                     49 	.globl _g_LINL40
                                     50 	.globl _g_SpriteMaskR
                                     51 	.globl _g_SpriteMaskL
                                     52 	.globl _g_BDOS
                                     53 	.globl _g_MASTER
                                     54 	.globl _g_RAMAD3
                                     55 	.globl _g_RAMAD2
                                     56 	.globl _g_RAMAD1
                                     57 	.globl _g_RAMAD0
                                     58 	.globl _g_BREAKV
                                     59 	.globl _g_DISKVE
                                     60 	.globl _g_KANJTABLE
                                     61 	.globl _g_STRSRC
                                     62 	.globl _g_SUBRID
                                     63 	.globl _g_CHAR_16
                                     64 	.globl _g_MSXMID
                                     65 	.globl _g_MSXVER
                                     66 	.globl _g_ROMVersion
                                     67 	.globl _g_BASRVN
                                     68 	.globl _g_VDP_DW
                                     69 	.globl _g_VDP_DR
                                     70 	.globl _g_CGTABL
                                     71 	.globl _g_SVFFFD
                                     72 	.globl _g_RG27SAV
                                     73 	.globl _g_RG26SAV
                                     74 	.globl _g_RG25SAV
                                     75 	.globl _g_SVFFF8
                                     76 	.globl _g_MINROM
                                     77 	.globl _g_RG23SAV
                                     78 	.globl _g_RG22SAV
                                     79 	.globl _g_RG21SAV
                                     80 	.globl _g_RG20SAV
                                     81 	.globl _g_RG19SAV
                                     82 	.globl _g_RG18SAV
                                     83 	.globl _g_RG17SAV
                                     84 	.globl _g_RG16SAV
                                     85 	.globl _g_RG15SAV
                                     86 	.globl _g_RG14SAV
                                     87 	.globl _g_RG13SAV
                                     88 	.globl _g_RG12SAV
                                     89 	.globl _g_RG11SAV
                                     90 	.globl _g_RG10SAV
                                     91 	.globl _g_RG09SAV
                                     92 	.globl _g_RG08SAV
                                     93 	.globl _g_PROCNM
                                     94 	.globl _g_SLTWRK
                                     95 	.globl _g_SLTATR
                                     96 	.globl _g_SLTTBL
                                     97 	.globl _g_EXPTBL
                                     98 	.globl _g_MNROM
                                     99 	.globl _g_DRWANG
                                    100 	.globl _g_DRWSCL
                                    101 	.globl _g_DRWFLG
                                    102 	.globl _g_GYPOS
                                    103 	.globl _g_GXPOS
                                    104 	.globl _g_BRDATR
                                    105 	.globl _g_CASPRV
                                    106 	.globl _g_OLDSCR
                                    107 	.globl _g_SCRMOD
                                    108 	.globl _g_FLBMEM
                                    109 	.globl _g_KANAMD
                                    110 	.globl _g_KANAST
                                    111 	.globl _g_CAPST
                                    112 	.globl _g_CSTYLE
                                    113 	.globl _g_CSRSW
                                    114 	.globl _g_INSFLG
                                    115 	.globl _g_ESCCNT
                                    116 	.globl _g_GRPHED
                                    117 	.globl _g_WINWID
                                    118 	.globl _g_LOWLIM
                                    119 	.globl _g_INTCNT
                                    120 	.globl _g_INTVAL
                                    121 	.globl _g_JIFFY
                                    122 	.globl _g_PADX
                                    123 	.globl _g_PADY
                                    124 	.globl _g_INTFLG
                                    125 	.globl _g_RTYCNT
                                    126 	.globl _g_TRPTBL
                                    127 	.globl _g_HIMEM
                                    128 	.globl _g_BOTTOM
                                    129 	.globl _g_PATWRK
                                    130 	.globl _g_LINWRK
                                    131 	.globl _g_KEYBUF
                                    132 	.globl _g_NEWKEY
                                    133 	.globl _g_OLDKEY
                                    134 	.globl _g_CLIKFL
                                    135 	.globl _g_ONGSBF
                                    136 	.globl _g_FNKFLG
                                    137 	.globl _g_FNKSWI
                                    138 	.globl _g_CODSAV
                                    139 	.globl _g_FSTPOS
                                    140 	.globl _g_LINTTB
                                    141 	.globl _g_BASROM
                                    142 	.globl _g_ENSTOP
                                    143 	.globl _g_VCBC
                                    144 	.globl _g_VCBB
                                    145 	.globl _g_VCBA
                                    146 	.globl _g_PLYCNT
                                    147 	.globl _g_MUSICF
                                    148 	.globl _g_QUEUEN
                                    149 	.globl _g_MCLPTR
                                    150 	.globl _g_MCLLEN
                                    151 	.globl _g_SAVVOL
                                    152 	.globl _g_VOICEN
                                    153 	.globl _g_SAVSP
                                    154 	.globl _g_PRSCNT
                                    155 	.globl _g_LSTMOD
                                    156 	.globl _g_LSTCOM
                                    157 	.globl _g_COMMSK
                                    158 	.globl _g_ESTBLS
                                    159 	.globl _g_FLAGS
                                    160 	.globl _g_ERRORS
                                    161 	.globl _g_DATCNT
                                    162 	.globl _g_DEVNUM
                                    163 	.globl _g_OLDINT
                                    164 	.globl _g_OLDSTT
                                    165 	.globl _g_MEXBIh
                                    166 	.globl _g_RSIQLN
                                    167 	.globl _g_RSFCB
                                    168 	.globl _g_TOCNT
                                    169 	.globl _g_RSTMP
                                    170 	.globl _g_YSAVE
                                    171 	.globl _g_XSAVE
                                    172 	.globl _g_NORUSE
                                    173 	.globl _g_MODE
                                    174 	.globl _g_ROMA
                                    175 	.globl _g_CHRCNT
                                    176 	.globl _g_EXBRSA
                                    177 	.globl _g_AVCSAV
                                    178 	.globl _g_ACPAGE
                                    179 	.globl _g_DPPAGE
                                    180 	.globl _g_RS2IQ
                                    181 	.globl _g_VOICCQ
                                    182 	.globl _g_VOICBQ
                                    183 	.globl _g_VOICAQ
                                    184 	.globl _g_QUEBAK
                                    185 	.globl _g_QUETAB
                                    186 	.globl _g_ASPCT2
                                    187 	.globl _g_ASPCT1
                                    188 	.globl _g_HEADER
                                    189 	.globl _g_HIGH
                                    190 	.globl _g_LOW
                                    191 	.globl _g_CS240
                                    192 	.globl _g_CS120
                                    193 	.globl _g_GETPNT
                                    194 	.globl _g_PUTPNT
                                    195 	.globl _g_REPCNT
                                    196 	.globl _g_SCNCNT
                                    197 	.globl _g_FRCNEW
                                    198 	.globl _g_QUEUES
                                    199 	.globl _g_MINUPD
                                    200 	.globl _g_MAXUPD
                                    201 	.globl _g_TRGFLG
                                    202 	.globl _g_STATFL
                                    203 	.globl _g_RG7SAV
                                    204 	.globl _g_RG6SAV
                                    205 	.globl _g_RG5SAV
                                    206 	.globl _g_RG4SAV
                                    207 	.globl _g_RG3SAV
                                    208 	.globl _g_RG2SAV
                                    209 	.globl _g_RG1SAV
                                    210 	.globl _g_RG0SAV
                                    211 	.globl _g_CNSDFG
                                    212 	.globl _g_USRTAB
                                    213 	.globl _g_CLPRIM
                                    214 	.globl _g_WRPRIM
                                    215 	.globl _g_RDPRIM
                                    216 	.globl _SpriteFX_CropLeft8
                                    217 	.globl _SpriteFX_CropLeft16
                                    218 	.globl _SpriteFX_CropRight8
                                    219 	.globl _SpriteFX_CropRight16
                                    220 	.globl _SpriteFX_CropTop8
                                    221 	.globl _SpriteFX_CropTop16
                                    222 	.globl _SpriteFX_CropBottom8
                                    223 	.globl _SpriteFX_CropBottom16
                                    224 	.globl _SpriteFX_FlipVertical8
                                    225 	.globl _SpriteFX_FlipVertical16
                                    226 	.globl _SpriteFX_FlipHorizontal8
                                    227 	.globl _SpriteFX_FlipHorizontal16
                                    228 	.globl _SpriteFX_Mask8
                                    229 	.globl _SpriteFX_Mask16
                                    230 	.globl _SpriteFX_RotateRight8
                                    231 	.globl _SpriteFX_RotateRight16
                                    232 	.globl _SpriteFX_RotateLeft8
                                    233 	.globl _SpriteFX_RotateLeft16
                                    234 	.globl _SpriteFX_RotateHalfTurn8
                                    235 	.globl _SpriteFX_RotateHalfTurn16
                                    236 ;--------------------------------------------------------
                                    237 ; special function registers
                                    238 ;--------------------------------------------------------
                         000000A8   239 _g_PortPrimarySlot	=	0x00a8
                         000000A9   240 _g_PortReadKeyboard	=	0x00a9
                         000000AA   241 _g_PortAccessKeyboard	=	0x00aa
                         000000AB   242 _g_PortControl	=	0x00ab
                         00000098   243 _g_VDP_DataPort	=	0x0098
                         00000099   244 _g_VDP_RegPort	=	0x0099
                         00000099   245 _g_VDP_AddrPort	=	0x0099
                         00000099   246 _g_VDP_StatPort	=	0x0099
                         0000009A   247 _g_VDP_PalPort	=	0x009a
                         0000009B   248 _g_VDP_IRegPort	=	0x009b
                         000000A0   249 _g_PSG_RegPort	=	0x00a0
                         000000A1   250 _g_PSG_DataPort	=	0x00a1
                         000000A2   251 _g_PSG_StatPort	=	0x00a2
                         00000010   252 _g_PSG_Ext_RegPort	=	0x0010
                         00000011   253 _g_PSG_Ext_DataPort	=	0x0011
                         00000012   254 _g_PSG_Ext_StatPort	=	0x0012
                         0000007C   255 _g_MSXMusic_IndexPort	=	0x007c
                         0000007D   256 _g_MSXMusic_DataPort	=	0x007d
                         000000C0   257 _g_MSXAudio_IndexPort	=	0x00c0
                         000000C1   258 _g_MSXAudio_DataPort	=	0x00c1
                         000000C2   259 _g_MSXAudio_IndexPort2	=	0x00c2
                         000000C3   260 _g_MSXAudio_DataPort2	=	0x00c3
                         000000B4   261 _g_RTC_AddrPort	=	0x00b4
                         000000B5   262 _g_RTC_DataPort	=	0x00b5
                                    263 ;--------------------------------------------------------
                                    264 ; ram data
                                    265 ;--------------------------------------------------------
                                    266 	.area _DATA
                         0000F3AE   267 _g_LINL40	=	0xf3ae
                         0000F3AF   268 _g_LINL32	=	0xf3af
                         0000F3B0   269 _g_LINLEN	=	0xf3b0
                         0000F3B1   270 _g_CRTCNT	=	0xf3b1
                         0000F3B2   271 _g_CLMLST	=	0xf3b2
                         0000F3B3   272 _g_TXTNAM	=	0xf3b3
                         0000F3B5   273 _g_TXTCOL	=	0xf3b5
                         0000F3B7   274 _g_TXTCGP	=	0xf3b7
                         0000F3B9   275 _g_TXTATR	=	0xf3b9
                         0000F3BB   276 _g_TXTPAT	=	0xf3bb
                         0000F3BD   277 _g_T32NAM	=	0xf3bd
                         0000F3BF   278 _g_T32COL	=	0xf3bf
                         0000F3C1   279 _g_T32CGP	=	0xf3c1
                         0000F3C3   280 _g_T32ATR	=	0xf3c3
                         0000F3C5   281 _g_T32PAT	=	0xf3c5
                         0000F3C7   282 _g_GRPNAM	=	0xf3c7
                         0000F3C9   283 _g_GRPCOL	=	0xf3c9
                         0000F3CB   284 _g_GRPCGP	=	0xf3cb
                         0000F3CD   285 _g_GRPATR	=	0xf3cd
                         0000F3CF   286 _g_GRPPAT	=	0xf3cf
                         0000F3D1   287 _g_MLTNAM	=	0xf3d1
                         0000F3D3   288 _g_MLTCOL	=	0xf3d3
                         0000F3D5   289 _g_MLTCGP	=	0xf3d5
                         0000F3D7   290 _g_MLTATR	=	0xf3d7
                         0000F3D9   291 _g_MLTPAT	=	0xf3d9
                         0000F3DB   292 _g_CLIKSW	=	0xf3db
                         0000F3DC   293 _g_CSRY	=	0xf3dc
                         0000F3DD   294 _g_CSRX	=	0xf3dd
                         0000F3E9   295 _g_FORCLR	=	0xf3e9
                         0000F3EA   296 _g_BAKCLR	=	0xf3ea
                         0000F3EB   297 _g_BDRCLR	=	0xf3eb
                         0000F3F2   298 _g_ATRBYT	=	0xf3f2
                         0000F87F   299 _g_FNKSTR	=	0xf87f
                         0000F92A   300 _g_CLOC	=	0xf92a
                         0000F92C   301 _g_CMASK	=	0xf92c
                         0000FB02   302 _g_LOGOPR	=	0xfb02
                         0000FCB7   303 _g_GRPACX	=	0xfcb7
                         0000FCB9   304 _g_GRPACY	=	0xfcb9
                         0000FFFF   305 _g_SLTSL	=	0xffff
                                    306 ;--------------------------------------------------------
                                    307 ; ram data
                                    308 ;--------------------------------------------------------
                                    309 	.area _INITIALIZED
                                    310 ;--------------------------------------------------------
                                    311 ; absolute external ram data
                                    312 ;--------------------------------------------------------
                                    313 	.area _DABS (ABS)
                                    314 ;--------------------------------------------------------
                                    315 ; global & static initialisations
                                    316 ;--------------------------------------------------------
                                    317 	.area _HOME
                                    318 	.area _GSINIT
                                    319 	.area _GSFINAL
                                    320 	.area _GSINIT
                                    321 ;--------------------------------------------------------
                                    322 ; Home
                                    323 ;--------------------------------------------------------
                                    324 	.area _HOME
                                    325 	.area _HOME
                                    326 ;--------------------------------------------------------
                                    327 ; code
                                    328 ;--------------------------------------------------------
                                    329 	.area _CODE
                                    330 ;C:\Users\reina\OneDrive\Documentos\MSXgl\engine/src/sprite_fx.c:59: void SpriteFX_CropLeft8(const u8* src, u8* dest, u8 offset)
                                    331 ;	---------------------------------
                                    332 ; Function SpriteFX_CropLeft8
                                    333 ; ---------------------------------
    00000000                        334 _SpriteFX_CropLeft8::
                                    335 ;C:\Users\reina\OneDrive\Documentos\MSXgl\engine/src/sprite_fx.c:87: __endasm;
    00000000 FD 21 02 00      [14]  336 	ld	iy, #2
    00000004 FD 39            [15]  337 	add	iy, sp
    00000006 FD 4E 00         [19]  338 	ld	c, 0(iy)
    00000009 06 00            [ 7]  339 	ld	b, #0
    0000000B FD 21r20r00      [14]  340 	ld	iy, #_g_SpriteMaskL
    0000000F FD 09            [15]  341 	add	iy, bc
    00000011 FD 4E 00         [19]  342 	ld	c, 0(iy)
    00000014 06 08            [ 7]  343 	ld	b, #8
    00000016                        344 	 loopCropL8:
    00000016 7E               [ 7]  345 	ld	a, (hl)
    00000017 23               [ 6]  346 	inc	hl
    00000018 A1               [ 4]  347 	and	c
    00000019 12               [ 7]  348 	ld	(de), a
    0000001A 13               [ 6]  349 	inc	de
    0000001B 10 F9            [13]  350 	djnz	loopCropL8
                                    351 ;C:\Users\reina\OneDrive\Documentos\MSXgl\engine/src/sprite_fx.c:88: }
    0000001D E1               [10]  352 	pop	hl
    0000001E 33               [ 6]  353 	inc	sp
    0000001F E9               [ 4]  354 	jp	(hl)
                         0000F380   355 _g_RDPRIM	=	0xf380
                         0000F385   356 _g_WRPRIM	=	0xf385
                         0000F38C   357 _g_CLPRIM	=	0xf38c
                         0000F39A   358 _g_USRTAB	=	0xf39a
                         0000F3DE   359 _g_CNSDFG	=	0xf3de
                         0000F3DF   360 _g_RG0SAV	=	0xf3df
                         0000F3E0   361 _g_RG1SAV	=	0xf3e0
                         0000F3E1   362 _g_RG2SAV	=	0xf3e1
                         0000F3E2   363 _g_RG3SAV	=	0xf3e2
                         0000F3E3   364 _g_RG4SAV	=	0xf3e3
                         0000F3E4   365 _g_RG5SAV	=	0xf3e4
                         0000F3E5   366 _g_RG6SAV	=	0xf3e5
                         0000F3E6   367 _g_RG7SAV	=	0xf3e6
                         0000F3E7   368 _g_STATFL	=	0xf3e7
                         0000F3E8   369 _g_TRGFLG	=	0xf3e8
                         0000F3EC   370 _g_MAXUPD	=	0xf3ec
                         0000F3EF   371 _g_MINUPD	=	0xf3ef
                         0000F3F3   372 _g_QUEUES	=	0xf3f3
                         0000F3F5   373 _g_FRCNEW	=	0xf3f5
                         0000F3F6   374 _g_SCNCNT	=	0xf3f6
                         0000F3F7   375 _g_REPCNT	=	0xf3f7
                         0000F3F8   376 _g_PUTPNT	=	0xf3f8
                         0000F3FA   377 _g_GETPNT	=	0xf3fa
                         0000F3FC   378 _g_CS120	=	0xf3fc
                         0000F401   379 _g_CS240	=	0xf401
                         0000F406   380 _g_LOW	=	0xf406
                         0000F408   381 _g_HIGH	=	0xf408
                         0000F40A   382 _g_HEADER	=	0xf40a
                         0000F40B   383 _g_ASPCT1	=	0xf40b
                         0000F40D   384 _g_ASPCT2	=	0xf40d
                         0000F959   385 _g_QUETAB	=	0xf959
                         0000F971   386 _g_QUEBAK	=	0xf971
                         0000F975   387 _g_VOICAQ	=	0xf975
                         0000F9F5   388 _g_VOICBQ	=	0xf9f5
                         0000FA75   389 _g_VOICCQ	=	0xfa75
                         0000FAF5   390 _g_RS2IQ	=	0xfaf5
                         0000FAF5   391 _g_DPPAGE	=	0xfaf5
                         0000FAF6   392 _g_ACPAGE	=	0xfaf6
                         0000FAF7   393 _g_AVCSAV	=	0xfaf7
                         0000FAF8   394 _g_EXBRSA	=	0xfaf8
                         0000FAF9   395 _g_CHRCNT	=	0xfaf9
                         0000FAFA   396 _g_ROMA	=	0xfafa
                         0000FAFC   397 _g_MODE	=	0xfafc
                         0000FAFD   398 _g_NORUSE	=	0xfafd
                         0000FAFE   399 _g_XSAVE	=	0xfafe
                         0000FB00   400 _g_YSAVE	=	0xfb00
                         0000FB03   401 _g_RSTMP	=	0xfb03
                         0000FB03   402 _g_TOCNT	=	0xfb03
                         0000FB04   403 _g_RSFCB	=	0xfb04
                         0000FB06   404 _g_RSIQLN	=	0xfb06
                         0000FB07   405 _g_MEXBIh	=	0xfb07
                         0000FB0C   406 _g_OLDSTT	=	0xfb0c
                         0000FB0C   407 _g_OLDINT	=	0xfb0c
                         0000FB16   408 _g_DEVNUM	=	0xfb16
                         0000FB17   409 _g_DATCNT	=	0xfb17
                         0000FB1A   410 _g_ERRORS	=	0xfb1a
                         0000FB1B   411 _g_FLAGS	=	0xfb1b
                         0000FB1C   412 _g_ESTBLS	=	0xfb1c
                         0000FB1D   413 _g_COMMSK	=	0xfb1d
                         0000FB1E   414 _g_LSTCOM	=	0xfb1e
                         0000FB1F   415 _g_LSTMOD	=	0xfb1f
                         0000FB35   416 _g_PRSCNT	=	0xfb35
                         0000FB36   417 _g_SAVSP	=	0xfb36
                         0000FB38   418 _g_VOICEN	=	0xfb38
                         0000FB39   419 _g_SAVVOL	=	0xfb39
                         0000FB3B   420 _g_MCLLEN	=	0xfb3b
                         0000FB3C   421 _g_MCLPTR	=	0xfb3c
                         0000FB3E   422 _g_QUEUEN	=	0xfb3e
                         0000FB3F   423 _g_MUSICF	=	0xfb3f
                         0000FB40   424 _g_PLYCNT	=	0xfb40
                         0000FB41   425 _g_VCBA	=	0xfb41
                         0000FB66   426 _g_VCBB	=	0xfb66
                         0000FB8B   427 _g_VCBC	=	0xfb8b
                         0000FBB0   428 _g_ENSTOP	=	0xfbb0
                         0000FBB1   429 _g_BASROM	=	0xfbb1
                         0000FBB2   430 _g_LINTTB	=	0xfbb2
                         0000FBCA   431 _g_FSTPOS	=	0xfbca
                         0000FBCC   432 _g_CODSAV	=	0xfbcc
                         0000FBCD   433 _g_FNKSWI	=	0xfbcd
                         0000FBCE   434 _g_FNKFLG	=	0xfbce
                         0000FBD8   435 _g_ONGSBF	=	0xfbd8
                         0000FBD9   436 _g_CLIKFL	=	0xfbd9
                         0000FBDA   437 _g_OLDKEY	=	0xfbda
                         0000FBE5   438 _g_NEWKEY	=	0xfbe5
                         0000FBF0   439 _g_KEYBUF	=	0xfbf0
                         0000FC18   440 _g_LINWRK	=	0xfc18
                         0000FC40   441 _g_PATWRK	=	0xfc40
                         0000FC48   442 _g_BOTTOM	=	0xfc48
                         0000FC4A   443 _g_HIMEM	=	0xfc4a
                         0000FC4C   444 _g_TRPTBL	=	0xfc4c
                         0000FC9A   445 _g_RTYCNT	=	0xfc9a
                         0000FC9B   446 _g_INTFLG	=	0xfc9b
                         0000FC9C   447 _g_PADY	=	0xfc9c
                         0000FC9D   448 _g_PADX	=	0xfc9d
                         0000FC9E   449 _g_JIFFY	=	0xfc9e
                         0000FCA0   450 _g_INTVAL	=	0xfca0
                         0000FCA2   451 _g_INTCNT	=	0xfca2
                         0000FCA4   452 _g_LOWLIM	=	0xfca4
                         0000FCA5   453 _g_WINWID	=	0xfca5
                         0000FCA6   454 _g_GRPHED	=	0xfca6
                         0000FCA7   455 _g_ESCCNT	=	0xfca7
                         0000FCA8   456 _g_INSFLG	=	0xfca8
                         0000FCA9   457 _g_CSRSW	=	0xfca9
                         0000FCAA   458 _g_CSTYLE	=	0xfcaa
                         0000FCAB   459 _g_CAPST	=	0xfcab
                         0000FCAC   460 _g_KANAST	=	0xfcac
                         0000FCAD   461 _g_KANAMD	=	0xfcad
                         0000FCAE   462 _g_FLBMEM	=	0xfcae
                         0000FCAF   463 _g_SCRMOD	=	0xfcaf
                         0000FCB0   464 _g_OLDSCR	=	0xfcb0
                         0000FCB1   465 _g_CASPRV	=	0xfcb1
                         0000FCB2   466 _g_BRDATR	=	0xfcb2
                         0000FCB3   467 _g_GXPOS	=	0xfcb3
                         0000FCB5   468 _g_GYPOS	=	0xfcb5
                         0000FCBB   469 _g_DRWFLG	=	0xfcbb
                         0000FCBC   470 _g_DRWSCL	=	0xfcbc
                         0000FCBD   471 _g_DRWANG	=	0xfcbd
                         0000FCC1   472 _g_MNROM	=	0xfcc1
                         0000FCC1   473 _g_EXPTBL	=	0xfcc1
                         0000FCC5   474 _g_SLTTBL	=	0xfcc5
                         0000FCC9   475 _g_SLTATR	=	0xfcc9
                         0000FD09   476 _g_SLTWRK	=	0xfd09
                         0000FD89   477 _g_PROCNM	=	0xfd89
                         0000FFE7   478 _g_RG08SAV	=	0xffe7
                         0000FFE8   479 _g_RG09SAV	=	0xffe8
                         0000FFE9   480 _g_RG10SAV	=	0xffe9
                         0000FFEA   481 _g_RG11SAV	=	0xffea
                         0000FFEB   482 _g_RG12SAV	=	0xffeb
                         0000FFEC   483 _g_RG13SAV	=	0xffec
                         0000FFED   484 _g_RG14SAV	=	0xffed
                         0000FFEE   485 _g_RG15SAV	=	0xffee
                         0000FFEF   486 _g_RG16SAV	=	0xffef
                         0000FFF0   487 _g_RG17SAV	=	0xfff0
                         0000FFF1   488 _g_RG18SAV	=	0xfff1
                         0000FFF2   489 _g_RG19SAV	=	0xfff2
                         0000FFF3   490 _g_RG20SAV	=	0xfff3
                         0000FFF4   491 _g_RG21SAV	=	0xfff4
                         0000FFF5   492 _g_RG22SAV	=	0xfff5
                         0000FFF6   493 _g_RG23SAV	=	0xfff6
                         0000FFF7   494 _g_MINROM	=	0xfff7
                         0000FFF8   495 _g_SVFFF8	=	0xfff8
                         0000FFFA   496 _g_RG25SAV	=	0xfffa
                         0000FFFB   497 _g_RG26SAV	=	0xfffb
                         0000FFFC   498 _g_RG27SAV	=	0xfffc
                         0000FFFD   499 _g_SVFFFD	=	0xfffd
                         00000004   500 _g_CGTABL	=	0x0004
                         00000006   501 _g_VDP_DR	=	0x0006
                         00000007   502 _g_VDP_DW	=	0x0007
                         0000002B   503 _g_BASRVN	=	0x002b
                         0000002B   504 _g_ROMVersion	=	0x002b
                         0000002D   505 _g_MSXVER	=	0x002d
                         0000002E   506 _g_MSXMID	=	0x002e
                         00000034   507 _g_CHAR_16	=	0x0034
                         00000000   508 _g_SUBRID	=	0x0000
                         00000002   509 _g_STRSRC	=	0x0002
                         0000F30F   510 _g_KANJTABLE	=	0xf30f
                         0000F323   511 _g_DISKVE	=	0xf323
                         0000F325   512 _g_BREAKV	=	0xf325
                         0000F341   513 _g_RAMAD0	=	0xf341
                         0000F342   514 _g_RAMAD1	=	0xf342
                         0000F343   515 _g_RAMAD2	=	0xf343
                         0000F344   516 _g_RAMAD3	=	0xf344
                         0000F348   517 _g_MASTER	=	0xf348
                         0000F37D   518 _g_BDOS	=	0xf37d
    00000020                        519 _g_SpriteMaskL:
    00000020 7F                     520 	.db #0x7f	; 127
    00000021 3F                     521 	.db #0x3f	; 63
    00000022 1F                     522 	.db #0x1f	; 31
    00000023 0F                     523 	.db #0x0f	; 15
    00000024 07                     524 	.db #0x07	; 7
    00000025 03                     525 	.db #0x03	; 3
    00000026 01                     526 	.db #0x01	; 1
    00000027 00                     527 	.db #0x00	; 0
    00000028                        528 _g_SpriteMaskR:
    00000028 FE                     529 	.db #0xfe	; 254
    00000029 FC                     530 	.db #0xfc	; 252
    0000002A F8                     531 	.db #0xf8	; 248
    0000002B F0                     532 	.db #0xf0	; 240
    0000002C E0                     533 	.db #0xe0	; 224
    0000002D C0                     534 	.db #0xc0	; 192
    0000002E 80                     535 	.db #0x80	; 128
    0000002F 00                     536 	.db #0x00	; 0
                                    537 ;C:\Users\reina\OneDrive\Documentos\MSXgl\engine/src/sprite_fx.c:94: void SpriteFX_CropLeft16(const u8* src, u8* dest, u8 offset)
                                    538 ;	---------------------------------
                                    539 ; Function SpriteFX_CropLeft16
                                    540 ; ---------------------------------
    00000030                        541 _SpriteFX_CropLeft16::
                                    542 ;C:\Users\reina\OneDrive\Documentos\MSXgl\engine/src/sprite_fx.c:171: __endasm;
    00000030 FD 21 02 00      [14]  543 	ld	iy, #2
    00000034 FD 39            [15]  544 	add	iy, sp
    00000036 FD 7E 00         [19]  545 	ld	a, 0(iy)
    00000039 FE 08            [ 7]  546 	cp	#8
    0000003B D2r5Br00         [10]  547 	jp	nc, greaterCropL16
    0000003E 06 00            [ 7]  548 	ld	b, #0
    00000040 4F               [ 4]  549 	ld	c, a
    00000041 FD 21r20r00      [14]  550 	ld	iy, #_g_SpriteMaskL
    00000045 FD 09            [15]  551 	add	iy, bc
    00000047 FD 4E 00         [19]  552 	ld	c, 0(iy)
    0000004A 06 10            [ 7]  553 	ld	b, #16
    0000004C                        554 	 loopCropL16_1:
    0000004C 7E               [ 7]  555 	ld	a, (hl)
    0000004D 23               [ 6]  556 	inc	hl
    0000004E A1               [ 4]  557 	and	c
    0000004F 12               [ 7]  558 	ld	(de), a
    00000050 13               [ 6]  559 	inc	de
    00000051 10 F9            [13]  560 	djnz	loopCropL16_1
    00000053 01 10 00         [10]  561 	ld	bc, #16
    00000056 ED B0            [21]  562 	ldir
    00000058 C3r78r00         [10]  563 	jp	endCropL16
    0000005B                        564 	 greaterCropL16:
    0000005B D6 08            [ 7]  565 	sub	#8
    0000005D 4F               [ 4]  566 	ld	c, a
    0000005E AF               [ 4]  567 	xor	a
    0000005F 06 10            [ 7]  568 	ld	b, #16
    00000061                        569 	 loopCropL16_2:
    00000061 23               [ 6]  570 	inc	hl
    00000062 12               [ 7]  571 	ld	(de), a
    00000063 13               [ 6]  572 	inc	de
    00000064 10 FB            [13]  573 	djnz	loopCropL16_2
    00000066 FD 21r20r00      [14]  574 	ld	iy, #_g_SpriteMaskL
    0000006A FD 09            [15]  575 	add	iy, bc
    0000006C FD 4E 00         [19]  576 	ld	c, 0(iy)
    0000006F 06 10            [ 7]  577 	ld	b, #16
    00000071                        578 	 loopCropL16_3:
    00000071 7E               [ 7]  579 	ld	a, (hl)
    00000072 23               [ 6]  580 	inc	hl
    00000073 A1               [ 4]  581 	and	c
    00000074 12               [ 7]  582 	ld	(de), a
    00000075 13               [ 6]  583 	inc	de
    00000076 10 F9            [13]  584 	djnz	loopCropL16_3
    00000078                        585 	 endCropL16:
                                    586 ;C:\Users\reina\OneDrive\Documentos\MSXgl\engine/src/sprite_fx.c:172: }
    00000078 E1               [10]  587 	pop	hl
    00000079 33               [ 6]  588 	inc	sp
    0000007A E9               [ 4]  589 	jp	(hl)
                                    590 ;C:\Users\reina\OneDrive\Documentos\MSXgl\engine/src/sprite_fx.c:178: void SpriteFX_CropRight8(const u8* src, u8* dest, u8 offset)
                                    591 ;	---------------------------------
                                    592 ; Function SpriteFX_CropRight8
                                    593 ; ---------------------------------
    0000007B                        594 _SpriteFX_CropRight8::
                                    595 ;C:\Users\reina\OneDrive\Documentos\MSXgl\engine/src/sprite_fx.c:206: __endasm;
    0000007B FD 21 02 00      [14]  596 	ld	iy, #2
    0000007F FD 39            [15]  597 	add	iy, sp
    00000081 FD 4E 00         [19]  598 	ld	c, 0(iy)
    00000084 06 00            [ 7]  599 	ld	b, #0
    00000086 FD 21r28r00      [14]  600 	ld	iy, #_g_SpriteMaskR
    0000008A FD 09            [15]  601 	add	iy, bc
    0000008C FD 4E 00         [19]  602 	ld	c, 0(iy)
    0000008F 06 08            [ 7]  603 	ld	b, #8
    00000091                        604 	 loopCropR8:
    00000091 7E               [ 7]  605 	ld	a, (hl)
    00000092 23               [ 6]  606 	inc	hl
    00000093 A1               [ 4]  607 	and	c
    00000094 12               [ 7]  608 	ld	(de), a
    00000095 13               [ 6]  609 	inc	de
    00000096 10 F9            [13]  610 	djnz	loopCropR8
                                    611 ;C:\Users\reina\OneDrive\Documentos\MSXgl\engine/src/sprite_fx.c:207: }
    00000098 E1               [10]  612 	pop	hl
    00000099 33               [ 6]  613 	inc	sp
    0000009A E9               [ 4]  614 	jp	(hl)
                                    615 ;C:\Users\reina\OneDrive\Documentos\MSXgl\engine/src/sprite_fx.c:213: void SpriteFX_CropRight16(const u8* src, u8* dest, u8 offset)
                                    616 ;	---------------------------------
                                    617 ; Function SpriteFX_CropRight16
                                    618 ; ---------------------------------
    0000009B                        619 _SpriteFX_CropRight16::
                                    620 ;C:\Users\reina\OneDrive\Documentos\MSXgl\engine/src/sprite_fx.c:286: __endasm;
    0000009B FD 21 02 00      [14]  621 	ld	iy, #2
    0000009F FD 39            [15]  622 	add	iy, sp
    000000A1 FD 7E 00         [19]  623 	ld	a, 0(iy)
    000000A4 FE 08            [ 7]  624 	cp	#8
    000000A6 D2rC4r00         [10]  625 	jp	nc, greaterCropR16
    000000A9 01 10 00         [10]  626 	ld	bc, #16
    000000AC ED B0            [21]  627 	ldir
    000000AE 4F               [ 4]  628 	ld	c, a
    000000AF FD 21r28r00      [14]  629 	ld	iy, #_g_SpriteMaskR
    000000B3 FD 09            [15]  630 	add	iy, bc
    000000B5 FD 4E 00         [19]  631 	ld	c, 0(iy)
    000000B8 06 10            [ 7]  632 	ld	b, #16
    000000BA                        633 	 loopCropR16_1:
    000000BA 7E               [ 7]  634 	ld	a, (hl)
    000000BB 23               [ 6]  635 	inc	hl
    000000BC A1               [ 4]  636 	and	c
    000000BD 12               [ 7]  637 	ld	(de), a
    000000BE 13               [ 6]  638 	inc	de
    000000BF 10 F9            [13]  639 	djnz	loopCropR16_1
    000000C1 C3rE2r00         [10]  640 	jp	endCropR16
    000000C4                        641 	 greaterCropR16:
    000000C4 D6 08            [ 7]  642 	sub	#8
    000000C6 4F               [ 4]  643 	ld	c, a
    000000C7 06 00            [ 7]  644 	ld	b, #0
    000000C9 FD 21r28r00      [14]  645 	ld	iy, #_g_SpriteMaskR
    000000CD FD 09            [15]  646 	add	iy, bc
    000000CF FD 4E 00         [19]  647 	ld	c, 0(iy)
    000000D2 06 10            [ 7]  648 	ld	b, #16
    000000D4                        649 	 loopCropR16_2:
    000000D4 7E               [ 7]  650 	ld	a, (hl)
    000000D5 23               [ 6]  651 	inc	hl
    000000D6 A1               [ 4]  652 	and	c
    000000D7 12               [ 7]  653 	ld	(de), a
    000000D8 13               [ 6]  654 	inc	de
    000000D9 10 F9            [13]  655 	djnz	loopCropR16_2
    000000DB AF               [ 4]  656 	xor	a
    000000DC 06 10            [ 7]  657 	ld	b, #16
    000000DE                        658 	 loopCropR16_3:
    000000DE 12               [ 7]  659 	ld	(de), a
    000000DF 13               [ 6]  660 	inc	de
    000000E0 10 FC            [13]  661 	djnz	loopCropR16_3
    000000E2                        662 	 endCropR16:
                                    663 ;C:\Users\reina\OneDrive\Documentos\MSXgl\engine/src/sprite_fx.c:287: }
    000000E2 E1               [10]  664 	pop	hl
    000000E3 33               [ 6]  665 	inc	sp
    000000E4 E9               [ 4]  666 	jp	(hl)
                                    667 ;C:\Users\reina\OneDrive\Documentos\MSXgl\engine/src/sprite_fx.c:293: void SpriteFX_CropTop8(const u8* src, u8* dest, u8 offset)
                                    668 ;	---------------------------------
                                    669 ; Function SpriteFX_CropTop8
                                    670 ; ---------------------------------
    000000E5                        671 _SpriteFX_CropTop8::
                                    672 ;C:\Users\reina\OneDrive\Documentos\MSXgl\engine/src/sprite_fx.c:330: __endasm;
    000000E5 FD 21 02 00      [14]  673 	ld	iy, #2
    000000E9 FD 39            [15]  674 	add	iy, sp
    000000EB FD 4E 00         [19]  675 	ld	c, 0(iy)
    000000EE 0C               [ 4]  676 	inc	c
    000000EF AF               [ 4]  677 	xor	a
    000000F0 41               [ 4]  678 	ld	b, c
    000000F1                        679 	 loopCropT8:
    000000F1 12               [ 7]  680 	ld	(de), a
    000000F2 23               [ 6]  681 	inc	hl
    000000F3 13               [ 6]  682 	inc	de
    000000F4 10 FB            [13]  683 	djnz	loopCropT8
    000000F6 79               [ 4]  684 	ld	a, c
    000000F7 ED 44            [ 8]  685 	neg
    000000F9 C6 08            [ 7]  686 	add	a, #8
    000000FB CAr01r01         [10]  687 	jp	z, skipCropT8
    000000FE 4F               [ 4]  688 	ld	c, a
    000000FF ED B0            [21]  689 	ldir
    00000101                        690 	 skipCropT8:
                                    691 ;C:\Users\reina\OneDrive\Documentos\MSXgl\engine/src/sprite_fx.c:331: }
    00000101 E1               [10]  692 	pop	hl
    00000102 33               [ 6]  693 	inc	sp
    00000103 E9               [ 4]  694 	jp	(hl)
                                    695 ;C:\Users\reina\OneDrive\Documentos\MSXgl\engine/src/sprite_fx.c:337: void SpriteFX_CropTop16(const u8* src, u8* dest, u8 offset) // can be optimized?
                                    696 ;	---------------------------------
                                    697 ; Function SpriteFX_CropTop16
                                    698 ; ---------------------------------
    00000104                        699 _SpriteFX_CropTop16::
                                    700 ;C:\Users\reina\OneDrive\Documentos\MSXgl\engine/src/sprite_fx.c:400: __endasm;
    00000104 FD 21 02 00      [14]  701 	ld	iy, #2
    00000108 FD 39            [15]  702 	add	iy, sp
    0000010A FD 7E 00         [19]  703 	ld	a, 0(iy)
    0000010D 3C               [ 4]  704 	inc	a
    0000010E FD 6F                  705 	.db	0xFD, 0x6F
    00000110 47               [ 4]  706 	ld	b, a
    00000111 AF               [ 4]  707 	xor	a
    00000112                        708 	 loopCropT16_1:
    00000112 23               [ 6]  709 	inc	hl
    00000113 12               [ 7]  710 	ld	(de), a
    00000114 13               [ 6]  711 	inc	de
    00000115 10 FB            [13]  712 	djnz	loopCropT16_1
    00000117 FD 7D                  713 	.db	0xFD, 0x7D
    00000119 ED 44            [ 8]  714 	neg
    0000011B C6 10            [ 7]  715 	add	a, #16
    0000011D CAr23r01         [10]  716 	jp	z, skipCropT16_1
    00000120 4F               [ 4]  717 	ld	c, a
    00000121 ED B0            [21]  718 	ldir
    00000123                        719 	 skipCropT16_1:
    00000123 FD 7D                  720 	.db	0xFD, 0x7D
    00000125 47               [ 4]  721 	ld	b, a
    00000126 AF               [ 4]  722 	xor	a
    00000127                        723 	 loopCropT16_2:
    00000127 23               [ 6]  724 	inc	hl
    00000128 12               [ 7]  725 	ld	(de), a
    00000129 13               [ 6]  726 	inc	de
    0000012A 10 FB            [13]  727 	djnz	loopCropT16_2
    0000012C FD 7D                  728 	.db	0xFD, 0x7D
    0000012E ED 44            [ 8]  729 	neg
    00000130 C6 10            [ 7]  730 	add	a, #16
    00000132 CAr38r01         [10]  731 	jp	z, skipCropT16_2
    00000135 4F               [ 4]  732 	ld	c, a
    00000136 ED B0            [21]  733 	ldir
    00000138                        734 	 skipCropT16_2:
                                    735 ;C:\Users\reina\OneDrive\Documentos\MSXgl\engine/src/sprite_fx.c:401: }
    00000138 E1               [10]  736 	pop	hl
    00000139 33               [ 6]  737 	inc	sp
    0000013A E9               [ 4]  738 	jp	(hl)
                                    739 ;C:\Users\reina\OneDrive\Documentos\MSXgl\engine/src/sprite_fx.c:407: void SpriteFX_CropBottom8(const u8* src, u8* dest, u8 offset)
                                    740 ;	---------------------------------
                                    741 ; Function SpriteFX_CropBottom8
                                    742 ; ---------------------------------
    0000013B                        743 _SpriteFX_CropBottom8::
                                    744 ;C:\Users\reina\OneDrive\Documentos\MSXgl\engine/src/sprite_fx.c:440: __endasm;		
    0000013B FD 21 02 00      [14]  745 	ld	iy, #2
    0000013F FD 39            [15]  746 	add	iy, sp
    00000141 FD 7E 00         [19]  747 	ld	a, 0(iy)
    00000144 ED 44            [ 8]  748 	neg
    00000146 C6 07            [ 7]  749 	add	#7
    00000148 CAr52r01         [10]  750 	jp	z, skipCropB8
    0000014B 4F               [ 4]  751 	ld	c, a
    0000014C 06 00            [ 7]  752 	ld	b, #0
    0000014E ED B0            [21]  753 	ldir
    00000150 ED 44            [ 8]  754 	neg
    00000152                        755 	 skipCropB8:
    00000152 C6 08            [ 7]  756 	add	a, #8
    00000154 47               [ 4]  757 	ld	b, a
    00000155 AF               [ 4]  758 	xor	a
    00000156                        759 	 loopCropB8:
    00000156 12               [ 7]  760 	ld	(de), a
    00000157 13               [ 6]  761 	inc	de
    00000158 10 FC            [13]  762 	djnz	loopCropB8
                                    763 ;C:\Users\reina\OneDrive\Documentos\MSXgl\engine/src/sprite_fx.c:441: }
    0000015A E1               [10]  764 	pop	hl
    0000015B 33               [ 6]  765 	inc	sp
    0000015C E9               [ 4]  766 	jp	(hl)
                                    767 ;C:\Users\reina\OneDrive\Documentos\MSXgl\engine/src/sprite_fx.c:447: void SpriteFX_CropBottom16(const u8* src, u8* dest, u8 offset)
                                    768 ;	---------------------------------
                                    769 ; Function SpriteFX_CropBottom16
                                    770 ; ---------------------------------
    0000015D                        771 _SpriteFX_CropBottom16::
                                    772 ;C:\Users\reina\OneDrive\Documentos\MSXgl\engine/src/sprite_fx.c:506: __endasm;
    0000015D FD 21 02 00      [14]  773 	ld	iy, #2
    00000161 FD 39            [15]  774 	add	iy, sp
    00000163 FD 7E 00         [19]  775 	ld	a, 0(iy)
    00000166 ED 44            [ 8]  776 	neg
    00000168 C6 0F            [ 7]  777 	add	#15
    0000016A FD 6F                  778 	.db	0xFD, 0x6F
    0000016C CAr76r01         [10]  779 	jp	z, skipCropB16_1
    0000016F 4F               [ 4]  780 	ld	c, a
    00000170 06 00            [ 7]  781 	ld	b, #0
    00000172 ED B0            [21]  782 	ldir
    00000174 ED 44            [ 8]  783 	neg
    00000176                        784 	 skipCropB16_1:
    00000176 C6 10            [ 7]  785 	add	a, #16
    00000178 47               [ 4]  786 	ld	b, a
    00000179 AF               [ 4]  787 	xor	a
    0000017A                        788 	 loopCropB16_1:
    0000017A 23               [ 6]  789 	inc	hl
    0000017B 12               [ 7]  790 	ld	(de), a
    0000017C 13               [ 6]  791 	inc	de
    0000017D 10 FB            [13]  792 	djnz	loopCropB16_1
    0000017F FD 7D                  793 	.db	0xFD, 0x7D
    00000181 B7               [ 4]  794 	or	a
    00000182 CAr8Ar01         [10]  795 	jp	z, skipCropB16_2
    00000185 4F               [ 4]  796 	ld	c, a
    00000186 ED B0            [21]  797 	ldir
    00000188 ED 44            [ 8]  798 	neg
    0000018A                        799 	 skipCropB16_2:
    0000018A C6 10            [ 7]  800 	add	a, #16
    0000018C 47               [ 4]  801 	ld	b, a
    0000018D AF               [ 4]  802 	xor	a
    0000018E                        803 	 loopCropB16_2:
    0000018E 12               [ 7]  804 	ld	(de), a
    0000018F 13               [ 6]  805 	inc	de
    00000190 10 FC            [13]  806 	djnz	loopCropB16_2
                                    807 ;C:\Users\reina\OneDrive\Documentos\MSXgl\engine/src/sprite_fx.c:507: }
    00000192 E1               [10]  808 	pop	hl
    00000193 33               [ 6]  809 	inc	sp
    00000194 E9               [ 4]  810 	jp	(hl)
                                    811 ;C:\Users\reina\OneDrive\Documentos\MSXgl\engine/src/sprite_fx.c:520: void SpriteFX_FlipVertical8(const u8* src, u8* dest) __PRESERVES(iyl, iyh)
                                    812 ;	---------------------------------
                                    813 ; Function SpriteFX_FlipVertical8
                                    814 ; ---------------------------------
    00000195                        815 _SpriteFX_FlipVertical8::
                                    816 ;C:\Users\reina\OneDrive\Documentos\MSXgl\engine/src/sprite_fx.c:535: __endasm;
    00000195 01 07 00         [10]  817 	ld	bc, #7
    00000198 09               [11]  818 	add	hl, bc
    00000199 06 08            [ 7]  819 	ld	b, #8
    0000019B                        820 	 flipLoopV:
    0000019B 7E               [ 7]  821 	ld	a, (hl)
    0000019C 2B               [ 6]  822 	dec	hl
    0000019D 12               [ 7]  823 	ld	(de), a
    0000019E 13               [ 6]  824 	inc	de
    0000019F 10 FA            [13]  825 	djnz	flipLoopV
                                    826 ;C:\Users\reina\OneDrive\Documentos\MSXgl\engine/src/sprite_fx.c:536: }
    000001A1 C9               [10]  827 	ret
                                    828 ;C:\Users\reina\OneDrive\Documentos\MSXgl\engine/src/sprite_fx.c:542: void SpriteFX_FlipVertical16(const u8* src, u8* dest) __PRESERVES(iyl, iyh)
                                    829 ;	---------------------------------
                                    830 ; Function SpriteFX_FlipVertical16
                                    831 ; ---------------------------------
    000001A2                        832 _SpriteFX_FlipVertical16::
                                    833 ;C:\Users\reina\OneDrive\Documentos\MSXgl\engine/src/sprite_fx.c:568: __endasm;
    000001A2 01 0F 00         [10]  834 	ld	bc, #15
    000001A5 09               [11]  835 	add	hl, bc
    000001A6 06 10            [ 7]  836 	ld	b, #16
    000001A8                        837 	 flipLoopV1:
    000001A8 7E               [ 7]  838 	ld	a, (hl)
    000001A9 2B               [ 6]  839 	dec	hl
    000001AA 12               [ 7]  840 	ld	(de), a
    000001AB 13               [ 6]  841 	inc	de
    000001AC 10 FA            [13]  842 	djnz	flipLoopV1
    000001AE 0E 20            [ 7]  843 	ld	c, #32
    000001B0 09               [11]  844 	add	hl, bc
    000001B1 06 10            [ 7]  845 	ld	b, #16
    000001B3                        846 	 flipLoopV2:
    000001B3 7E               [ 7]  847 	ld	a, (hl)
    000001B4 2B               [ 6]  848 	dec	hl
    000001B5 12               [ 7]  849 	ld	(de), a
    000001B6 13               [ 6]  850 	inc	de
    000001B7 10 FA            [13]  851 	djnz	flipLoopV2
                                    852 ;C:\Users\reina\OneDrive\Documentos\MSXgl\engine/src/sprite_fx.c:569: }
    000001B9 C9               [10]  853 	ret
                                    854 ;C:\Users\reina\OneDrive\Documentos\MSXgl\engine/src/sprite_fx.c:575: void SpriteFX_FlipHorizontal8(const u8* src, u8* dest) __PRESERVES(iyl, iyh)
                                    855 ;	---------------------------------
                                    856 ; Function SpriteFX_FlipHorizontal8
                                    857 ; ---------------------------------
    000001BA                        858 _SpriteFX_FlipHorizontal8::
                                    859 ;C:\Users\reina\OneDrive\Documentos\MSXgl\engine/src/sprite_fx.c:607: __endasm;
    000001BA 06 08            [ 7]  860 	ld	b, #8
    000001BC                        861 	 flipLoopH:
    000001BC 7E               [ 7]  862 	ld	a, (hl)
    000001BD 23               [ 6]  863 	inc	hl
    000001BE 4F               [ 4]  864 	ld	c, a
    000001BF 07               [ 4]  865 	rlca
    000001C0 07               [ 4]  866 	rlca
    000001C1 A9               [ 4]  867 	xor	c
    000001C2 E6 AA            [ 7]  868 	and	#0xAA
    000001C4 A9               [ 4]  869 	xor	c
    000001C5 4F               [ 4]  870 	ld	c, a
    000001C6 07               [ 4]  871 	rlca
    000001C7 07               [ 4]  872 	rlca
    000001C8 07               [ 4]  873 	rlca
    000001C9 CB 09            [ 8]  874 	rrc	c
    000001CB A9               [ 4]  875 	xor	c
    000001CC E6 66            [ 7]  876 	and	#0x66
    000001CE A9               [ 4]  877 	xor	c
    000001CF 12               [ 7]  878 	ld	(de), a
    000001D0 13               [ 6]  879 	inc	de
    000001D1 10 E9            [13]  880 	djnz	flipLoopH
                                    881 ;C:\Users\reina\OneDrive\Documentos\MSXgl\engine/src/sprite_fx.c:608: }
    000001D3 C9               [10]  882 	ret
                                    883 ;C:\Users\reina\OneDrive\Documentos\MSXgl\engine/src/sprite_fx.c:614: void SpriteFX_FlipHorizontal16(const u8* src, u8* dest) __PRESERVES(iyl, iyh)
                                    884 ;	---------------------------------
                                    885 ; Function SpriteFX_FlipHorizontal16
                                    886 ; ---------------------------------
    000001D4                        887 _SpriteFX_FlipHorizontal16::
                                    888 ;C:\Users\reina\OneDrive\Documentos\MSXgl\engine/src/sprite_fx.c:669: __endasm;
    000001D4 01 10 00         [10]  889 	ld	bc, #16
    000001D7 09               [11]  890 	add	hl, bc
    000001D8 06 10            [ 7]  891 	ld	b, #16
    000001DA                        892 	 flipLoopH1:
    000001DA 7E               [ 7]  893 	ld	a, (hl)
    000001DB 23               [ 6]  894 	inc	hl
    000001DC 4F               [ 4]  895 	ld	c, a
    000001DD 07               [ 4]  896 	rlca
    000001DE 07               [ 4]  897 	rlca
    000001DF A9               [ 4]  898 	xor	c
    000001E0 E6 AA            [ 7]  899 	and	#0xAA
    000001E2 A9               [ 4]  900 	xor	c
    000001E3 4F               [ 4]  901 	ld	c, a
    000001E4 07               [ 4]  902 	rlca
    000001E5 07               [ 4]  903 	rlca
    000001E6 07               [ 4]  904 	rlca
    000001E7 CB 09            [ 8]  905 	rrc	c
    000001E9 A9               [ 4]  906 	xor	c
    000001EA E6 66            [ 7]  907 	and	#0x66
    000001EC A9               [ 4]  908 	xor	c
    000001ED 12               [ 7]  909 	ld	(de), a
    000001EE 13               [ 6]  910 	inc	de
    000001EF 10 E9            [13]  911 	djnz	flipLoopH1
    000001F1 01 E0 FF         [10]  912 	ld	bc, #-32
    000001F4 09               [11]  913 	add	hl, bc
    000001F5 06 10            [ 7]  914 	ld	b, #16
    000001F7                        915 	 flipLoopH2:
    000001F7 7E               [ 7]  916 	ld	a, (hl)
    000001F8 23               [ 6]  917 	inc	hl
    000001F9 4F               [ 4]  918 	ld	c, a
    000001FA 07               [ 4]  919 	rlca
    000001FB 07               [ 4]  920 	rlca
    000001FC A9               [ 4]  921 	xor	c
    000001FD E6 AA            [ 7]  922 	and	#0xAA
    000001FF A9               [ 4]  923 	xor	c
    00000200 4F               [ 4]  924 	ld	c, a
    00000201 07               [ 4]  925 	rlca
    00000202 07               [ 4]  926 	rlca
    00000203 07               [ 4]  927 	rlca
    00000204 CB 09            [ 8]  928 	rrc	c
    00000206 A9               [ 4]  929 	xor	c
    00000207 E6 66            [ 7]  930 	and	#0x66
    00000209 A9               [ 4]  931 	xor	c
    0000020A 12               [ 7]  932 	ld	(de), a
    0000020B 13               [ 6]  933 	inc	de
    0000020C 10 E9            [13]  934 	djnz	flipLoopH2
                                    935 ;C:\Users\reina\OneDrive\Documentos\MSXgl\engine/src/sprite_fx.c:670: }
    0000020E C9               [10]  936 	ret
                                    937 ;C:\Users\reina\OneDrive\Documentos\MSXgl\engine/src/sprite_fx.c:683: void SpriteFX_Mask8(const u8* src, u8* dest, const u8* mask) __NAKED
                                    938 ;	---------------------------------
                                    939 ; Function SpriteFX_Mask8
                                    940 ; ---------------------------------
    0000020F                        941 _SpriteFX_Mask8::
                                    942 ;C:\Users\reina\OneDrive\Documentos\MSXgl\engine/src/sprite_fx.c:705: __endasm;
    0000020F C1               [10]  943 	pop	bc
    00000210 FD E1            [14]  944 	pop	iy
    00000212 C5               [11]  945 	push	bc
    00000213 06 08            [ 7]  946 	ld	b, #8
    00000215                        947 	 maskLoop8:
    00000215 7E               [ 7]  948 	ld	a, (hl)
    00000216 23               [ 6]  949 	inc	hl
    00000217 FD A6 00         [19]  950 	and	0(iy)
    0000021A FD 23            [10]  951 	inc	iy
    0000021C 12               [ 7]  952 	ld	(de), a
    0000021D 13               [ 6]  953 	inc	de
    0000021E 10 F5            [13]  954 	djnz	maskLoop8
    00000220 C9               [10]  955 	ret
                                    956 ;C:\Users\reina\OneDrive\Documentos\MSXgl\engine/src/sprite_fx.c:706: }
                                    957 ;C:\Users\reina\OneDrive\Documentos\MSXgl\engine/src/sprite_fx.c:712: void SpriteFX_Mask16(const u8* src, u8* dest, const u8* mask) __NAKED
                                    958 ;	---------------------------------
                                    959 ; Function SpriteFX_Mask16
                                    960 ; ---------------------------------
    00000221                        961 _SpriteFX_Mask16::
                                    962 ;C:\Users\reina\OneDrive\Documentos\MSXgl\engine/src/sprite_fx.c:734: __endasm;
    00000221 C1               [10]  963 	pop	bc
    00000222 FD E1            [14]  964 	pop	iy
    00000224 C5               [11]  965 	push	bc
    00000225 06 20            [ 7]  966 	ld	b, #32
    00000227                        967 	 maskLoop16:
    00000227 7E               [ 7]  968 	ld	a, (hl)
    00000228 FD A6 00         [19]  969 	and	0(iy)
    0000022B 12               [ 7]  970 	ld	(de), a
    0000022C 23               [ 6]  971 	inc	hl
    0000022D 13               [ 6]  972 	inc	de
    0000022E FD 23            [10]  973 	inc	iy
    00000230 10 F5            [13]  974 	djnz	maskLoop16
    00000232 C9               [10]  975 	ret
                                    976 ;C:\Users\reina\OneDrive\Documentos\MSXgl\engine/src/sprite_fx.c:735: }
                                    977 ;C:\Users\reina\OneDrive\Documentos\MSXgl\engine/src/sprite_fx.c:747: void SpriteFX_RotateRight8(const u8* src, u8* dest) __PRESERVES(iyl, iyh)
                                    978 ;	---------------------------------
                                    979 ; Function SpriteFX_RotateRight8
                                    980 ; ---------------------------------
    00000233                        981 _SpriteFX_RotateRight8::
                                    982 ;C:\Users\reina\OneDrive\Documentos\MSXgl\engine/src/sprite_fx.c:768: __endasm;
    00000233 EB               [ 4]  983 	ex	de, hl
    00000234 0E 08            [ 7]  984 	ld	c, #8
    00000236                        985 	 rotOuterLoopR:
    00000236 1A               [ 7]  986 	ld	a, (de)
    00000237 13               [ 6]  987 	inc	de
    00000238 E5               [11]  988 	push	hl
    00000239 06 08            [ 7]  989 	ld	b, #8
    0000023B                        990 	 rotInnerLoopR:
    0000023B 17               [ 4]  991 	rla
    0000023C CB 1E            [15]  992 	rr	(hl)
    0000023E 23               [ 6]  993 	inc	hl
    0000023F 10 FA            [13]  994 	djnz	rotInnerLoopR
    00000241 E1               [10]  995 	pop	hl
    00000242 0D               [ 4]  996 	dec	c
    00000243 C2r36r02         [10]  997 	jp	nz, rotOuterLoopR
                                    998 ;C:\Users\reina\OneDrive\Documentos\MSXgl\engine/src/sprite_fx.c:769: }
    00000246 C9               [10]  999 	ret
                                   1000 ;C:\Users\reina\OneDrive\Documentos\MSXgl\engine/src/sprite_fx.c:774: void SpriteFX_RotateRight16(const u8* src, u8* dest)
                                   1001 ;	---------------------------------
                                   1002 ; Function SpriteFX_RotateRight16
                                   1003 ; ---------------------------------
    00000247                       1004 _SpriteFX_RotateRight16::
    00000247 4D               [ 4] 1005 	ld	c, l
    00000248 44               [ 4] 1006 	ld	b, h
    00000249 EB               [ 4] 1007 	ex	de, hl
                                   1008 ;C:\Users\reina\OneDrive\Documentos\MSXgl\engine/src/sprite_fx.c:776: SpriteFX_RotateRight8(src,      dest + 16);
    0000024A 7D               [ 4] 1009 	ld	a, l
    0000024B C6 10            [ 7] 1010 	add	a, #0x10
    0000024D 5F               [ 4] 1011 	ld	e, a
    0000024E 7C               [ 4] 1012 	ld	a, h
    0000024F CE 00            [ 7] 1013 	adc	a, #0x00
    00000251 57               [ 4] 1014 	ld	d, a
    00000252 E5               [11] 1015 	push	hl
    00000253 C5               [11] 1016 	push	bc
    00000254 69               [ 4] 1017 	ld	l, c
                                   1018 ;	spillPairReg hl
                                   1019 ;	spillPairReg hl
    00000255 60               [ 4] 1020 	ld	h, b
                                   1021 ;	spillPairReg hl
                                   1022 ;	spillPairReg hl
    00000256 CDr33r02         [17] 1023 	call	_SpriteFX_RotateRight8
    00000259 C1               [10] 1024 	pop	bc
    0000025A E1               [10] 1025 	pop	hl
                                   1026 ;C:\Users\reina\OneDrive\Documentos\MSXgl\engine/src/sprite_fx.c:777: SpriteFX_RotateRight8(src + 8,  dest);
    0000025B FD 21 08 00      [14] 1027 	ld	iy, #0x0008
    0000025F FD 09            [15] 1028 	add	iy, bc
    00000261 E5               [11] 1029 	push	hl
    00000262 C5               [11] 1030 	push	bc
    00000263 FD E5            [15] 1031 	push	iy
    00000265 EB               [ 4] 1032 	ex	de, hl
    00000266 E1               [10] 1033 	pop	hl
    00000267 CDr33r02         [17] 1034 	call	_SpriteFX_RotateRight8
    0000026A C1               [10] 1035 	pop	bc
    0000026B E1               [10] 1036 	pop	hl
                                   1037 ;C:\Users\reina\OneDrive\Documentos\MSXgl\engine/src/sprite_fx.c:778: SpriteFX_RotateRight8(src + 16, dest + 24);
    0000026C 7D               [ 4] 1038 	ld	a, l
    0000026D C6 18            [ 7] 1039 	add	a, #0x18
    0000026F 5F               [ 4] 1040 	ld	e, a
    00000270 7C               [ 4] 1041 	ld	a, h
    00000271 CE 00            [ 7] 1042 	adc	a, #0x00
    00000273 57               [ 4] 1043 	ld	d, a
    00000274 FD 21 10 00      [14] 1044 	ld	iy, #0x0010
    00000278 FD 09            [15] 1045 	add	iy, bc
    0000027A E5               [11] 1046 	push	hl
    0000027B C5               [11] 1047 	push	bc
    0000027C FD E5            [15] 1048 	push	iy
    0000027E E1               [10] 1049 	pop	hl
    0000027F CDr33r02         [17] 1050 	call	_SpriteFX_RotateRight8
    00000282 C1               [10] 1051 	pop	bc
    00000283 E1               [10] 1052 	pop	hl
                                   1053 ;C:\Users\reina\OneDrive\Documentos\MSXgl\engine/src/sprite_fx.c:779: SpriteFX_RotateRight8(src + 24, dest + 8);
    00000284 11 08 00         [10] 1054 	ld	de, #0x8
    00000287 19               [11] 1055 	add	hl, de
    00000288 5D               [ 4] 1056 	ld	e, l
    00000289 7C               [ 4] 1057 	ld	a,h
    0000028A 57               [ 4] 1058 	ld	d,a
    0000028B 21 18 00         [10] 1059 	ld	hl, #0x0018
    0000028E 09               [11] 1060 	add	hl, bc
                                   1061 ;C:\Users\reina\OneDrive\Documentos\MSXgl\engine/src/sprite_fx.c:780: }
    0000028F C3r33r02         [10] 1062 	jp	_SpriteFX_RotateRight8
                                   1063 ;C:\Users\reina\OneDrive\Documentos\MSXgl\engine/src/sprite_fx.c:785: void SpriteFX_RotateLeft8(const u8* src, u8* dest) __PRESERVES(iyl, iyh)
                                   1064 ;	---------------------------------
                                   1065 ; Function SpriteFX_RotateLeft8
                                   1066 ; ---------------------------------
    00000292                       1067 _SpriteFX_RotateLeft8::
                                   1068 ;C:\Users\reina\OneDrive\Documentos\MSXgl\engine/src/sprite_fx.c:806: __endasm;
    00000292 EB               [ 4] 1069 	ex	de, hl
    00000293 0E 08            [ 7] 1070 	ld	c, #8
    00000295                       1071 	 rotOuterloopL:
    00000295 1A               [ 7] 1072 	ld	a, (de)
    00000296 13               [ 6] 1073 	inc	de
    00000297 E5               [11] 1074 	push	hl
    00000298 06 08            [ 7] 1075 	ld	b, #8
    0000029A                       1076 	 rotInnerLoopL:
    0000029A 1F               [ 4] 1077 	rra
    0000029B CB 16            [15] 1078 	rl	(hl)
    0000029D 23               [ 6] 1079 	inc	hl
    0000029E 10 FA            [13] 1080 	djnz	rotInnerLoopL
    000002A0 E1               [10] 1081 	pop	hl
    000002A1 0D               [ 4] 1082 	dec	c
    000002A2 C2r95r02         [10] 1083 	jp	nz, rotOuterloopL
                                   1084 ;C:\Users\reina\OneDrive\Documentos\MSXgl\engine/src/sprite_fx.c:807: }
    000002A5 C9               [10] 1085 	ret
                                   1086 ;C:\Users\reina\OneDrive\Documentos\MSXgl\engine/src/sprite_fx.c:812: void SpriteFX_RotateLeft16(const u8* src, u8* dest)
                                   1087 ;	---------------------------------
                                   1088 ; Function SpriteFX_RotateLeft16
                                   1089 ; ---------------------------------
    000002A6                       1090 _SpriteFX_RotateLeft16::
    000002A6 4D               [ 4] 1091 	ld	c, l
    000002A7 44               [ 4] 1092 	ld	b, h
    000002A8 EB               [ 4] 1093 	ex	de, hl
                                   1094 ;C:\Users\reina\OneDrive\Documentos\MSXgl\engine/src/sprite_fx.c:814: SpriteFX_RotateLeft8(src,      dest + 8);
    000002A9 7D               [ 4] 1095 	ld	a, l
    000002AA C6 08            [ 7] 1096 	add	a, #0x08
    000002AC 5F               [ 4] 1097 	ld	e, a
    000002AD 7C               [ 4] 1098 	ld	a, h
    000002AE CE 00            [ 7] 1099 	adc	a, #0x00
    000002B0 57               [ 4] 1100 	ld	d, a
    000002B1 E5               [11] 1101 	push	hl
    000002B2 C5               [11] 1102 	push	bc
    000002B3 69               [ 4] 1103 	ld	l, c
                                   1104 ;	spillPairReg hl
                                   1105 ;	spillPairReg hl
    000002B4 60               [ 4] 1106 	ld	h, b
                                   1107 ;	spillPairReg hl
                                   1108 ;	spillPairReg hl
    000002B5 CDr92r02         [17] 1109 	call	_SpriteFX_RotateLeft8
    000002B8 C1               [10] 1110 	pop	bc
    000002B9 E1               [10] 1111 	pop	hl
                                   1112 ;C:\Users\reina\OneDrive\Documentos\MSXgl\engine/src/sprite_fx.c:815: SpriteFX_RotateLeft8(src + 8,  dest + 24);
    000002BA 7D               [ 4] 1113 	ld	a, l
    000002BB C6 18            [ 7] 1114 	add	a, #0x18
    000002BD 5F               [ 4] 1115 	ld	e, a
    000002BE 7C               [ 4] 1116 	ld	a, h
    000002BF CE 00            [ 7] 1117 	adc	a, #0x00
    000002C1 57               [ 4] 1118 	ld	d, a
    000002C2 FD 21 08 00      [14] 1119 	ld	iy, #0x0008
    000002C6 FD 09            [15] 1120 	add	iy, bc
    000002C8 E5               [11] 1121 	push	hl
    000002C9 C5               [11] 1122 	push	bc
    000002CA FD E5            [15] 1123 	push	iy
    000002CC E1               [10] 1124 	pop	hl
    000002CD CDr92r02         [17] 1125 	call	_SpriteFX_RotateLeft8
    000002D0 C1               [10] 1126 	pop	bc
    000002D1 E1               [10] 1127 	pop	hl
                                   1128 ;C:\Users\reina\OneDrive\Documentos\MSXgl\engine/src/sprite_fx.c:816: SpriteFX_RotateLeft8(src + 16, dest);
    000002D2 FD 21 10 00      [14] 1129 	ld	iy, #0x0010
    000002D6 FD 09            [15] 1130 	add	iy, bc
    000002D8 E5               [11] 1131 	push	hl
    000002D9 C5               [11] 1132 	push	bc
    000002DA FD E5            [15] 1133 	push	iy
    000002DC EB               [ 4] 1134 	ex	de, hl
    000002DD E1               [10] 1135 	pop	hl
    000002DE CDr92r02         [17] 1136 	call	_SpriteFX_RotateLeft8
    000002E1 C1               [10] 1137 	pop	bc
    000002E2 E1               [10] 1138 	pop	hl
                                   1139 ;C:\Users\reina\OneDrive\Documentos\MSXgl\engine/src/sprite_fx.c:817: SpriteFX_RotateLeft8(src + 24, dest + 16);
    000002E3 11 10 00         [10] 1140 	ld	de, #0x10
    000002E6 19               [11] 1141 	add	hl, de
    000002E7 5D               [ 4] 1142 	ld	e, l
    000002E8 7C               [ 4] 1143 	ld	a,h
    000002E9 57               [ 4] 1144 	ld	d,a
    000002EA 21 18 00         [10] 1145 	ld	hl, #0x0018
    000002ED 09               [11] 1146 	add	hl, bc
                                   1147 ;C:\Users\reina\OneDrive\Documentos\MSXgl\engine/src/sprite_fx.c:818: }
    000002EE C3r92r02         [10] 1148 	jp	_SpriteFX_RotateLeft8
                                   1149 ;C:\Users\reina\OneDrive\Documentos\MSXgl\engine/src/sprite_fx.c:823: void SpriteFX_RotateHalfTurn8(const u8* src, u8* dest) __PRESERVES(iyl, iyh)
                                   1150 ;	---------------------------------
                                   1151 ; Function SpriteFX_RotateHalfTurn8
                                   1152 ; ---------------------------------
    000002F1                       1153 _SpriteFX_RotateHalfTurn8::
                                   1154 ;C:\Users\reina\OneDrive\Documentos\MSXgl\engine/src/sprite_fx.c:853: __endasm;
    000002F1 01 07 00         [10] 1155 	ld	bc, #7
    000002F4 09               [11] 1156 	add	hl, bc
    000002F5 06 08            [ 7] 1157 	ld	b, #8
    000002F7                       1158 	 rotLoop180:
    000002F7 7E               [ 7] 1159 	ld	a, (hl)
    000002F8 2B               [ 6] 1160 	dec	hl
    000002F9 4F               [ 4] 1161 	ld	c, a
    000002FA 07               [ 4] 1162 	rlca
    000002FB 07               [ 4] 1163 	rlca
    000002FC A9               [ 4] 1164 	xor	c
    000002FD E6 AA            [ 7] 1165 	and	#0xAA
    000002FF A9               [ 4] 1166 	xor	c
    00000300 4F               [ 4] 1167 	ld	c, a
    00000301 07               [ 4] 1168 	rlca
    00000302 07               [ 4] 1169 	rlca
    00000303 07               [ 4] 1170 	rlca
    00000304 CB 09            [ 8] 1171 	rrc	c
    00000306 A9               [ 4] 1172 	xor	c
    00000307 E6 66            [ 7] 1173 	and	#0x66
    00000309 A9               [ 4] 1174 	xor	c
    0000030A 12               [ 7] 1175 	ld	(de), a
    0000030B 13               [ 6] 1176 	inc	de
    0000030C 10 E9            [13] 1177 	djnz	rotLoop180
                                   1178 ;C:\Users\reina\OneDrive\Documentos\MSXgl\engine/src/sprite_fx.c:854: }
    0000030E C9               [10] 1179 	ret
                                   1180 ;C:\Users\reina\OneDrive\Documentos\MSXgl\engine/src/sprite_fx.c:859: void SpriteFX_RotateHalfTurn16(const u8* src, u8* dest)
                                   1181 ;	---------------------------------
                                   1182 ; Function SpriteFX_RotateHalfTurn16
                                   1183 ; ---------------------------------
    0000030F                       1184 _SpriteFX_RotateHalfTurn16::
    0000030F 4D               [ 4] 1185 	ld	c, l
    00000310 44               [ 4] 1186 	ld	b, h
    00000311 EB               [ 4] 1187 	ex	de, hl
                                   1188 ;C:\Users\reina\OneDrive\Documentos\MSXgl\engine/src/sprite_fx.c:861: SpriteFX_RotateHalfTurn8(src,      dest + 24);
    00000312 7D               [ 4] 1189 	ld	a, l
    00000313 C6 18            [ 7] 1190 	add	a, #0x18
    00000315 5F               [ 4] 1191 	ld	e, a
    00000316 7C               [ 4] 1192 	ld	a, h
    00000317 CE 00            [ 7] 1193 	adc	a, #0x00
    00000319 57               [ 4] 1194 	ld	d, a
    0000031A E5               [11] 1195 	push	hl
    0000031B C5               [11] 1196 	push	bc
    0000031C 69               [ 4] 1197 	ld	l, c
                                   1198 ;	spillPairReg hl
                                   1199 ;	spillPairReg hl
    0000031D 60               [ 4] 1200 	ld	h, b
                                   1201 ;	spillPairReg hl
                                   1202 ;	spillPairReg hl
    0000031E CDrF1r02         [17] 1203 	call	_SpriteFX_RotateHalfTurn8
    00000321 C1               [10] 1204 	pop	bc
    00000322 E1               [10] 1205 	pop	hl
                                   1206 ;C:\Users\reina\OneDrive\Documentos\MSXgl\engine/src/sprite_fx.c:862: SpriteFX_RotateHalfTurn8(src + 8,  dest + 16);
    00000323 7D               [ 4] 1207 	ld	a, l
    00000324 C6 10            [ 7] 1208 	add	a, #0x10
    00000326 5F               [ 4] 1209 	ld	e, a
    00000327 7C               [ 4] 1210 	ld	a, h
    00000328 CE 00            [ 7] 1211 	adc	a, #0x00
    0000032A 57               [ 4] 1212 	ld	d, a
    0000032B FD 21 08 00      [14] 1213 	ld	iy, #0x0008
    0000032F FD 09            [15] 1214 	add	iy, bc
    00000331 E5               [11] 1215 	push	hl
    00000332 C5               [11] 1216 	push	bc
    00000333 FD E5            [15] 1217 	push	iy
    00000335 E1               [10] 1218 	pop	hl
    00000336 CDrF1r02         [17] 1219 	call	_SpriteFX_RotateHalfTurn8
    00000339 C1               [10] 1220 	pop	bc
    0000033A E1               [10] 1221 	pop	hl
                                   1222 ;C:\Users\reina\OneDrive\Documentos\MSXgl\engine/src/sprite_fx.c:863: SpriteFX_RotateHalfTurn8(src + 16, dest + 8);
    0000033B 7D               [ 4] 1223 	ld	a, l
    0000033C C6 08            [ 7] 1224 	add	a, #0x08
    0000033E 5F               [ 4] 1225 	ld	e, a
    0000033F 7C               [ 4] 1226 	ld	a, h
    00000340 CE 00            [ 7] 1227 	adc	a, #0x00
    00000342 57               [ 4] 1228 	ld	d, a
    00000343 FD 21 10 00      [14] 1229 	ld	iy, #0x0010
    00000347 FD 09            [15] 1230 	add	iy, bc
    00000349 E5               [11] 1231 	push	hl
    0000034A C5               [11] 1232 	push	bc
    0000034B FD E5            [15] 1233 	push	iy
    0000034D E1               [10] 1234 	pop	hl
    0000034E CDrF1r02         [17] 1235 	call	_SpriteFX_RotateHalfTurn8
    00000351 C1               [10] 1236 	pop	bc
    00000352 E1               [10] 1237 	pop	hl
                                   1238 ;C:\Users\reina\OneDrive\Documentos\MSXgl\engine/src/sprite_fx.c:864: SpriteFX_RotateHalfTurn8(src + 24, dest);
    00000353 79               [ 4] 1239 	ld	a, c
    00000354 C6 18            [ 7] 1240 	add	a, #0x18
    00000356 4F               [ 4] 1241 	ld	c, a
    00000357 30 01            [12] 1242 	jr	NC, 00103$
    00000359 04               [ 4] 1243 	inc	b
    0000035A                       1244 00103$:
    0000035A EB               [ 4] 1245 	ex	de, hl
    0000035B 69               [ 4] 1246 	ld	l, c
                                   1247 ;	spillPairReg hl
                                   1248 ;	spillPairReg hl
    0000035C 60               [ 4] 1249 	ld	h, b
                                   1250 ;	spillPairReg hl
                                   1251 ;	spillPairReg hl
                                   1252 ;C:\Users\reina\OneDrive\Documentos\MSXgl\engine/src/sprite_fx.c:865: }
    0000035D C3rF1r02         [10] 1253 	jp	_SpriteFX_RotateHalfTurn8
                                   1254 	.area _CODE
                                   1255 	.area _INITIALIZER
                                   1256 	.area _CABS (ABS)
