                                      1 ;--------------------------------------------------------
                                      2 ; File Created by SDCC : free open source ANSI-C Compiler
                                      3 ; Version 4.2.0 #13081 (MINGW64)
                                      4 ;--------------------------------------------------------
                                      5 	.module vdp
                                      6 	.optsdcc -mz80
                                      7 	
                                      8 ;--------------------------------------------------------
                                      9 ; Public variables in this module
                                     10 ;--------------------------------------------------------
                                     11 	.globl _g_VDPInitilized
                                     12 	.globl _g_SpriteColorLow
                                     13 	.globl _g_SpritePatternLow
                                     14 	.globl _g_SpriteAttributeLow
                                     15 	.globl _g_ScreenPatternLow
                                     16 	.globl _g_ScreenColorLow
                                     17 	.globl _g_ScreenLayoutLow
                                     18 	.globl _g_VDP_Sprite
                                     19 	.globl _g_VDP_Command
                                     20 	.globl _g_VDP_Data
                                     21 	.globl _g_VDP_REGSAV
                                     22 	.globl _g_SLTSL
                                     23 	.globl _g_GRPACY
                                     24 	.globl _g_GRPACX
                                     25 	.globl _g_LOGOPR
                                     26 	.globl _g_CMASK
                                     27 	.globl _g_CLOC
                                     28 	.globl _g_FNKSTR
                                     29 	.globl _g_ATRBYT
                                     30 	.globl _g_BDRCLR
                                     31 	.globl _g_BAKCLR
                                     32 	.globl _g_FORCLR
                                     33 	.globl _g_CSRX
                                     34 	.globl _g_CSRY
                                     35 	.globl _g_CLIKSW
                                     36 	.globl _g_MLTPAT
                                     37 	.globl _g_MLTATR
                                     38 	.globl _g_MLTCGP
                                     39 	.globl _g_MLTCOL
                                     40 	.globl _g_MLTNAM
                                     41 	.globl _g_GRPPAT
                                     42 	.globl _g_GRPATR
                                     43 	.globl _g_GRPCGP
                                     44 	.globl _g_GRPCOL
                                     45 	.globl _g_GRPNAM
                                     46 	.globl _g_T32PAT
                                     47 	.globl _g_T32ATR
                                     48 	.globl _g_T32CGP
                                     49 	.globl _g_T32COL
                                     50 	.globl _g_T32NAM
                                     51 	.globl _g_TXTPAT
                                     52 	.globl _g_TXTATR
                                     53 	.globl _g_TXTCGP
                                     54 	.globl _g_TXTCOL
                                     55 	.globl _g_TXTNAM
                                     56 	.globl _g_CLMLST
                                     57 	.globl _g_CRTCNT
                                     58 	.globl _g_LINLEN
                                     59 	.globl _g_LINL32
                                     60 	.globl _g_LINL40
                                     61 	.globl _g_CHAR_16
                                     62 	.globl _g_MSXMID
                                     63 	.globl _g_MSXVER
                                     64 	.globl _g_ROMVersion
                                     65 	.globl _g_BASRVN
                                     66 	.globl _g_VDP_DW
                                     67 	.globl _g_VDP_DR
                                     68 	.globl _g_CGTABL
                                     69 	.globl _g_SVFFFD
                                     70 	.globl _g_RG27SAV
                                     71 	.globl _g_RG26SAV
                                     72 	.globl _g_RG25SAV
                                     73 	.globl _g_SVFFF8
                                     74 	.globl _g_MINROM
                                     75 	.globl _g_RG23SAV
                                     76 	.globl _g_RG22SAV
                                     77 	.globl _g_RG21SAV
                                     78 	.globl _g_RG20SAV
                                     79 	.globl _g_RG19SAV
                                     80 	.globl _g_RG18SAV
                                     81 	.globl _g_RG17SAV
                                     82 	.globl _g_RG16SAV
                                     83 	.globl _g_RG15SAV
                                     84 	.globl _g_RG14SAV
                                     85 	.globl _g_RG13SAV
                                     86 	.globl _g_RG12SAV
                                     87 	.globl _g_RG11SAV
                                     88 	.globl _g_RG10SAV
                                     89 	.globl _g_RG09SAV
                                     90 	.globl _g_RG08SAV
                                     91 	.globl _g_PROCNM
                                     92 	.globl _g_SLTWRK
                                     93 	.globl _g_SLTATR
                                     94 	.globl _g_SLTTBL
                                     95 	.globl _g_EXPTBL
                                     96 	.globl _g_MNROM
                                     97 	.globl _g_DRWANG
                                     98 	.globl _g_DRWSCL
                                     99 	.globl _g_DRWFLG
                                    100 	.globl _g_GYPOS
                                    101 	.globl _g_GXPOS
                                    102 	.globl _g_BRDATR
                                    103 	.globl _g_CASPRV
                                    104 	.globl _g_OLDSCR
                                    105 	.globl _g_SCRMOD
                                    106 	.globl _g_FLBMEM
                                    107 	.globl _g_KANAMD
                                    108 	.globl _g_KANAST
                                    109 	.globl _g_CAPST
                                    110 	.globl _g_CSTYLE
                                    111 	.globl _g_CSRSW
                                    112 	.globl _g_INSFLG
                                    113 	.globl _g_ESCCNT
                                    114 	.globl _g_GRPHED
                                    115 	.globl _g_WINWID
                                    116 	.globl _g_LOWLIM
                                    117 	.globl _g_INTCNT
                                    118 	.globl _g_INTVAL
                                    119 	.globl _g_JIFFY
                                    120 	.globl _g_PADX
                                    121 	.globl _g_PADY
                                    122 	.globl _g_INTFLG
                                    123 	.globl _g_RTYCNT
                                    124 	.globl _g_TRPTBL
                                    125 	.globl _g_HIMEM
                                    126 	.globl _g_BOTTOM
                                    127 	.globl _g_PATWRK
                                    128 	.globl _g_LINWRK
                                    129 	.globl _g_KEYBUF
                                    130 	.globl _g_NEWKEY
                                    131 	.globl _g_OLDKEY
                                    132 	.globl _g_CLIKFL
                                    133 	.globl _g_ONGSBF
                                    134 	.globl _g_FNKFLG
                                    135 	.globl _g_FNKSWI
                                    136 	.globl _g_CODSAV
                                    137 	.globl _g_FSTPOS
                                    138 	.globl _g_LINTTB
                                    139 	.globl _g_BASROM
                                    140 	.globl _g_ENSTOP
                                    141 	.globl _g_VCBC
                                    142 	.globl _g_VCBB
                                    143 	.globl _g_VCBA
                                    144 	.globl _g_PLYCNT
                                    145 	.globl _g_MUSICF
                                    146 	.globl _g_QUEUEN
                                    147 	.globl _g_MCLPTR
                                    148 	.globl _g_MCLLEN
                                    149 	.globl _g_SAVVOL
                                    150 	.globl _g_VOICEN
                                    151 	.globl _g_SAVSP
                                    152 	.globl _g_PRSCNT
                                    153 	.globl _g_LSTMOD
                                    154 	.globl _g_LSTCOM
                                    155 	.globl _g_COMMSK
                                    156 	.globl _g_ESTBLS
                                    157 	.globl _g_FLAGS
                                    158 	.globl _g_ERRORS
                                    159 	.globl _g_DATCNT
                                    160 	.globl _g_DEVNUM
                                    161 	.globl _g_OLDINT
                                    162 	.globl _g_OLDSTT
                                    163 	.globl _g_MEXBIh
                                    164 	.globl _g_RSIQLN
                                    165 	.globl _g_RSFCB
                                    166 	.globl _g_TOCNT
                                    167 	.globl _g_RSTMP
                                    168 	.globl _g_YSAVE
                                    169 	.globl _g_XSAVE
                                    170 	.globl _g_NORUSE
                                    171 	.globl _g_MODE
                                    172 	.globl _g_ROMA
                                    173 	.globl _g_CHRCNT
                                    174 	.globl _g_EXBRSA
                                    175 	.globl _g_AVCSAV
                                    176 	.globl _g_ACPAGE
                                    177 	.globl _g_DPPAGE
                                    178 	.globl _g_RS2IQ
                                    179 	.globl _g_VOICCQ
                                    180 	.globl _g_VOICBQ
                                    181 	.globl _g_VOICAQ
                                    182 	.globl _g_QUEBAK
                                    183 	.globl _g_QUETAB
                                    184 	.globl _g_ASPCT2
                                    185 	.globl _g_ASPCT1
                                    186 	.globl _g_HEADER
                                    187 	.globl _g_HIGH
                                    188 	.globl _g_LOW
                                    189 	.globl _g_CS240
                                    190 	.globl _g_CS120
                                    191 	.globl _g_GETPNT
                                    192 	.globl _g_PUTPNT
                                    193 	.globl _g_REPCNT
                                    194 	.globl _g_SCNCNT
                                    195 	.globl _g_FRCNEW
                                    196 	.globl _g_QUEUES
                                    197 	.globl _g_MINUPD
                                    198 	.globl _g_MAXUPD
                                    199 	.globl _g_TRGFLG
                                    200 	.globl _g_STATFL
                                    201 	.globl _g_RG7SAV
                                    202 	.globl _g_RG6SAV
                                    203 	.globl _g_RG5SAV
                                    204 	.globl _g_RG4SAV
                                    205 	.globl _g_RG3SAV
                                    206 	.globl _g_RG2SAV
                                    207 	.globl _g_RG1SAV
                                    208 	.globl _g_RG0SAV
                                    209 	.globl _g_CNSDFG
                                    210 	.globl _g_USRTAB
                                    211 	.globl _g_CLPRIM
                                    212 	.globl _g_WRPRIM
                                    213 	.globl _g_RDPRIM
                                    214 	.globl _VDP_SetModeFlag
                                    215 	.globl _VDP_SetModeText1
                                    216 	.globl _VDP_SetModeMultiColor
                                    217 	.globl _VDP_SetModeGraphic1
                                    218 	.globl _VDP_SetModeGraphic2
                                    219 	.globl _VDP_ClearVRAM
                                    220 	.globl _VDP_WriteVRAM_16K
                                    221 	.globl _VDP_FillVRAM_16K
                                    222 	.globl _VDP_ReadVRAM_16K
                                    223 	.globl _VDP_Peek_16K
                                    224 	.globl _VDP_Poke_16K
                                    225 	.globl _VDP_ReadStatus
                                    226 	.globl _VDP_SetAdjustOffset
                                    227 	.globl _VDP_SetPalette
                                    228 	.globl _VDP_SetPaletteEntry
                                    229 	.globl _VDP_CommandWait
                                    230 	.globl _VPD_CommandSetupR32
                                    231 	.globl _VPD_CommandSetupR36
                                    232 	.globl _VPD_CommandWriteLoop
                                    233 	.globl _VDP_Initialize
                                    234 	.globl _VDP_SetMode
                                    235 	.globl _VDP_GetVersion
                                    236 	.globl _VDP_RegWrite
                                    237 	.globl _VDP_RegWriteBak
                                    238 	.globl _VDP_RegWriteBakMask
                                    239 	.globl _VDP_ReadDefaultStatus
                                    240 	.globl _VDP_SetLayoutTable
                                    241 	.globl _VDP_SetColorTable
                                    242 	.globl _VDP_SetPatternTable
                                    243 	.globl _VDP_SetSpriteAttributeTable
                                    244 	.globl _VDP_SetSpritePatternTable
                                    245 	.globl _VDP_LoadSpritePattern
                                    246 	.globl _VDP_SetSpriteSM1
                                    247 	.globl _VDP_SetSprite
                                    248 	.globl _VDP_SetSpriteExMultiColor
                                    249 	.globl _VDP_SetSpriteExUniColor
                                    250 	.globl _VDP_SetSpritePosition
                                    251 	.globl _VDP_SetSpritePositionX
                                    252 	.globl _VDP_SetSpritePositionY
                                    253 	.globl _VDP_SetSpritePattern
                                    254 	.globl _VDP_SetSpriteColorSM1
                                    255 	.globl _VDP_SetSpriteUniColor
                                    256 	.globl _VDP_SetSpriteMultiColor
                                    257 	.globl _VDP_SetSpriteData
                                    258 	.globl _VDP_DisableSpritesFrom
                                    259 	.globl _VDP_LoadPattern_GM2
                                    260 	.globl _VDP_LoadColor_GM2
                                    261 	.globl _VDP_WriteLayout_GM2
                                    262 	.globl _VDP_FillLayout_GM2
                                    263 ;--------------------------------------------------------
                                    264 ; special function registers
                                    265 ;--------------------------------------------------------
                         000000A8   266 _g_PortPrimarySlot	=	0x00a8
                         000000A9   267 _g_PortReadKeyboard	=	0x00a9
                         000000AA   268 _g_PortAccessKeyboard	=	0x00aa
                         000000AB   269 _g_PortControl	=	0x00ab
                         00000098   270 _g_VDP_DataPort	=	0x0098
                         00000099   271 _g_VDP_RegPort	=	0x0099
                         00000099   272 _g_VDP_AddrPort	=	0x0099
                         00000099   273 _g_VDP_StatPort	=	0x0099
                         0000009A   274 _g_VDP_PalPort	=	0x009a
                         0000009B   275 _g_VDP_IRegPort	=	0x009b
                         000000A0   276 _g_PSG_RegPort	=	0x00a0
                         000000A1   277 _g_PSG_DataPort	=	0x00a1
                         000000A2   278 _g_PSG_StatPort	=	0x00a2
                         00000010   279 _g_PSG_Ext_RegPort	=	0x0010
                         00000011   280 _g_PSG_Ext_DataPort	=	0x0011
                         00000012   281 _g_PSG_Ext_StatPort	=	0x0012
                         0000007C   282 _g_MSXMusic_IndexPort	=	0x007c
                         0000007D   283 _g_MSXMusic_DataPort	=	0x007d
                         000000C0   284 _g_MSXAudio_IndexPort	=	0x00c0
                         000000C1   285 _g_MSXAudio_DataPort	=	0x00c1
                         000000C2   286 _g_MSXAudio_IndexPort2	=	0x00c2
                         000000C3   287 _g_MSXAudio_DataPort2	=	0x00c3
                         000000B4   288 _g_RTC_AddrPort	=	0x00b4
                         000000B5   289 _g_RTC_DataPort	=	0x00b5
                                    290 ;--------------------------------------------------------
                                    291 ; ram data
                                    292 ;--------------------------------------------------------
                                    293 	.area _DATA
                         0000F3AE   294 _g_LINL40	=	0xf3ae
                         0000F3AF   295 _g_LINL32	=	0xf3af
                         0000F3B0   296 _g_LINLEN	=	0xf3b0
                         0000F3B1   297 _g_CRTCNT	=	0xf3b1
                         0000F3B2   298 _g_CLMLST	=	0xf3b2
                         0000F3B3   299 _g_TXTNAM	=	0xf3b3
                         0000F3B5   300 _g_TXTCOL	=	0xf3b5
                         0000F3B7   301 _g_TXTCGP	=	0xf3b7
                         0000F3B9   302 _g_TXTATR	=	0xf3b9
                         0000F3BB   303 _g_TXTPAT	=	0xf3bb
                         0000F3BD   304 _g_T32NAM	=	0xf3bd
                         0000F3BF   305 _g_T32COL	=	0xf3bf
                         0000F3C1   306 _g_T32CGP	=	0xf3c1
                         0000F3C3   307 _g_T32ATR	=	0xf3c3
                         0000F3C5   308 _g_T32PAT	=	0xf3c5
                         0000F3C7   309 _g_GRPNAM	=	0xf3c7
                         0000F3C9   310 _g_GRPCOL	=	0xf3c9
                         0000F3CB   311 _g_GRPCGP	=	0xf3cb
                         0000F3CD   312 _g_GRPATR	=	0xf3cd
                         0000F3CF   313 _g_GRPPAT	=	0xf3cf
                         0000F3D1   314 _g_MLTNAM	=	0xf3d1
                         0000F3D3   315 _g_MLTCOL	=	0xf3d3
                         0000F3D5   316 _g_MLTCGP	=	0xf3d5
                         0000F3D7   317 _g_MLTATR	=	0xf3d7
                         0000F3D9   318 _g_MLTPAT	=	0xf3d9
                         0000F3DB   319 _g_CLIKSW	=	0xf3db
                         0000F3DC   320 _g_CSRY	=	0xf3dc
                         0000F3DD   321 _g_CSRX	=	0xf3dd
                         0000F3E9   322 _g_FORCLR	=	0xf3e9
                         0000F3EA   323 _g_BAKCLR	=	0xf3ea
                         0000F3EB   324 _g_BDRCLR	=	0xf3eb
                         0000F3F2   325 _g_ATRBYT	=	0xf3f2
                         0000F87F   326 _g_FNKSTR	=	0xf87f
                         0000F92A   327 _g_CLOC	=	0xf92a
                         0000F92C   328 _g_CMASK	=	0xf92c
                         0000FB02   329 _g_LOGOPR	=	0xfb02
                         0000FCB7   330 _g_GRPACX	=	0xfcb7
                         0000FCB9   331 _g_GRPACY	=	0xfcb9
                         0000FFFF   332 _g_SLTSL	=	0xffff
    00000000                        333 _g_VDP_REGSAV::
    00000000                        334 	.ds 28
    0000001C                        335 _g_VDP_Data::
    0000001C                        336 	.ds 2
    0000001E                        337 _g_VDP_Command::
    0000001E                        338 	.ds 15
    0000002D                        339 _g_VDP_Sprite::
    0000002D                        340 	.ds 4
    00000031                        341 _g_ScreenLayoutLow::
    00000031                        342 	.ds 2
    00000033                        343 _g_ScreenColorLow::
    00000033                        344 	.ds 2
    00000035                        345 _g_ScreenPatternLow::
    00000035                        346 	.ds 2
    00000037                        347 _g_SpriteAttributeLow::
    00000037                        348 	.ds 2
    00000039                        349 _g_SpritePatternLow::
    00000039                        350 	.ds 2
    0000003B                        351 _g_SpriteColorLow::
    0000003B                        352 	.ds 2
                                    353 ;--------------------------------------------------------
                                    354 ; ram data
                                    355 ;--------------------------------------------------------
                                    356 	.area _INITIALIZED
    00000000                        357 _g_VDPInitilized::
    00000000                        358 	.ds 1
                                    359 ;--------------------------------------------------------
                                    360 ; absolute external ram data
                                    361 ;--------------------------------------------------------
                                    362 	.area _DABS (ABS)
                                    363 ;--------------------------------------------------------
                                    364 ; global & static initialisations
                                    365 ;--------------------------------------------------------
                                    366 	.area _HOME
                                    367 	.area _GSINIT
                                    368 	.area _GSFINAL
                                    369 	.area _GSINIT
                                    370 ;--------------------------------------------------------
                                    371 ; Home
                                    372 ;--------------------------------------------------------
                                    373 	.area _HOME
                                    374 	.area _HOME
                                    375 ;--------------------------------------------------------
                                    376 ; code
                                    377 ;--------------------------------------------------------
                                    378 	.area _CODE
                                    379 ;C:\Users\reina\OneDrive\Documentos\MSXgl\engine/src/vdp.c:165: void VDP_SetModeFlag(u8 flag)
                                    380 ;	---------------------------------
                                    381 ; Function VDP_SetModeFlag
                                    382 ; ---------------------------------
    00000000                        383 _VDP_SetModeFlag::
    00000000 5F               [ 4]  384 	ld	e, a
                                    385 ;C:\Users\reina\OneDrive\Documentos\MSXgl\engine/src/vdp.c:168: u8 reg1 = g_VDP_REGSAV[1];
    00000001 3Ar01r00         [13]  386 	ld	a, (#_g_VDP_REGSAV + 1)
                                    387 ;C:\Users\reina\OneDrive\Documentos\MSXgl\engine/src/vdp.c:169: reg1 &= 0b11100111;
    00000004 E6 E7            [ 7]  388 	and	a, #0xe7
    00000006 6F               [ 4]  389 	ld	l, a
                                    390 ;	spillPairReg hl
                                    391 ;	spillPairReg hl
                                    392 ;C:\Users\reina\OneDrive\Documentos\MSXgl\engine/src/vdp.c:170: if(flag & 0b00001)
    00000007 CB 43            [ 8]  393 	bit	0, e
    00000009 28 02            [12]  394 	jr	Z, 00102$
                                    395 ;C:\Users\reina\OneDrive\Documentos\MSXgl\engine/src/vdp.c:171: reg1 |= 0b00010000;
    0000000B CB E5            [ 8]  396 	set	4, l
    0000000D                        397 00102$:
                                    398 ;C:\Users\reina\OneDrive\Documentos\MSXgl\engine/src/vdp.c:172: if(flag & 0b00010)
    0000000D CB 4B            [ 8]  399 	bit	1, e
    0000000F 28 02            [12]  400 	jr	Z, 00104$
                                    401 ;C:\Users\reina\OneDrive\Documentos\MSXgl\engine/src/vdp.c:173: reg1 |= 0b00001000;
    00000011 CB DD            [ 8]  402 	set	3, l
    00000013                        403 00104$:
                                    404 ;C:\Users\reina\OneDrive\Documentos\MSXgl\engine/src/vdp.c:174: VDP_RegWriteBak(1, reg1);
    00000013 3E 01            [ 7]  405 	ld	a, #0x01
    00000015 CDrDBr02         [17]  406 	call	_VDP_RegWriteBak
                                    407 ;C:\Users\reina\OneDrive\Documentos\MSXgl\engine/src/vdp.c:177: u8 reg0 = g_VDP_REGSAV[0];
    00000018 3Ar00r00         [13]  408 	ld	a, (#_g_VDP_REGSAV + 0)
                                    409 ;C:\Users\reina\OneDrive\Documentos\MSXgl\engine/src/vdp.c:178: reg0 &= 0b11110001;
    0000001B E6 F1            [ 7]  410 	and	a, #0xf1
    0000001D 4F               [ 4]  411 	ld	c, a
                                    412 ;C:\Users\reina\OneDrive\Documentos\MSXgl\engine/src/vdp.c:179: flag >>= 1;
    0000001E 7B               [ 4]  413 	ld	a, e
    0000001F CB 3F            [ 8]  414 	srl	a
                                    415 ;C:\Users\reina\OneDrive\Documentos\MSXgl\engine/src/vdp.c:180: flag &= 0b00001110;
    00000021 E6 0E            [ 7]  416 	and	a, #0x0e
                                    417 ;C:\Users\reina\OneDrive\Documentos\MSXgl\engine/src/vdp.c:181: reg0 |= flag;
    00000023 B1               [ 4]  418 	or	a, c
    00000024 6F               [ 4]  419 	ld	l, a
                                    420 ;	spillPairReg hl
                                    421 ;	spillPairReg hl
                                    422 ;C:\Users\reina\OneDrive\Documentos\MSXgl\engine/src/vdp.c:182: VDP_RegWriteBak(0, reg0);
    00000025 AF               [ 4]  423 	xor	a, a
                                    424 ;C:\Users\reina\OneDrive\Documentos\MSXgl\engine/src/vdp.c:183: }
    00000026 C3rDBr02         [10]  425 	jp	_VDP_RegWriteBak
                         0000F380   426 _g_RDPRIM	=	0xf380
                         0000F385   427 _g_WRPRIM	=	0xf385
                         0000F38C   428 _g_CLPRIM	=	0xf38c
                         0000F39A   429 _g_USRTAB	=	0xf39a
                         0000F3DE   430 _g_CNSDFG	=	0xf3de
                         0000F3DF   431 _g_RG0SAV	=	0xf3df
                         0000F3E0   432 _g_RG1SAV	=	0xf3e0
                         0000F3E1   433 _g_RG2SAV	=	0xf3e1
                         0000F3E2   434 _g_RG3SAV	=	0xf3e2
                         0000F3E3   435 _g_RG4SAV	=	0xf3e3
                         0000F3E4   436 _g_RG5SAV	=	0xf3e4
                         0000F3E5   437 _g_RG6SAV	=	0xf3e5
                         0000F3E6   438 _g_RG7SAV	=	0xf3e6
                         0000F3E7   439 _g_STATFL	=	0xf3e7
                         0000F3E8   440 _g_TRGFLG	=	0xf3e8
                         0000F3EC   441 _g_MAXUPD	=	0xf3ec
                         0000F3EF   442 _g_MINUPD	=	0xf3ef
                         0000F3F3   443 _g_QUEUES	=	0xf3f3
                         0000F3F5   444 _g_FRCNEW	=	0xf3f5
                         0000F3F6   445 _g_SCNCNT	=	0xf3f6
                         0000F3F7   446 _g_REPCNT	=	0xf3f7
                         0000F3F8   447 _g_PUTPNT	=	0xf3f8
                         0000F3FA   448 _g_GETPNT	=	0xf3fa
                         0000F3FC   449 _g_CS120	=	0xf3fc
                         0000F401   450 _g_CS240	=	0xf401
                         0000F406   451 _g_LOW	=	0xf406
                         0000F408   452 _g_HIGH	=	0xf408
                         0000F40A   453 _g_HEADER	=	0xf40a
                         0000F40B   454 _g_ASPCT1	=	0xf40b
                         0000F40D   455 _g_ASPCT2	=	0xf40d
                         0000F959   456 _g_QUETAB	=	0xf959
                         0000F971   457 _g_QUEBAK	=	0xf971
                         0000F975   458 _g_VOICAQ	=	0xf975
                         0000F9F5   459 _g_VOICBQ	=	0xf9f5
                         0000FA75   460 _g_VOICCQ	=	0xfa75
                         0000FAF5   461 _g_RS2IQ	=	0xfaf5
                         0000FAF5   462 _g_DPPAGE	=	0xfaf5
                         0000FAF6   463 _g_ACPAGE	=	0xfaf6
                         0000FAF7   464 _g_AVCSAV	=	0xfaf7
                         0000FAF8   465 _g_EXBRSA	=	0xfaf8
                         0000FAF9   466 _g_CHRCNT	=	0xfaf9
                         0000FAFA   467 _g_ROMA	=	0xfafa
                         0000FAFC   468 _g_MODE	=	0xfafc
                         0000FAFD   469 _g_NORUSE	=	0xfafd
                         0000FAFE   470 _g_XSAVE	=	0xfafe
                         0000FB00   471 _g_YSAVE	=	0xfb00
                         0000FB03   472 _g_RSTMP	=	0xfb03
                         0000FB03   473 _g_TOCNT	=	0xfb03
                         0000FB04   474 _g_RSFCB	=	0xfb04
                         0000FB06   475 _g_RSIQLN	=	0xfb06
                         0000FB07   476 _g_MEXBIh	=	0xfb07
                         0000FB0C   477 _g_OLDSTT	=	0xfb0c
                         0000FB0C   478 _g_OLDINT	=	0xfb0c
                         0000FB16   479 _g_DEVNUM	=	0xfb16
                         0000FB17   480 _g_DATCNT	=	0xfb17
                         0000FB1A   481 _g_ERRORS	=	0xfb1a
                         0000FB1B   482 _g_FLAGS	=	0xfb1b
                         0000FB1C   483 _g_ESTBLS	=	0xfb1c
                         0000FB1D   484 _g_COMMSK	=	0xfb1d
                         0000FB1E   485 _g_LSTCOM	=	0xfb1e
                         0000FB1F   486 _g_LSTMOD	=	0xfb1f
                         0000FB35   487 _g_PRSCNT	=	0xfb35
                         0000FB36   488 _g_SAVSP	=	0xfb36
                         0000FB38   489 _g_VOICEN	=	0xfb38
                         0000FB39   490 _g_SAVVOL	=	0xfb39
                         0000FB3B   491 _g_MCLLEN	=	0xfb3b
                         0000FB3C   492 _g_MCLPTR	=	0xfb3c
                         0000FB3E   493 _g_QUEUEN	=	0xfb3e
                         0000FB3F   494 _g_MUSICF	=	0xfb3f
                         0000FB40   495 _g_PLYCNT	=	0xfb40
                         0000FB41   496 _g_VCBA	=	0xfb41
                         0000FB66   497 _g_VCBB	=	0xfb66
                         0000FB8B   498 _g_VCBC	=	0xfb8b
                         0000FBB0   499 _g_ENSTOP	=	0xfbb0
                         0000FBB1   500 _g_BASROM	=	0xfbb1
                         0000FBB2   501 _g_LINTTB	=	0xfbb2
                         0000FBCA   502 _g_FSTPOS	=	0xfbca
                         0000FBCC   503 _g_CODSAV	=	0xfbcc
                         0000FBCD   504 _g_FNKSWI	=	0xfbcd
                         0000FBCE   505 _g_FNKFLG	=	0xfbce
                         0000FBD8   506 _g_ONGSBF	=	0xfbd8
                         0000FBD9   507 _g_CLIKFL	=	0xfbd9
                         0000FBDA   508 _g_OLDKEY	=	0xfbda
                         0000FBE5   509 _g_NEWKEY	=	0xfbe5
                         0000FBF0   510 _g_KEYBUF	=	0xfbf0
                         0000FC18   511 _g_LINWRK	=	0xfc18
                         0000FC40   512 _g_PATWRK	=	0xfc40
                         0000FC48   513 _g_BOTTOM	=	0xfc48
                         0000FC4A   514 _g_HIMEM	=	0xfc4a
                         0000FC4C   515 _g_TRPTBL	=	0xfc4c
                         0000FC9A   516 _g_RTYCNT	=	0xfc9a
                         0000FC9B   517 _g_INTFLG	=	0xfc9b
                         0000FC9C   518 _g_PADY	=	0xfc9c
                         0000FC9D   519 _g_PADX	=	0xfc9d
                         0000FC9E   520 _g_JIFFY	=	0xfc9e
                         0000FCA0   521 _g_INTVAL	=	0xfca0
                         0000FCA2   522 _g_INTCNT	=	0xfca2
                         0000FCA4   523 _g_LOWLIM	=	0xfca4
                         0000FCA5   524 _g_WINWID	=	0xfca5
                         0000FCA6   525 _g_GRPHED	=	0xfca6
                         0000FCA7   526 _g_ESCCNT	=	0xfca7
                         0000FCA8   527 _g_INSFLG	=	0xfca8
                         0000FCA9   528 _g_CSRSW	=	0xfca9
                         0000FCAA   529 _g_CSTYLE	=	0xfcaa
                         0000FCAB   530 _g_CAPST	=	0xfcab
                         0000FCAC   531 _g_KANAST	=	0xfcac
                         0000FCAD   532 _g_KANAMD	=	0xfcad
                         0000FCAE   533 _g_FLBMEM	=	0xfcae
                         0000FCAF   534 _g_SCRMOD	=	0xfcaf
                         0000FCB0   535 _g_OLDSCR	=	0xfcb0
                         0000FCB1   536 _g_CASPRV	=	0xfcb1
                         0000FCB2   537 _g_BRDATR	=	0xfcb2
                         0000FCB3   538 _g_GXPOS	=	0xfcb3
                         0000FCB5   539 _g_GYPOS	=	0xfcb5
                         0000FCBB   540 _g_DRWFLG	=	0xfcbb
                         0000FCBC   541 _g_DRWSCL	=	0xfcbc
                         0000FCBD   542 _g_DRWANG	=	0xfcbd
                         0000FCC1   543 _g_MNROM	=	0xfcc1
                         0000FCC1   544 _g_EXPTBL	=	0xfcc1
                         0000FCC5   545 _g_SLTTBL	=	0xfcc5
                         0000FCC9   546 _g_SLTATR	=	0xfcc9
                         0000FD09   547 _g_SLTWRK	=	0xfd09
                         0000FD89   548 _g_PROCNM	=	0xfd89
                         0000FFE7   549 _g_RG08SAV	=	0xffe7
                         0000FFE8   550 _g_RG09SAV	=	0xffe8
                         0000FFE9   551 _g_RG10SAV	=	0xffe9
                         0000FFEA   552 _g_RG11SAV	=	0xffea
                         0000FFEB   553 _g_RG12SAV	=	0xffeb
                         0000FFEC   554 _g_RG13SAV	=	0xffec
                         0000FFED   555 _g_RG14SAV	=	0xffed
                         0000FFEE   556 _g_RG15SAV	=	0xffee
                         0000FFEF   557 _g_RG16SAV	=	0xffef
                         0000FFF0   558 _g_RG17SAV	=	0xfff0
                         0000FFF1   559 _g_RG18SAV	=	0xfff1
                         0000FFF2   560 _g_RG19SAV	=	0xfff2
                         0000FFF3   561 _g_RG20SAV	=	0xfff3
                         0000FFF4   562 _g_RG21SAV	=	0xfff4
                         0000FFF5   563 _g_RG22SAV	=	0xfff5
                         0000FFF6   564 _g_RG23SAV	=	0xfff6
                         0000FFF7   565 _g_MINROM	=	0xfff7
                         0000FFF8   566 _g_SVFFF8	=	0xfff8
                         0000FFFA   567 _g_RG25SAV	=	0xfffa
                         0000FFFB   568 _g_RG26SAV	=	0xfffb
                         0000FFFC   569 _g_RG27SAV	=	0xfffc
                         0000FFFD   570 _g_SVFFFD	=	0xfffd
                         00000004   571 _g_CGTABL	=	0x0004
                         00000006   572 _g_VDP_DR	=	0x0006
                         00000007   573 _g_VDP_DW	=	0x0007
                         0000002B   574 _g_BASRVN	=	0x002b
                         0000002B   575 _g_ROMVersion	=	0x002b
                         0000002D   576 _g_MSXVER	=	0x002d
                         0000002E   577 _g_MSXMID	=	0x002e
                         00000034   578 _g_CHAR_16	=	0x0034
                                    579 ;C:\Users\reina\OneDrive\Documentos\MSXgl\engine/src/vdp.c:188: void VDP_SetModeText1()
                                    580 ;	---------------------------------
                                    581 ; Function VDP_SetModeText1
                                    582 ; ---------------------------------
    00000029                        583 _VDP_SetModeText1::
                                    584 ;C:\Users\reina\OneDrive\Documentos\MSXgl\engine/src/vdp.c:190: VDP_SetModeFlag(VDP_T1_MODE);
    00000029 3E 01            [ 7]  585 	ld	a, #0x01
    0000002B CDr00r00         [17]  586 	call	_VDP_SetModeFlag
                                    587 ;C:\Users\reina\OneDrive\Documentos\MSXgl\engine/src/vdp.c:191: VDP_SetLayoutTable(VDP_T1_ADDR_NT);
    0000002E 21 00 00         [10]  588 	ld	hl, #0x0000
    00000031 CDr10r03         [17]  589 	call	_VDP_SetLayoutTable
                                    590 ;C:\Users\reina\OneDrive\Documentos\MSXgl\engine/src/vdp.c:192: VDP_SetPatternTable(VDP_T1_ADDR_PT);
    00000034 21 00 08         [10]  591 	ld	hl, #0x0800
                                    592 ;C:\Users\reina\OneDrive\Documentos\MSXgl\engine/src/vdp.c:193: }
    00000037 C3rA8r03         [10]  593 	jp	_VDP_SetPatternTable
                                    594 ;C:\Users\reina\OneDrive\Documentos\MSXgl\engine/src/vdp.c:199: void VDP_SetModeMultiColor()
                                    595 ;	---------------------------------
                                    596 ; Function VDP_SetModeMultiColor
                                    597 ; ---------------------------------
    0000003A                        598 _VDP_SetModeMultiColor::
                                    599 ;C:\Users\reina\OneDrive\Documentos\MSXgl\engine/src/vdp.c:201: VDP_SetModeFlag(VDP_MC_MODE);
    0000003A 3E 02            [ 7]  600 	ld	a, #0x02
    0000003C CDr00r00         [17]  601 	call	_VDP_SetModeFlag
                                    602 ;C:\Users\reina\OneDrive\Documentos\MSXgl\engine/src/vdp.c:202: VDP_SetLayoutTable(VDP_MC_ADDR_NT);
    0000003F 21 00 08         [10]  603 	ld	hl, #0x0800
    00000042 CDr10r03         [17]  604 	call	_VDP_SetLayoutTable
                                    605 ;C:\Users\reina\OneDrive\Documentos\MSXgl\engine/src/vdp.c:203: VDP_SetPatternTable(VDP_MC_ADDR_PT);
    00000045 21 00 00         [10]  606 	ld	hl, #0x0000
    00000048 CDrA8r03         [17]  607 	call	_VDP_SetPatternTable
                                    608 ;C:\Users\reina\OneDrive\Documentos\MSXgl\engine/src/vdp.c:205: VDP_SetSpriteAttributeTable(VDP_MC_ADDR_SAT);
    0000004B 21 00 1B         [10]  609 	ld	hl, #0x1b00
    0000004E CDrDEr03         [17]  610 	call	_VDP_SetSpriteAttributeTable
                                    611 ;C:\Users\reina\OneDrive\Documentos\MSXgl\engine/src/vdp.c:206: VDP_SetSpritePatternTable(VDP_MC_ADDR_SPT);
    00000051 21 00 38         [10]  612 	ld	hl, #0x3800
                                    613 ;C:\Users\reina\OneDrive\Documentos\MSXgl\engine/src/vdp.c:208: }
    00000054 C3r37r04         [10]  614 	jp	_VDP_SetSpritePatternTable
                                    615 ;C:\Users\reina\OneDrive\Documentos\MSXgl\engine/src/vdp.c:214: void VDP_SetModeGraphic1()
                                    616 ;	---------------------------------
                                    617 ; Function VDP_SetModeGraphic1
                                    618 ; ---------------------------------
    00000057                        619 _VDP_SetModeGraphic1::
                                    620 ;C:\Users\reina\OneDrive\Documentos\MSXgl\engine/src/vdp.c:216: VDP_SetModeFlag(VDP_G1_MODE);
    00000057 AF               [ 4]  621 	xor	a, a
    00000058 CDr00r00         [17]  622 	call	_VDP_SetModeFlag
                                    623 ;C:\Users\reina\OneDrive\Documentos\MSXgl\engine/src/vdp.c:217: VDP_SetLayoutTable(VDP_G1_ADDR_NT);
    0000005B 21 00 18         [10]  624 	ld	hl, #0x1800
    0000005E CDr10r03         [17]  625 	call	_VDP_SetLayoutTable
                                    626 ;C:\Users\reina\OneDrive\Documentos\MSXgl\engine/src/vdp.c:218: VDP_SetColorTable(VDP_G1_ADDR_CT);
    00000061 21 00 20         [10]  627 	ld	hl, #0x2000
    00000064 CDr48r03         [17]  628 	call	_VDP_SetColorTable
                                    629 ;C:\Users\reina\OneDrive\Documentos\MSXgl\engine/src/vdp.c:219: VDP_SetPatternTable(VDP_G1_ADDR_PT);
    00000067 21 00 00         [10]  630 	ld	hl, #0x0000
    0000006A CDrA8r03         [17]  631 	call	_VDP_SetPatternTable
                                    632 ;C:\Users\reina\OneDrive\Documentos\MSXgl\engine/src/vdp.c:221: VDP_SetSpriteAttributeTable(VDP_G1_ADDR_SAT);
    0000006D 21 00 1B         [10]  633 	ld	hl, #0x1b00
    00000070 CDrDEr03         [17]  634 	call	_VDP_SetSpriteAttributeTable
                                    635 ;C:\Users\reina\OneDrive\Documentos\MSXgl\engine/src/vdp.c:222: VDP_SetSpritePatternTable(VDP_G1_ADDR_SPT);
    00000073 21 00 38         [10]  636 	ld	hl, #0x3800
                                    637 ;C:\Users\reina\OneDrive\Documentos\MSXgl\engine/src/vdp.c:224: }
    00000076 C3r37r04         [10]  638 	jp	_VDP_SetSpritePatternTable
                                    639 ;C:\Users\reina\OneDrive\Documentos\MSXgl\engine/src/vdp.c:230: void VDP_SetModeGraphic2()
                                    640 ;	---------------------------------
                                    641 ; Function VDP_SetModeGraphic2
                                    642 ; ---------------------------------
    00000079                        643 _VDP_SetModeGraphic2::
                                    644 ;C:\Users\reina\OneDrive\Documentos\MSXgl\engine/src/vdp.c:232: VDP_SetModeFlag(VDP_G2_MODE);
    00000079 3E 04            [ 7]  645 	ld	a, #0x04
    0000007B CDr00r00         [17]  646 	call	_VDP_SetModeFlag
                                    647 ;C:\Users\reina\OneDrive\Documentos\MSXgl\engine/src/vdp.c:233: VDP_SetLayoutTable(VDP_G2_ADDR_NT);
    0000007E 21 00 18         [10]  648 	ld	hl, #0x1800
    00000081 CDr10r03         [17]  649 	call	_VDP_SetLayoutTable
                                    650 ;C:\Users\reina\OneDrive\Documentos\MSXgl\engine/src/vdp.c:234: VDP_SetColorTable(VDP_G2_ADDR_CT);
    00000084 21 00 20         [10]  651 	ld	hl, #0x2000
    00000087 CDr48r03         [17]  652 	call	_VDP_SetColorTable
                                    653 ;C:\Users\reina\OneDrive\Documentos\MSXgl\engine/src/vdp.c:235: VDP_SetPatternTable(VDP_G2_ADDR_PT);
    0000008A 21 00 00         [10]  654 	ld	hl, #0x0000
    0000008D CDrA8r03         [17]  655 	call	_VDP_SetPatternTable
                                    656 ;C:\Users\reina\OneDrive\Documentos\MSXgl\engine/src/vdp.c:237: VDP_SetSpriteAttributeTable(VDP_G2_ADDR_SAT);
    00000090 21 00 1B         [10]  657 	ld	hl, #0x1b00
    00000093 CDrDEr03         [17]  658 	call	_VDP_SetSpriteAttributeTable
                                    659 ;C:\Users\reina\OneDrive\Documentos\MSXgl\engine/src/vdp.c:238: VDP_SetSpritePatternTable(VDP_G2_ADDR_SPT);
    00000096 21 00 38         [10]  660 	ld	hl, #0x3800
                                    661 ;C:\Users\reina\OneDrive\Documentos\MSXgl\engine/src/vdp.c:240: }
    00000099 C3r37r04         [10]  662 	jp	_VDP_SetSpritePatternTable
                                    663 ;C:\Users\reina\OneDrive\Documentos\MSXgl\engine/src/vdp.c:251: void VDP_ClearVRAM()
                                    664 ;	---------------------------------
                                    665 ; Function VDP_ClearVRAM
                                    666 ; ---------------------------------
    0000009C                        667 _VDP_ClearVRAM::
                                    668 ;C:\Users\reina\OneDrive\Documentos\MSXgl\engine/src/vdp.c:254: VDP_FillVRAM_16K(0, 0x0000, 0x4000);  // Clear 16 KB of VRAM
    0000009C 21 00 40         [10]  669 	ld	hl, #0x4000
    0000009F E5               [11]  670 	push	hl
    000000A0 11 00 00         [10]  671 	ld	de, #0x0000
    000000A3 AF               [ 4]  672 	xor	a, a
    000000A4 CDrD1r00         [17]  673 	call	_VDP_FillVRAM_16K
                                    674 ;C:\Users\reina\OneDrive\Documentos\MSXgl\engine/src/vdp.c:261: }
    000000A7 C9               [10]  675 	ret
                                    676 ;C:\Users\reina\OneDrive\Documentos\MSXgl\engine/src/vdp.c:272: void VDP_WriteVRAM_16K(const u8* src, u16 dest, u16 count)
                                    677 ;	---------------------------------
                                    678 ; Function VDP_WriteVRAM_16K
                                    679 ; ---------------------------------
    000000A8                        680 _VDP_WriteVRAM_16K::
                                    681 ;C:\Users\reina\OneDrive\Documentos\MSXgl\engine/src/vdp.c:341: __endasm;
    000000A8 FD 21 02 00      [14]  682 	ld	iy, #2
    000000AC FD 39            [15]  683 	add	iy, sp
    000000AE 7B               [ 4]  684 	ld	a, e
    000000AF F3               [ 4]  685 	di
    000000B0 D3 99            [11]  686 	out	(0x99), a
    000000B2 7A               [ 4]  687 	ld	a, d
    000000B3 E6 3F            [ 7]  688 	and	a, #0x3F
    000000B5 F6 40            [ 7]  689 	or	a, #0x40
    000000B7 FB               [ 4]  690 	ei
    000000B8 D3 99            [11]  691 	out	(0x99), a
    000000BA FD 5E 00         [19]  692 	ld	e, 0(iy)
    000000BD FD 56 01         [19]  693 	ld	d, 1(iy)
    000000C0 0E 98            [ 7]  694 	ld	c, #0x98
    000000C2 43               [ 4]  695 	ld	b, e
    000000C3 1B               [ 6]  696 	dec	de
    000000C4 14               [ 4]  697 	inc	d
    000000C5                        698 	 wrt16_loop_start:
    000000C5 ED A3            [16]  699 	outi
    000000C7 C2rC5r00         [10]  700 	jp	nz, wrt16_loop_start
    000000CA 15               [ 4]  701 	dec	d
    000000CB C2rC5r00         [10]  702 	jp	nz, wrt16_loop_start
    000000CE                        703 	 wrt16_loop_end:
                                    704 ;C:\Users\reina\OneDrive\Documentos\MSXgl\engine/src/vdp.c:342: }
    000000CE E1               [10]  705 	pop	hl
    000000CF F1               [10]  706 	pop	af
    000000D0 E9               [ 4]  707 	jp	(hl)
                                    708 ;C:\Users\reina\OneDrive\Documentos\MSXgl\engine/src/vdp.c:351: void VDP_FillVRAM_16K(u8 value, u16 dest, u16 count) __NAKED // Stack: 4 bytes
                                    709 ;	---------------------------------
                                    710 ; Function VDP_FillVRAM_16K
                                    711 ; ---------------------------------
    000000D1                        712 _VDP_FillVRAM_16K::
                                    713 ;C:\Users\reina\OneDrive\Documentos\MSXgl\engine/src/vdp.c:402: __endasm;
    000000D1 4F               [ 4]  714 	ld	c, a
    000000D2 7B               [ 4]  715 	ld	a, e
    000000D3 F3               [ 4]  716 	di
    000000D4 D3 99            [11]  717 	out	(0x99), a
    000000D6 7A               [ 4]  718 	ld	a, d
    000000D7 E6 3F            [ 7]  719 	and	a, #0x3F
    000000D9 F6 40            [ 7]  720 	or	a, #0x40
    000000DB D3 99            [11]  721 	out	(0x99), a
    000000DD FD E1            [14]  722 	pop	iy
    000000DF D1               [10]  723 	pop	de
    000000E0 79               [ 4]  724 	ld	a, c
    000000E1 43               [ 4]  725 	ld	b, e
    000000E2 1B               [ 6]  726 	dec	de
    000000E3 14               [ 4]  727 	inc	d
    000000E4                        728 	 fll16_loop_start:
    000000E4 D3 98            [11]  729 	out	(0x98), a
    000000E6 00               [ 4]  730 	nop
    000000E7 10 FB            [13]  731 	djnz	fll16_loop_start
    000000E9 15               [ 4]  732 	dec	d
    000000EA C2rE4r00         [10]  733 	jp	nz, fll16_loop_start
    000000ED                        734 	 fll16_loop_end:
    000000ED FB               [ 4]  735 	ei
    000000EE FD E9            [ 8]  736 	jp	(iy)
                                    737 ;C:\Users\reina\OneDrive\Documentos\MSXgl\engine/src/vdp.c:403: }
                                    738 ;C:\Users\reina\OneDrive\Documentos\MSXgl\engine/src/vdp.c:516: void VDP_ReadVRAM_16K(u16 src, u8* dest, u16 count)
                                    739 ;	---------------------------------
                                    740 ; Function VDP_ReadVRAM_16K
                                    741 ; ---------------------------------
    000000F0                        742 _VDP_ReadVRAM_16K::
                                    743 ;C:\Users\reina\OneDrive\Documentos\MSXgl\engine/src/vdp.c:586: __endasm;
    000000F0 FD 21 02 00      [14]  744 	ld	iy, #2
    000000F4 FD 39            [15]  745 	add	iy, sp
    000000F6 7D               [ 4]  746 	ld	a, l
    000000F7 F3               [ 4]  747 	di
    000000F8 D3 99            [11]  748 	out	(0x99), a
    000000FA 7C               [ 4]  749 	ld	a, h
    000000FB E6 3F            [ 7]  750 	and	a, #0x3F
    000000FD FB               [ 4]  751 	ei
    000000FE D3 99            [11]  752 	out	(0x99), a
    00000100 EB               [ 4]  753 	ex	de, hl
    00000101 FD 5E 00         [19]  754 	ld	e, 0(iy)
    00000104 FD 56 01         [19]  755 	ld	d, 1(iy)
    00000107 0E 98            [ 7]  756 	ld	c, #0x98
    00000109 43               [ 4]  757 	ld	b, e
    0000010A 1B               [ 6]  758 	dec	de
    0000010B 14               [ 4]  759 	inc	d
    0000010C                        760 	 rd16_loop_start:
    0000010C ED A2            [16]  761 	ini
    0000010E C2r0Cr01         [10]  762 	jp	nz, rd16_loop_start
    00000111 15               [ 4]  763 	dec	d
    00000112 C2r0Cr01         [10]  764 	jp	nz, rd16_loop_start
    00000115                        765 	 rd16_loop_end:
                                    766 ;C:\Users\reina\OneDrive\Documentos\MSXgl\engine/src/vdp.c:587: }
    00000115 E1               [10]  767 	pop	hl
    00000116 F1               [10]  768 	pop	af
    00000117 E9               [ 4]  769 	jp	(hl)
                                    770 ;C:\Users\reina\OneDrive\Documentos\MSXgl\engine/src/vdp.c:597: u8 VDP_Peek_16K(u16 dest) __PRESERVES(b, c, d, e, iyl, iyh)
                                    771 ;	---------------------------------
                                    772 ; Function VDP_Peek_16K
                                    773 ; ---------------------------------
    00000118                        774 _VDP_Peek_16K::
                                    775 ;C:\Users\reina\OneDrive\Documentos\MSXgl\engine/src/vdp.c:632: __endasm;
    00000118 7D               [ 4]  776 	ld	a, l
    00000119 F3               [ 4]  777 	di
    0000011A D3 99            [11]  778 	out	(0x99), a
    0000011C 7C               [ 4]  779 	ld	a, h
    0000011D E6 3F            [ 7]  780 	and	a, #0x3F
    0000011F D3 99            [11]  781 	out	(0x99), a
    00000121 29               [11]  782 	add	hl, hl
    00000122 FB               [ 4]  783 	ei
    00000123 DB 98            [11]  784 	in	a, (0x98)
                                    785 ;C:\Users\reina\OneDrive\Documentos\MSXgl\engine/src/vdp.c:633: }
    00000125 C9               [10]  786 	ret
                                    787 ;C:\Users\reina\OneDrive\Documentos\MSXgl\engine/src/vdp.c:641: void VDP_Poke_16K(u8 val, u16 dest) __PRESERVES(c, h, l, iyl, iyh)
                                    788 ;	---------------------------------
                                    789 ; Function VDP_Poke_16K
                                    790 ; ---------------------------------
    00000126                        791 _VDP_Poke_16K::
                                    792 ;C:\Users\reina\OneDrive\Documentos\MSXgl\engine/src/vdp.c:678: __endasm;
    00000126 47               [ 4]  793 	ld	b, a
    00000127 7B               [ 4]  794 	ld	a, e
    00000128 F3               [ 4]  795 	di
    00000129 D3 99            [11]  796 	out	(0x99), a
    0000012B 7A               [ 4]  797 	ld	a, d
    0000012C E6 3F            [ 7]  798 	and	a, #0x3F
    0000012E F6 40            [ 7]  799 	or	a, #0x40
    00000130 D3 99            [11]  800 	out	(0x99), a
    00000132 13               [ 6]  801 	inc	de
    00000133 78               [ 4]  802 	ld	a, b
    00000134 FB               [ 4]  803 	ei
    00000135 D3 98            [11]  804 	out	(0x98), a
                                    805 ;C:\Users\reina\OneDrive\Documentos\MSXgl\engine/src/vdp.c:679: }
    00000137 C9               [10]  806 	ret
                                    807 ;C:\Users\reina\OneDrive\Documentos\MSXgl\engine/src/vdp.c:869: u8 VDP_ReadStatus(u8 stat) __PRESERVES(b, c, d, e, h, iyl, iyh)
                                    808 ;	---------------------------------
                                    809 ; Function VDP_ReadStatus
                                    810 ; ---------------------------------
    00000138                        811 _VDP_ReadStatus::
                                    812 ;C:\Users\reina\OneDrive\Documentos\MSXgl\engine/src/vdp.c:896: __endasm;
    00000138 F3               [ 4]  813 	di
    00000139 D3 99            [11]  814 	out	(0x99), a
    0000013B 3E 8F            [ 7]  815 	ld	a, #(0x80 | 15)
    0000013D D3 99            [11]  816 	out	(0x99), a
    0000013F DB 99            [11]  817 	in	a, (0x99)
    00000141 6F               [ 4]  818 	ld	l, a
    00000142 AF               [ 4]  819 	xor	a
    00000143 D3 99            [11]  820 	out	(0x99), a
    00000145 3E 8F            [ 7]  821 	ld	a, #(0x80 | 15)
    00000147 FB               [ 4]  822 	ei
    00000148 D3 99            [11]  823 	out	(0x99),a
    0000014A 7D               [ 4]  824 	ld	a, l
                                    825 ;C:\Users\reina\OneDrive\Documentos\MSXgl\engine/src/vdp.c:897: }
    0000014B C9               [10]  826 	ret
                                    827 ;C:\Users\reina\OneDrive\Documentos\MSXgl\engine/src/vdp.c:901: void VDP_SetAdjustOffset(u8 offset)
                                    828 ;	---------------------------------
                                    829 ; Function VDP_SetAdjustOffset
                                    830 ; ---------------------------------
    0000014C                        831 _VDP_SetAdjustOffset::
    0000014C 4F               [ 4]  832 	ld	c, a
                                    833 ;C:\Users\reina\OneDrive\Documentos\MSXgl\engine/src/vdp.c:904: VDP_CommandWait(); // @todo Check if it's really needed. Cf. https://www.msx.org/wiki/VDP_Display_Registers#Control_Register_18
    0000014D CDr75r01         [17]  834 	call	_VDP_CommandWait
                                    835 ;C:\Users\reina\OneDrive\Documentos\MSXgl\engine/src/vdp.c:906: VDP_RegWrite(18, offset);
    00000150 69               [ 4]  836 	ld	l, c
                                    837 ;	spillPairReg hl
                                    838 ;	spillPairReg hl
    00000151 3E 12            [ 7]  839 	ld	a, #0x12
                                    840 ;C:\Users\reina\OneDrive\Documentos\MSXgl\engine/src/vdp.c:907: }
    00000153 C3rCFr02         [10]  841 	jp	_VDP_RegWrite
                                    842 ;C:\Users\reina\OneDrive\Documentos\MSXgl\engine/src/vdp.c:913: void VDP_SetPalette(const u8* pal) __FASTCALL __PRESERVES(d, e, iyl, iyh)
                                    843 ;	---------------------------------
                                    844 ; Function VDP_SetPalette
                                    845 ; ---------------------------------
    00000156                        846 _VDP_SetPalette::
                                    847 ;C:\Users\reina\OneDrive\Documentos\MSXgl\engine/src/vdp.c:937: __endasm;
    00000156 3E 01            [ 7]  848 	ld	a, #1
    00000158 D3 99            [11]  849 	out	(0x99), a
    0000015A 3E 90            [ 7]  850 	ld	a, #(0x80 | 16)
    0000015C FB               [ 4]  851 	ei
    0000015D D3 99            [11]  852 	out	(0x99), a
    0000015F 0E 9A            [ 7]  853 	ld	c, #0x9A
    00000161 06 1E            [ 7]  854 	ld	b, #30
    00000163 ED B3            [21]  855 	otir
                                    856 ;C:\Users\reina\OneDrive\Documentos\MSXgl\engine/src/vdp.c:938: }
    00000165 C9               [10]  857 	ret
                                    858 ;C:\Users\reina\OneDrive\Documentos\MSXgl\engine/src/vdp.c:964: void VDP_SetPaletteEntry(u8 index, u16 color)
                                    859 ;	---------------------------------
                                    860 ; Function VDP_SetPaletteEntry
                                    861 ; ---------------------------------
    00000166                        862 _VDP_SetPaletteEntry::
                                    863 ;C:\Users\reina\OneDrive\Documentos\MSXgl\engine/src/vdp.c:978: __endasm;
    00000166 F3               [ 4]  864 	di
    00000167 D3 99            [11]  865 	out	(_g_VDP_RegPort), a
    00000169 3E 90            [ 7]  866 	ld	a, #(0x80 | 16)
    0000016B D3 99            [11]  867 	out	(_g_VDP_RegPort), a
    0000016D 7B               [ 4]  868 	ld	a, e
    0000016E D3 9A            [11]  869 	out	(_g_VDP_PalPort), a
    00000170 7A               [ 4]  870 	ld	a, d
    00000171 FB               [ 4]  871 	ei
    00000172 D3 9A            [11]  872 	out	(_g_VDP_PalPort), a
                                    873 ;C:\Users\reina\OneDrive\Documentos\MSXgl\engine/src/vdp.c:979: }
    00000174 C9               [10]  874 	ret
                                    875 ;C:\Users\reina\OneDrive\Documentos\MSXgl\engine/src/vdp.c:1295: void VDP_CommandWait() __PRESERVES(b, c, d, e, h, l, iyl, iyh)
                                    876 ;	---------------------------------
                                    877 ; Function VDP_CommandWait
                                    878 ; ---------------------------------
    00000175                        879 _VDP_CommandWait::
                                    880 ;C:\Users\reina\OneDrive\Documentos\MSXgl\engine/src/vdp.c:1326: __endasm;
    00000175                        881 	 wait_vdp_ready:
    00000175 3E 02            [ 7]  882 	ld	a, #2
    00000177 F3               [ 4]  883 	di
    00000178 D3 99            [11]  884 	out	(0x99), a
    0000017A 3E 8F            [ 7]  885 	ld	a, #(0x80 | 15)
    0000017C D3 99            [11]  886 	out	(0x99), a
    0000017E DB 99            [11]  887 	in	a, (0x99)
    00000180 1F               [ 4]  888 	rra
    00000181 3E 00            [ 7]  889 	ld	a, #0
    00000183 D3 99            [11]  890 	out	(0x99), a
    00000185 3E 8F            [ 7]  891 	ld	a, #(0x80 | 15)
    00000187 FB               [ 4]  892 	ei
    00000188 D3 99            [11]  893 	out	(0x99), a
    0000018A DAr75r01         [10]  894 	jp	c, wait_vdp_ready
                                    895 ;C:\Users\reina\OneDrive\Documentos\MSXgl\engine/src/vdp.c:1327: }
    0000018D C9               [10]  896 	ret
                                    897 ;C:\Users\reina\OneDrive\Documentos\MSXgl\engine/src/vdp.c:1331: void VPD_CommandSetupR32()
                                    898 ;	---------------------------------
                                    899 ; Function VPD_CommandSetupR32
                                    900 ; ---------------------------------
    0000018E                        901 _VPD_CommandSetupR32::
                                    902 ;C:\Users\reina\OneDrive\Documentos\MSXgl\engine/src/vdp.c:1333: VDP_CommandWait();
    0000018E CDr75r01         [17]  903 	call	_VDP_CommandWait
                                    904 ;C:\Users\reina\OneDrive\Documentos\MSXgl\engine/src/vdp.c:1334: ASM_REG_WRITE_INC(g_VDP_Command, 32, 15);
    00000191 3E 20            [ 7]  905 	ld a, #(32) 
    00000193 F3               [ 4]  906 	di 
    00000194 D3 99            [11]  907 	out (0x99), a 
    00000196 3E 91            [ 7]  908 	ld a, #((0x80 | 17)) 
    00000198 FB               [ 4]  909 	ei 
    00000199 D3 99            [11]  910 	out (0x99), a 
    0000019B 21r1Er00         [10]  911 	ld hl, #(_g_VDP_Command) 
    0000019E 0E 9B            [ 7]  912 	ld c, #(0x9B) 
    000001A0 F3               [ 4]  913 	di 
                                    914 	.rept 15 -1 
                                    915 	outi 
                                    916 	.endm 
    000001A1 ED A3            [16]    1 	outi 
    000001A3 ED A3            [16]    1 	outi 
    000001A5 ED A3            [16]    1 	outi 
    000001A7 ED A3            [16]    1 	outi 
    000001A9 ED A3            [16]    1 	outi 
    000001AB ED A3            [16]    1 	outi 
    000001AD ED A3            [16]    1 	outi 
    000001AF ED A3            [16]    1 	outi 
    000001B1 ED A3            [16]    1 	outi 
    000001B3 ED A3            [16]    1 	outi 
    000001B5 ED A3            [16]    1 	outi 
    000001B7 ED A3            [16]    1 	outi 
    000001B9 ED A3            [16]    1 	outi 
    000001BB ED A3            [16]    1 	outi 
    000001BD FB               [ 4]  917 	ei 
    000001BE ED A3            [16]  918 	outi ; 'ei' included 
                                    919 ;C:\Users\reina\OneDrive\Documentos\MSXgl\engine/src/vdp.c:1335: }
    000001C0 C9               [10]  920 	ret
                                    921 ;C:\Users\reina\OneDrive\Documentos\MSXgl\engine/src/vdp.c:1339: void VPD_CommandSetupR36()
                                    922 ;	---------------------------------
                                    923 ; Function VPD_CommandSetupR36
                                    924 ; ---------------------------------
    000001C1                        925 _VPD_CommandSetupR36::
                                    926 ;C:\Users\reina\OneDrive\Documentos\MSXgl\engine/src/vdp.c:1341: VDP_CommandWait();
    000001C1 CDr75r01         [17]  927 	call	_VDP_CommandWait
                                    928 ;C:\Users\reina\OneDrive\Documentos\MSXgl\engine/src/vdp.c:1342: ASM_REG_WRITE_INC(g_VDP_Command + 4, 36, 11);
    000001C4 3E 24            [ 7]  929 	ld a, #(36) 
    000001C6 F3               [ 4]  930 	di 
    000001C7 D3 99            [11]  931 	out (0x99), a 
    000001C9 3E 91            [ 7]  932 	ld a, #((0x80 | 17)) 
    000001CB FB               [ 4]  933 	ei 
    000001CC D3 99            [11]  934 	out (0x99), a 
    000001CE 21r22r00         [10]  935 	ld hl, #(_g_VDP_Command + 4) 
    000001D1 0E 9B            [ 7]  936 	ld c, #(0x9B) 
    000001D3 F3               [ 4]  937 	di 
                                    938 	.rept 11 -1 
                                    939 	outi 
                                    940 	.endm 
    000001D4 ED A3            [16]    1 	outi 
    000001D6 ED A3            [16]    1 	outi 
    000001D8 ED A3            [16]    1 	outi 
    000001DA ED A3            [16]    1 	outi 
    000001DC ED A3            [16]    1 	outi 
    000001DE ED A3            [16]    1 	outi 
    000001E0 ED A3            [16]    1 	outi 
    000001E2 ED A3            [16]    1 	outi 
    000001E4 ED A3            [16]    1 	outi 
    000001E6 ED A3            [16]    1 	outi 
    000001E8 FB               [ 4]  941 	ei 
    000001E9 ED A3            [16]  942 	outi ; 'ei' included 
                                    943 ;C:\Users\reina\OneDrive\Documentos\MSXgl\engine/src/vdp.c:1343: }
    000001EB C9               [10]  944 	ret
                                    945 ;C:\Users\reina\OneDrive\Documentos\MSXgl\engine/src/vdp.c:1349: void VPD_CommandWriteLoop(const u8* addr) __FASTCALL __PRESERVES(d, e, iyl, iyh)
                                    946 ;	---------------------------------
                                    947 ; Function VPD_CommandWriteLoop
                                    948 ; ---------------------------------
    000001EC                        949 _VPD_CommandWriteLoop::
                                    950 ;C:\Users\reina\OneDrive\Documentos\MSXgl\engine/src/vdp.c:1387: __endasm;
    000001EC 3E AC            [ 7]  951 	ld	a, #(0x80 | 44)
    000001EE F3               [ 4]  952 	di
    000001EF D3 99            [11]  953 	out	(0x99), a
    000001F1 3E 91            [ 7]  954 	ld	a, #(0x80 | 17)
    000001F3 D3 99            [11]  955 	out	(0x99), a
    000001F5 3E 02            [ 7]  956 	ld	a, #2
    000001F7 D3 99            [11]  957 	out	(0x99), a
    000001F9 3E 8F            [ 7]  958 	ld	a, #(0x80 | 15)
    000001FB D3 99            [11]  959 	out	(0x99), a
    000001FD 23               [ 6]  960 	inc	hl
    000001FE 0E 9B            [ 7]  961 	ld	c, #0x9B
    00000200                        962 	 write_loop:
    00000200 DB 99            [11]  963 	in	a, (0x99)
    00000202 1F               [ 4]  964 	rra
    00000203 D2r0Br02         [10]  965 	jp	nc, write_finished
    00000206 ED A3            [16]  966 	outi
    00000208 C3r00r02         [10]  967 	jp	write_loop
    0000020B                        968 	 write_finished:
    0000020B AF               [ 4]  969 	xor	a
    0000020C D3 99            [11]  970 	out	(0x99), a
    0000020E 3E 8F            [ 7]  971 	ld	a, #(0x80 | 15)
    00000210 FB               [ 4]  972 	ei
    00000211 D3 99            [11]  973 	out	(0x99), a
                                    974 ;C:\Users\reina\OneDrive\Documentos\MSXgl\engine/src/vdp.c:1388: }
    00000213 C9               [10]  975 	ret
                                    976 ;C:\Users\reina\OneDrive\Documentos\MSXgl\engine/src/vdp.c:1447: void VDP_Initialize()
                                    977 ;	---------------------------------
                                    978 ; Function VDP_Initialize
                                    979 ; ---------------------------------
    00000214                        980 _VDP_Initialize::
                                    981 ;C:\Users\reina\OneDrive\Documentos\MSXgl\engine/src/vdp.c:1455: __endasm;
    00000214 21 DF F3         [10]  982 	ld	hl, #0xF3DF
    00000217 11r00r00         [10]  983 	ld	de, #_g_VDP_REGSAV+0
    0000021A 01 08 00         [10]  984 	ld	bc, #8
    0000021D ED B0            [21]  985 	ldir
                                    986 ;C:\Users\reina\OneDrive\Documentos\MSXgl\engine/src/vdp.c:1464: __endasm;
    0000021F 21 E7 FF         [10]  987 	ld	hl, #0xFFE7
    00000222 11r08r00         [10]  988 	ld	de, #_g_VDP_REGSAV+8
    00000225 01 10 00         [10]  989 	ld	bc, #16
    00000228 ED B0            [21]  990 	ldir
                                    991 ;C:\Users\reina\OneDrive\Documentos\MSXgl\engine/src/vdp.c:1478: g_VDPInitilized = TRUE;
    0000022A 21r00r00         [10]  992 	ld	hl, #_g_VDPInitilized
    0000022D 36 01            [10]  993 	ld	(hl), #0x01
                                    994 ;C:\Users\reina\OneDrive\Documentos\MSXgl\engine/src/vdp.c:1480: }
    0000022F C9               [10]  995 	ret
                                    996 ;C:\Users\reina\OneDrive\Documentos\MSXgl\engine/src/vdp.c:1488: void VDP_SetMode(const u8 mode)
                                    997 ;	---------------------------------
                                    998 ; Function VDP_SetMode
                                    999 ; ---------------------------------
    00000230                       1000 _VDP_SetMode::
    00000230 4F               [ 4] 1001 	ld	c, a
                                   1002 ;C:\Users\reina\OneDrive\Documentos\MSXgl\engine/src/vdp.c:1491: if(!g_VDPInitilized)
    00000231 3Ar00r00         [13] 1003 	ld	a, (_g_VDPInitilized+0)
    00000234 B7               [ 4] 1004 	or	a, a
    00000235 20 05            [12] 1005 	jr	NZ, 00102$
                                   1006 ;C:\Users\reina\OneDrive\Documentos\MSXgl\engine/src/vdp.c:1492: VDP_Initialize();
    00000237 C5               [11] 1007 	push	bc
    00000238 CDr14r02         [17] 1008 	call	_VDP_Initialize
    0000023B C1               [10] 1009 	pop	bc
    0000023C                       1010 00102$:
                                   1011 ;C:\Users\reina\OneDrive\Documentos\MSXgl\engine/src/vdp.c:1499: g_VDP_Data.Mode = mode;
    0000023C 21r1Cr00         [10] 1012 	ld	hl, #_g_VDP_Data
                                   1013 ;C:\Users\reina\OneDrive\Documentos\MSXgl\engine/src/vdp.c:1500: switch(mode)
    0000023F 79               [ 4] 1014 	ld	a,c
    00000240 77               [ 7] 1015 	ld	(hl),a
    00000241 B7               [ 4] 1016 	or	a, a
    00000242 28 10            [12] 1017 	jr	Z, 00103$
    00000244 79               [ 4] 1018 	ld	a, c
    00000245 3D               [ 4] 1019 	dec	a
    00000246 28 12            [12] 1020 	jr	Z, 00104$
    00000248 79               [ 4] 1021 	ld	a,c
    00000249 FE 02            [ 7] 1022 	cp	a,#0x02
    0000024B 28 13            [12] 1023 	jr	Z, 00105$
    0000024D D6 03            [ 7] 1024 	sub	a, #0x03
    0000024F 28 15            [12] 1025 	jr	Z, 00106$
    00000251 C3r69r02         [10] 1026 	jp	00113$
                                   1027 ;C:\Users\reina\OneDrive\Documentos\MSXgl\engine/src/vdp.c:1507: case VDP_MODE_TEXT1:
    00000254                       1028 00103$:
                                   1029 ;C:\Users\reina\OneDrive\Documentos\MSXgl\engine/src/vdp.c:1508: VDP_SetModeText1();
    00000254 CDr29r00         [17] 1030 	call	_VDP_SetModeText1
                                   1031 ;C:\Users\reina\OneDrive\Documentos\MSXgl\engine/src/vdp.c:1509: break;
    00000257 C3r69r02         [10] 1032 	jp	00113$
                                   1033 ;C:\Users\reina\OneDrive\Documentos\MSXgl\engine/src/vdp.c:1514: case VDP_MODE_MULTICOLOR:
    0000025A                       1034 00104$:
                                   1035 ;C:\Users\reina\OneDrive\Documentos\MSXgl\engine/src/vdp.c:1515: VDP_SetModeMultiColor();
    0000025A CDr3Ar00         [17] 1036 	call	_VDP_SetModeMultiColor
                                   1037 ;C:\Users\reina\OneDrive\Documentos\MSXgl\engine/src/vdp.c:1516: break;
    0000025D C3r69r02         [10] 1038 	jp	00113$
                                   1039 ;C:\Users\reina\OneDrive\Documentos\MSXgl\engine/src/vdp.c:1521: case VDP_MODE_GRAPHIC1:
    00000260                       1040 00105$:
                                   1041 ;C:\Users\reina\OneDrive\Documentos\MSXgl\engine/src/vdp.c:1522: VDP_SetModeGraphic1();
    00000260 CDr57r00         [17] 1042 	call	_VDP_SetModeGraphic1
                                   1043 ;C:\Users\reina\OneDrive\Documentos\MSXgl\engine/src/vdp.c:1523: break;
    00000263 C3r69r02         [10] 1044 	jp	00113$
                                   1045 ;C:\Users\reina\OneDrive\Documentos\MSXgl\engine/src/vdp.c:1528: case VDP_MODE_GRAPHIC2:
    00000266                       1046 00106$:
                                   1047 ;C:\Users\reina\OneDrive\Documentos\MSXgl\engine/src/vdp.c:1529: VDP_SetModeGraphic2();
    00000266 CDr79r00         [17] 1048 	call	_VDP_SetModeGraphic2
                                   1049 ;C:\Users\reina\OneDrive\Documentos\MSXgl\engine/src/vdp.h:703: inline void VDP_EnableDisplay(bool enable) { VDP_RegWriteBakMask(1, (u8)~R01_BL, enable ? R01_BL : 0); }
    00000269                       1050 00113$:
    00000269 3E 40            [ 7] 1051 	ld	a, #0x40
    0000026B F5               [11] 1052 	push	af
    0000026C 33               [ 6] 1053 	inc	sp
    0000026D 2E BF            [ 7] 1054 	ld	l, #0xbf
                                   1055 ;	spillPairReg hl
                                   1056 ;	spillPairReg hl
    0000026F 3E 01            [ 7] 1057 	ld	a, #0x01
    00000271 CDrEEr02         [17] 1058 	call	_VDP_RegWriteBakMask
                                   1059 ;C:\Users\reina\OneDrive\Documentos\MSXgl\engine/src/vdp.h:710: inline void VDP_EnableVBlank(bool enable) { VDP_RegWriteBakMask(1, (u8)~R01_IE0, enable ? R01_IE0 : 0); }
    00000274 3E 20            [ 7] 1060 	ld	a, #0x20
    00000276 F5               [11] 1061 	push	af
    00000277 33               [ 6] 1062 	inc	sp
    00000278 2E DF            [ 7] 1063 	ld	l, #0xdf
                                   1064 ;	spillPairReg hl
                                   1065 ;	spillPairReg hl
    0000027A 3E 01            [ 7] 1066 	ld	a, #0x01
    0000027C CDrEEr02         [17] 1067 	call	_VDP_RegWriteBakMask
                                   1068 ;C:\Users\reina\OneDrive\Documentos\MSXgl\engine/src/vdp.c:1612: VDP_EnableVBlank(TRUE);
                                   1069 ;C:\Users\reina\OneDrive\Documentos\MSXgl\engine/src/vdp.c:1635: }
    0000027F C9               [10] 1070 	ret
                                   1071 ;C:\Users\reina\OneDrive\Documentos\MSXgl\engine/src/vdp.c:1641: u8 VDP_GetVersion() __NAKED
                                   1072 ;	---------------------------------
                                   1073 ; Function VDP_GetVersion
                                   1074 ; ---------------------------------
    00000280                       1075 _VDP_GetVersion::
                                   1076 ;C:\Users\reina\OneDrive\Documentos\MSXgl\engine/src/vdp.c:1710: __endasm;
    00000280                       1077 	 VDP_GetVersionAsm:
    00000280 CDr9Fr02         [17] 1078 	call	VDP_IsTMS9918A
    00000283 C8               [11] 1079 	ret	z
    00000284 3E 01            [ 7] 1080 	ld	a, #1
    00000286 F3               [ 4] 1081 	di
    00000287 D3 99            [11] 1082 	out	(0x99), a
    00000289 3E 8F            [ 7] 1083 	ld	a, #(0x80 | 15)
    0000028B D3 99            [11] 1084 	out	(0x99), a
    0000028D DB 99            [11] 1085 	in	a, (0x99)
    0000028F E6 3E            [ 7] 1086 	and	#0b00111110
    00000291 0F               [ 4] 1087 	rrca
    00000292 08               [ 4] 1088 	ex	af, af'					; '
    00000293 AF               [ 4] 1089 	xor	a
    00000294 D3 99            [11] 1090 	out	(0x99), a
    00000296 3E 8F            [ 7] 1091 	ld	a, #(0x80 | 15)
    00000298 FB               [ 4] 1092 	ei
    00000299 D3 99            [11] 1093 	out	(0x99), a
    0000029B 08               [ 4] 1094 	ex	af, af'					; '
    0000029C C0               [11] 1095 	ret	nz
    0000029D 3C               [ 4] 1096 	inc	a
    0000029E C9               [10] 1097 	ret
    0000029F                       1098 	 VDP_IsTMS9918A:
    0000029F AF               [ 4] 1099 	xor	a
    000002A0 F3               [ 4] 1100 	di
    000002A1 D3 99            [11] 1101 	out	(0x99), a
    000002A3 3E 8F            [ 7] 1102 	ld	a, #(0x80 | 15)
    000002A5 D3 99            [11] 1103 	out	(0x99), a
    000002A7 DB 99            [11] 1104 	in	a, (0x99)
    000002A9                       1105 	 VDP_IsTMS9918A_Wait:
    000002A9 DB 99            [11] 1106 	in	a,(0x99)
    000002AB A7               [ 4] 1107 	and	a
    000002AC F2rA9r02         [10] 1108 	jp	p, VDP_IsTMS9918A_Wait
    000002AF 3E 02            [ 7] 1109 	ld	a, #2
    000002B1 D3 99            [11] 1110 	out	(0x99), a
    000002B3 3E 8F            [ 7] 1111 	ld	a, #(0x80 | 15)
    000002B5 D3 99            [11] 1112 	out	(0x99), a
    000002B7 DB 99            [11] 1113 	in	a, (0x99)
    000002B9 08               [ 4] 1114 	ex	af, af'					; '
    000002BA AF               [ 4] 1115 	xor	a
    000002BB D3 99            [11] 1116 	out	(0x99), a
    000002BD 3E 8F            [ 7] 1117 	ld	a, #(0x80 | 15)
    000002BF D3 99            [11] 1118 	out	(0x99), a
    000002C1 3A E6 F3         [13] 1119 	ld	a, (0xF3E6)
    000002C4 D3 99            [11] 1120 	out	(0x99), a
    000002C6 3E 87            [ 7] 1121 	ld	a, #(0x80 | 7)
    000002C8 FB               [ 4] 1122 	ei
    000002C9 D3 99            [11] 1123 	out	(0x99), a
    000002CB 08               [ 4] 1124 	ex	af, af'					; '
    000002CC E6 40            [ 7] 1125 	and	#0b01000000
    000002CE C9               [10] 1126 	ret
                                   1127 ;C:\Users\reina\OneDrive\Documentos\MSXgl\engine/src/vdp.c:1711: }
                                   1128 ;C:\Users\reina\OneDrive\Documentos\MSXgl\engine/src/vdp.c:1719: void VDP_RegWrite(u8 reg, u8 value) __PRESERVES(b, c, d, e, iyl, iyh)
                                   1129 ;	---------------------------------
                                   1130 ; Function VDP_RegWrite
                                   1131 ; ---------------------------------
    000002CF                       1132 _VDP_RegWrite::
                                   1133 ;C:\Users\reina\OneDrive\Documentos\MSXgl\engine/src/vdp.c:1733: __endasm;
    000002CF 67               [ 4] 1134 	ld	h, a
    000002D0 7D               [ 4] 1135 	ld	a, l
    000002D1 F3               [ 4] 1136 	di
    000002D2 D3 99            [11] 1137 	out	(0x99), a
    000002D4 7C               [ 4] 1138 	ld	a, h
    000002D5 C6 80            [ 7] 1139 	add	#0x80
    000002D7 FB               [ 4] 1140 	ei
    000002D8 D3 99            [11] 1141 	out	(0x99), a
                                   1142 ;C:\Users\reina\OneDrive\Documentos\MSXgl\engine/src/vdp.c:1734: }
    000002DA C9               [10] 1143 	ret
                                   1144 ;C:\Users\reina\OneDrive\Documentos\MSXgl\engine/src/vdp.c:1742: void VDP_RegWriteBak(u8 reg, u8 value) __PRESERVES(d, e, iyl, iyh)
                                   1145 ;	---------------------------------
                                   1146 ; Function VDP_RegWriteBak
                                   1147 ; ---------------------------------
    000002DB                       1148 _VDP_RegWriteBak::
                                   1149 ;C:\Users\reina\OneDrive\Documentos\MSXgl\engine/src/vdp.c:1762: __endasm;
    000002DB 4F               [ 4] 1150 	ld	c, a
    000002DC 7D               [ 4] 1151 	ld	a, l
    000002DD 06 00            [ 7] 1152 	ld	b, #0
    000002DF 21r00r00         [10] 1153 	ld	hl, #_g_VDP_REGSAV
    000002E2 09               [11] 1154 	add	hl, bc
    000002E3 77               [ 7] 1155 	ld	(hl), a
    000002E4 F3               [ 4] 1156 	di
    000002E5 D3 99            [11] 1157 	out	(0x99), a
    000002E7 79               [ 4] 1158 	ld	a, c
    000002E8 C6 80            [ 7] 1159 	add	#0x80
    000002EA FB               [ 4] 1160 	ei
    000002EB D3 99            [11] 1161 	out	(0x99), a
                                   1162 ;C:\Users\reina\OneDrive\Documentos\MSXgl\engine/src/vdp.c:1763: }
    000002ED C9               [10] 1163 	ret
                                   1164 ;C:\Users\reina\OneDrive\Documentos\MSXgl\engine/src/vdp.c:1772: void VDP_RegWriteBakMask(u8 reg, u8 mask, u8 flag)
                                   1165 ;	---------------------------------
                                   1166 ; Function VDP_RegWriteBakMask
                                   1167 ; ---------------------------------
    000002EE                       1168 _VDP_RegWriteBakMask::
    000002EE DD E5            [15] 1169 	push	ix
    000002F0 DD 21 00 00      [14] 1170 	ld	ix,#0
    000002F4 DD 39            [15] 1171 	add	ix,sp
    000002F6 4F               [ 4] 1172 	ld	c, a
    000002F7 5D               [ 4] 1173 	ld	e, l
                                   1174 ;C:\Users\reina\OneDrive\Documentos\MSXgl\engine/src/vdp.c:1774: u8 value = g_VDP_REGSAV[reg];
    000002F8 21r00r00         [10] 1175 	ld	hl, #_g_VDP_REGSAV+0
    000002FB 06 00            [ 7] 1176 	ld	b, #0x00
    000002FD 09               [11] 1177 	add	hl, bc
    000002FE 7E               [ 7] 1178 	ld	a, (hl)
                                   1179 ;C:\Users\reina\OneDrive\Documentos\MSXgl\engine/src/vdp.c:1775: value &= mask;
    000002FF A3               [ 4] 1180 	and	a, e
                                   1181 ;C:\Users\reina\OneDrive\Documentos\MSXgl\engine/src/vdp.c:1776: value |= flag;
    00000300 DD B6 04         [19] 1182 	or	a, 4 (ix)
    00000303 6F               [ 4] 1183 	ld	l, a
                                   1184 ;	spillPairReg hl
                                   1185 ;	spillPairReg hl
                                   1186 ;C:\Users\reina\OneDrive\Documentos\MSXgl\engine/src/vdp.c:1777: VDP_RegWriteBak(reg, value);
    00000304 79               [ 4] 1187 	ld	a, c
    00000305 CDrDBr02         [17] 1188 	call	_VDP_RegWriteBak
                                   1189 ;C:\Users\reina\OneDrive\Documentos\MSXgl\engine/src/vdp.c:1778: }
    00000308 DD E1            [14] 1190 	pop	ix
    0000030A E1               [10] 1191 	pop	hl
    0000030B 33               [ 6] 1192 	inc	sp
    0000030C E9               [ 4] 1193 	jp	(hl)
                                   1194 ;C:\Users\reina\OneDrive\Documentos\MSXgl\engine/src/vdp.c:1782: u8 VDP_ReadDefaultStatus() __PRESERVES(b, c, d, e, h, l, iyl, iyh)
                                   1195 ;	---------------------------------
                                   1196 ; Function VDP_ReadDefaultStatus
                                   1197 ; ---------------------------------
    0000030D                       1198 _VDP_ReadDefaultStatus::
                                   1199 ;C:\Users\reina\OneDrive\Documentos\MSXgl\engine/src/vdp.c:1786: __endasm;
    0000030D DB 99            [11] 1200 	in	a, (0x99)
                                   1201 ;C:\Users\reina\OneDrive\Documentos\MSXgl\engine/src/vdp.c:1787: }
    0000030F C9               [10] 1202 	ret
                                   1203 ;C:\Users\reina\OneDrive\Documentos\MSXgl\engine/src/vdp.c:1804: void VDP_SetLayoutTable(VADDR addr)
                                   1204 ;	---------------------------------
                                   1205 ; Function VDP_SetLayoutTable
                                   1206 ; ---------------------------------
    00000310                       1207 _VDP_SetLayoutTable::
                                   1208 ;C:\Users\reina\OneDrive\Documentos\MSXgl\engine/src/vdp.c:1806: g_ScreenLayoutLow = (u16)addr;
    00000310 22r31r00         [16] 1209 	ld	(_g_ScreenLayoutLow), hl
                                   1210 ;C:\Users\reina\OneDrive\Documentos\MSXgl\engine/src/vdp.c:1809: reg = (u8)(addr >> 10);
    00000313 7C               [ 4] 1211 	ld	a, h
    00000314 0F               [ 4] 1212 	rrca
    00000315 0F               [ 4] 1213 	rrca
    00000316 E6 3F            [ 7] 1214 	and	a, #0x3f
    00000318 4F               [ 4] 1215 	ld	c, a
    00000319 06 00            [ 7] 1216 	ld	b, #0x00
                                   1217 ;C:\Users\reina\OneDrive\Documentos\MSXgl\engine/src/vdp.c:1811: switch(g_VDP_Data.Mode)
    0000031B 3Ar1Cr00         [13] 1218 	ld	a, (#_g_VDP_Data + 0)
    0000031E FE 04            [ 7] 1219 	cp	a, #0x04
    00000320 28 13            [12] 1220 	jr	Z, 00101$
    00000322 FE 06            [ 7] 1221 	cp	a, #0x06
    00000324 28 18            [12] 1222 	jr	Z, 00105$
    00000326 FE 07            [ 7] 1223 	cp	a, #0x07
    00000328 28 14            [12] 1224 	jr	Z, 00105$
    0000032A FE 08            [ 7] 1225 	cp	a, #0x08
    0000032C 28 0E            [12] 1226 	jr	Z, 00103$
    0000032E D6 09            [ 7] 1227 	sub	a, #0x09
    00000330 28 0A            [12] 1228 	jr	Z, 00103$
    00000332 C3r42r03         [10] 1229 	jp	00106$
                                   1230 ;C:\Users\reina\OneDrive\Documentos\MSXgl\engine/src/vdp.c:1813: case VDP_MODE_TEXT2:
    00000335                       1231 00101$:
                                   1232 ;C:\Users\reina\OneDrive\Documentos\MSXgl\engine/src/vdp.c:1814: reg |= 0b11;
    00000335 79               [ 4] 1233 	ld	a, c
    00000336 F6 03            [ 7] 1234 	or	a, #0x03
    00000338 4F               [ 4] 1235 	ld	c, a
                                   1236 ;C:\Users\reina\OneDrive\Documentos\MSXgl\engine/src/vdp.c:1815: break;
    00000339 C3r42r03         [10] 1237 	jp	00106$
                                   1238 ;C:\Users\reina\OneDrive\Documentos\MSXgl\engine/src/vdp.c:1817: case VDP_MODE_GRAPHIC7:
    0000033C                       1239 00103$:
                                   1240 ;C:\Users\reina\OneDrive\Documentos\MSXgl\engine/src/vdp.c:1823: reg >>= 1;
    0000033C CB 39            [ 8] 1241 	srl	c
                                   1242 ;C:\Users\reina\OneDrive\Documentos\MSXgl\engine/src/vdp.c:1825: case VDP_MODE_GRAPHIC5:
    0000033E                       1243 00105$:
                                   1244 ;C:\Users\reina\OneDrive\Documentos\MSXgl\engine/src/vdp.c:1826: reg |= 0b11111;
    0000033E 79               [ 4] 1245 	ld	a, c
    0000033F F6 1F            [ 7] 1246 	or	a, #0x1f
    00000341 4F               [ 4] 1247 	ld	c, a
                                   1248 ;C:\Users\reina\OneDrive\Documentos\MSXgl\engine/src/vdp.c:1828: };	
    00000342                       1249 00106$:
                                   1250 ;C:\Users\reina\OneDrive\Documentos\MSXgl\engine/src/vdp.c:1830: VDP_RegWrite(2, reg);
    00000342 69               [ 4] 1251 	ld	l, c
                                   1252 ;	spillPairReg hl
                                   1253 ;	spillPairReg hl
    00000343 3E 02            [ 7] 1254 	ld	a, #0x02
                                   1255 ;C:\Users\reina\OneDrive\Documentos\MSXgl\engine/src/vdp.c:1835: }
    00000345 C3rCFr02         [10] 1256 	jp	_VDP_RegWrite
                                   1257 ;C:\Users\reina\OneDrive\Documentos\MSXgl\engine/src/vdp.c:1839: void VDP_SetColorTable(VADDR addr)
                                   1258 ;	---------------------------------
                                   1259 ; Function VDP_SetColorTable
                                   1260 ; ---------------------------------
    00000348                       1261 _VDP_SetColorTable::
                                   1262 ;C:\Users\reina\OneDrive\Documentos\MSXgl\engine/src/vdp.c:1841: g_ScreenColorLow = (u16)addr;
    00000348 22r33r00         [16] 1263 	ld	(_g_ScreenColorLow), hl
                                   1264 ;C:\Users\reina\OneDrive\Documentos\MSXgl\engine/src/vdp.c:1844: reg = (u8)(addr >> 6);
    0000034B CB 3C            [ 8] 1265 	srl	h
    0000034D CB 1D            [ 8] 1266 	rr	l
    0000034F CB 3C            [ 8] 1267 	srl	h
    00000351 CB 1D            [ 8] 1268 	rr	l
    00000353 CB 3C            [ 8] 1269 	srl	h
    00000355 CB 1D            [ 8] 1270 	rr	l
    00000357 CB 3C            [ 8] 1271 	srl	h
    00000359 CB 1D            [ 8] 1272 	rr	l
    0000035B CB 3C            [ 8] 1273 	srl	h
    0000035D CB 1D            [ 8] 1274 	rr	l
    0000035F CB 3C            [ 8] 1275 	srl	h
    00000361 CB 1D            [ 8] 1276 	rr	l
    00000363 4D               [ 4] 1277 	ld	c, l
                                   1278 ;C:\Users\reina\OneDrive\Documentos\MSXgl\engine/src/vdp.c:1845: switch(g_VDP_Data.Mode)
    00000364 3Ar1Cr00         [13] 1279 	ld	a, (#_g_VDP_Data + 0)
    00000367 FE 03            [ 7] 1280 	cp	a, #0x03
    00000369 28 33            [12] 1281 	jr	Z, 00106$
    0000036B FE 04            [ 7] 1282 	cp	a, #0x04
    0000036D 28 13            [12] 1283 	jr	Z, 00101$
    0000036F FE 05            [ 7] 1284 	cp	a, #0x05
    00000371 28 2B            [12] 1285 	jr	Z, 00106$
    00000373 FE 0F            [ 7] 1286 	cp	a, #0x0f
    00000375 28 12            [12] 1287 	jr	Z, 00102$
    00000377 FE 10            [ 7] 1288 	cp	a, #0x10
    00000379 28 15            [12] 1289 	jr	Z, 00103$
    0000037B D6 11            [ 7] 1290 	sub	a, #0x11
    0000037D 28 18            [12] 1291 	jr	Z, 00104$
    0000037F C3rA2r03         [10] 1292 	jp	00107$
                                   1293 ;C:\Users\reina\OneDrive\Documentos\MSXgl\engine/src/vdp.c:1848: case VDP_MODE_TEXT2:
    00000382                       1294 00101$:
                                   1295 ;C:\Users\reina\OneDrive\Documentos\MSXgl\engine/src/vdp.c:1849: reg |= 0b111;
    00000382 79               [ 4] 1296 	ld	a, c
    00000383 F6 07            [ 7] 1297 	or	a, #0x07
    00000385 4F               [ 4] 1298 	ld	c, a
                                   1299 ;C:\Users\reina\OneDrive\Documentos\MSXgl\engine/src/vdp.c:1850: break;
    00000386 C3rA2r03         [10] 1300 	jp	00107$
                                   1301 ;C:\Users\reina\OneDrive\Documentos\MSXgl\engine/src/vdp.c:1852: case VDP_MODE_GRAPHIC3_MIRROR_0:
    00000389                       1302 00102$:
                                   1303 ;C:\Users\reina\OneDrive\Documentos\MSXgl\engine/src/vdp.c:1853: reg |= 0b0011111;
    00000389 79               [ 4] 1304 	ld	a, c
    0000038A F6 1F            [ 7] 1305 	or	a, #0x1f
    0000038C 4F               [ 4] 1306 	ld	c, a
                                   1307 ;C:\Users\reina\OneDrive\Documentos\MSXgl\engine/src/vdp.c:1854: break;
    0000038D C3rA2r03         [10] 1308 	jp	00107$
                                   1309 ;C:\Users\reina\OneDrive\Documentos\MSXgl\engine/src/vdp.c:1855: case VDP_MODE_GRAPHIC3_MIRROR_01:
    00000390                       1310 00103$:
                                   1311 ;C:\Users\reina\OneDrive\Documentos\MSXgl\engine/src/vdp.c:1856: reg |= 0b0111111;
    00000390 79               [ 4] 1312 	ld	a, c
    00000391 F6 3F            [ 7] 1313 	or	a, #0x3f
    00000393 4F               [ 4] 1314 	ld	c, a
                                   1315 ;C:\Users\reina\OneDrive\Documentos\MSXgl\engine/src/vdp.c:1857: break;
    00000394 C3rA2r03         [10] 1316 	jp	00107$
                                   1317 ;C:\Users\reina\OneDrive\Documentos\MSXgl\engine/src/vdp.c:1858: case VDP_MODE_GRAPHIC3_MIRROR_02:
    00000397                       1318 00104$:
                                   1319 ;C:\Users\reina\OneDrive\Documentos\MSXgl\engine/src/vdp.c:1859: reg |= 0b1011111;
    00000397 79               [ 4] 1320 	ld	a, c
    00000398 F6 5F            [ 7] 1321 	or	a, #0x5f
    0000039A 4F               [ 4] 1322 	ld	c, a
                                   1323 ;C:\Users\reina\OneDrive\Documentos\MSXgl\engine/src/vdp.c:1860: break;
    0000039B C3rA2r03         [10] 1324 	jp	00107$
                                   1325 ;C:\Users\reina\OneDrive\Documentos\MSXgl\engine/src/vdp.c:1864: case VDP_MODE_GRAPHIC2:
    0000039E                       1326 00106$:
                                   1327 ;C:\Users\reina\OneDrive\Documentos\MSXgl\engine/src/vdp.c:1865: reg |= 0b1111111;
    0000039E 79               [ 4] 1328 	ld	a, c
    0000039F F6 7F            [ 7] 1329 	or	a, #0x7f
    000003A1 4F               [ 4] 1330 	ld	c, a
                                   1331 ;C:\Users\reina\OneDrive\Documentos\MSXgl\engine/src/vdp.c:1867: };	
    000003A2                       1332 00107$:
                                   1333 ;C:\Users\reina\OneDrive\Documentos\MSXgl\engine/src/vdp.c:1868: VDP_RegWrite(3, reg);
    000003A2 69               [ 4] 1334 	ld	l, c
                                   1335 ;	spillPairReg hl
                                   1336 ;	spillPairReg hl
    000003A3 3E 03            [ 7] 1337 	ld	a, #0x03
                                   1338 ;C:\Users\reina\OneDrive\Documentos\MSXgl\engine/src/vdp.c:1876: }
    000003A5 C3rCFr02         [10] 1339 	jp	_VDP_RegWrite
                                   1340 ;C:\Users\reina\OneDrive\Documentos\MSXgl\engine/src/vdp.c:1880: void VDP_SetPatternTable(VADDR addr)
                                   1341 ;	---------------------------------
                                   1342 ; Function VDP_SetPatternTable
                                   1343 ; ---------------------------------
    000003A8                       1344 _VDP_SetPatternTable::
                                   1345 ;C:\Users\reina\OneDrive\Documentos\MSXgl\engine/src/vdp.c:1882: g_ScreenPatternLow = (u16)addr;
    000003A8 22r35r00         [16] 1346 	ld	(_g_ScreenPatternLow), hl
                                   1347 ;C:\Users\reina\OneDrive\Documentos\MSXgl\engine/src/vdp.c:1885: reg = (u8)(addr >> 11);
    000003AB 7C               [ 4] 1348 	ld	a, h
    000003AC 0F               [ 4] 1349 	rrca
    000003AD 0F               [ 4] 1350 	rrca
    000003AE 0F               [ 4] 1351 	rrca
    000003AF E6 1F            [ 7] 1352 	and	a, #0x1f
    000003B1 4F               [ 4] 1353 	ld	c, a
    000003B2 06 00            [ 7] 1354 	ld	b, #0x00
                                   1355 ;C:\Users\reina\OneDrive\Documentos\MSXgl\engine/src/vdp.c:1886: switch(g_VDP_Data.Mode)
    000003B4 3Ar1Cr00         [13] 1356 	ld	a, (#_g_VDP_Data + 0)
    000003B7 FE 03            [ 7] 1357 	cp	a, #0x03
    000003B9 28 19            [12] 1358 	jr	Z, 00104$
    000003BB FE 05            [ 7] 1359 	cp	a, #0x05
    000003BD 28 15            [12] 1360 	jr	Z, 00104$
    000003BF FE 10            [ 7] 1361 	cp	a, #0x10
    000003C1 28 07            [12] 1362 	jr	Z, 00101$
    000003C3 D6 11            [ 7] 1363 	sub	a, #0x11
    000003C5 28 08            [12] 1364 	jr	Z, 00102$
    000003C7 C3rD8r03         [10] 1365 	jp	00105$
                                   1366 ;C:\Users\reina\OneDrive\Documentos\MSXgl\engine/src/vdp.c:1890: case VDP_MODE_GRAPHIC3_MIRROR_01:
    000003CA                       1367 00101$:
                                   1368 ;C:\Users\reina\OneDrive\Documentos\MSXgl\engine/src/vdp.c:1891: reg |= 0b01;
    000003CA CB C1            [ 8] 1369 	set	0, c
                                   1370 ;C:\Users\reina\OneDrive\Documentos\MSXgl\engine/src/vdp.c:1892: break;
    000003CC C3rD8r03         [10] 1371 	jp	00105$
                                   1372 ;C:\Users\reina\OneDrive\Documentos\MSXgl\engine/src/vdp.c:1893: case VDP_MODE_GRAPHIC3_MIRROR_02:
    000003CF                       1373 00102$:
                                   1374 ;C:\Users\reina\OneDrive\Documentos\MSXgl\engine/src/vdp.c:1894: reg |= 0b10;
    000003CF CB C9            [ 8] 1375 	set	1, c
                                   1376 ;C:\Users\reina\OneDrive\Documentos\MSXgl\engine/src/vdp.c:1895: break;
    000003D1 C3rD8r03         [10] 1377 	jp	00105$
                                   1378 ;C:\Users\reina\OneDrive\Documentos\MSXgl\engine/src/vdp.c:1899: case VDP_MODE_GRAPHIC2:
    000003D4                       1379 00104$:
                                   1380 ;C:\Users\reina\OneDrive\Documentos\MSXgl\engine/src/vdp.c:1900: reg |= 0b11;
    000003D4 79               [ 4] 1381 	ld	a, c
    000003D5 F6 03            [ 7] 1382 	or	a, #0x03
    000003D7 4F               [ 4] 1383 	ld	c, a
                                   1384 ;C:\Users\reina\OneDrive\Documentos\MSXgl\engine/src/vdp.c:1901: };
    000003D8                       1385 00105$:
                                   1386 ;C:\Users\reina\OneDrive\Documentos\MSXgl\engine/src/vdp.c:1902: VDP_RegWrite(4, reg);
    000003D8 69               [ 4] 1387 	ld	l, c
                                   1388 ;	spillPairReg hl
                                   1389 ;	spillPairReg hl
    000003D9 3E 04            [ 7] 1390 	ld	a, #0x04
                                   1391 ;C:\Users\reina\OneDrive\Documentos\MSXgl\engine/src/vdp.c:1907: }
    000003DB C3rCFr02         [10] 1392 	jp	_VDP_RegWrite
                                   1393 ;C:\Users\reina\OneDrive\Documentos\MSXgl\engine/src/vdp.c:1921: void VDP_SetSpriteAttributeTable(VADDR addr)
                                   1394 ;	---------------------------------
                                   1395 ; Function VDP_SetSpriteAttributeTable
                                   1396 ; ---------------------------------
    000003DE                       1397 _VDP_SetSpriteAttributeTable::
    000003DE EB               [ 4] 1398 	ex	de, hl
                                   1399 ;C:\Users\reina\OneDrive\Documentos\MSXgl\engine/src/vdp.c:1923: g_SpriteAttributeLow = (u16)addr;
    000003DF ED 53r37r00      [20] 1400 	ld	(_g_SpriteAttributeLow), de
                                   1401 ;C:\Users\reina\OneDrive\Documentos\MSXgl\engine/src/vdp.c:1926: reg = (u8)(addr >> 7);
    000003E3 4B               [ 4] 1402 	ld	c, e
    000003E4 42               [ 4] 1403 	ld	b, d
    000003E5 CB 38            [ 8] 1404 	srl	b
    000003E7 CB 19            [ 8] 1405 	rr	c
    000003E9 CB 38            [ 8] 1406 	srl	b
    000003EB CB 19            [ 8] 1407 	rr	c
    000003ED CB 38            [ 8] 1408 	srl	b
    000003EF CB 19            [ 8] 1409 	rr	c
    000003F1 CB 38            [ 8] 1410 	srl	b
    000003F3 CB 19            [ 8] 1411 	rr	c
    000003F5 CB 38            [ 8] 1412 	srl	b
    000003F7 CB 19            [ 8] 1413 	rr	c
    000003F9 CB 38            [ 8] 1414 	srl	b
    000003FB CB 19            [ 8] 1415 	rr	c
    000003FD CB 38            [ 8] 1416 	srl	b
    000003FF CB 19            [ 8] 1417 	rr	c
                                   1418 ;C:\Users\reina\OneDrive\Documentos\MSXgl\engine/src/vdp.c:1928: switch(g_VDP_Data.Mode)
    00000401 3Ar1Cr00         [13] 1419 	ld	a, (#_g_VDP_Data + 0)
    00000404 FE 05            [ 7] 1420 	cp	a, #0x05
    00000406 28 1C            [12] 1421 	jr	Z, 00108$
    00000408 FE 06            [ 7] 1422 	cp	a, #0x06
    0000040A 28 18            [12] 1423 	jr	Z, 00108$
    0000040C FE 07            [ 7] 1424 	cp	a, #0x07
    0000040E 28 14            [12] 1425 	jr	Z, 00108$
    00000410 FE 08            [ 7] 1426 	cp	a, #0x08
    00000412 28 10            [12] 1427 	jr	Z, 00108$
    00000414 FE 09            [ 7] 1428 	cp	a, #0x09
    00000416 28 0C            [12] 1429 	jr	Z, 00108$
    00000418 FE 0F            [ 7] 1430 	cp	a, #0x0f
    0000041A 28 08            [12] 1431 	jr	Z, 00108$
    0000041C FE 10            [ 7] 1432 	cp	a, #0x10
    0000041E 28 04            [12] 1433 	jr	Z, 00108$
    00000420 D6 11            [ 7] 1434 	sub	a, #0x11
    00000422 20 04            [12] 1435 	jr	NZ, 00109$
                                   1436 ;C:\Users\reina\OneDrive\Documentos\MSXgl\engine/src/vdp.c:1943: case VDP_MODE_GRAPHIC3_MIRROR_02:
    00000424                       1437 00108$:
                                   1438 ;C:\Users\reina\OneDrive\Documentos\MSXgl\engine/src/vdp.c:1945: reg |= 0b111;
    00000424 79               [ 4] 1439 	ld	a, c
    00000425 F6 07            [ 7] 1440 	or	a, #0x07
    00000427 4F               [ 4] 1441 	ld	c, a
                                   1442 ;C:\Users\reina\OneDrive\Documentos\MSXgl\engine/src/vdp.c:1947: };
    00000428                       1443 00109$:
                                   1444 ;C:\Users\reina\OneDrive\Documentos\MSXgl\engine/src/vdp.c:1949: VDP_RegWrite(5, reg);
    00000428 69               [ 4] 1445 	ld	l, c
                                   1446 ;	spillPairReg hl
                                   1447 ;	spillPairReg hl
    00000429 3E 05            [ 7] 1448 	ld	a, #0x05
    0000042B CDrCFr02         [17] 1449 	call	_VDP_RegWrite
                                   1450 ;C:\Users\reina\OneDrive\Documentos\MSXgl\engine/src/vdp.c:1958: addr -= 0x200;
                                   1451 ;	spillPairReg hl
                                   1452 ;	spillPairReg hl
    0000042E 6B               [ 4] 1453 	ld	l, e
    0000042F 7A               [ 4] 1454 	ld	a,d
    00000430 C6 FE            [ 7] 1455 	add	a,#0xfe
    00000432 67               [ 4] 1456 	ld	h, a
                                   1457 ;	spillPairReg hl
                                   1458 ;	spillPairReg hl
    00000433 22r3Br00         [16] 1459 	ld	(_g_SpriteColorLow), hl
                                   1460 ;C:\Users\reina\OneDrive\Documentos\MSXgl\engine/src/vdp.c:1959: g_SpriteColorLow = (u16)addr;
                                   1461 ;C:\Users\reina\OneDrive\Documentos\MSXgl\engine/src/vdp.c:1963: }
    00000436 C9               [10] 1462 	ret
                                   1463 ;C:\Users\reina\OneDrive\Documentos\MSXgl\engine/src/vdp.c:1969: void VDP_SetSpritePatternTable(VADDR addr)
                                   1464 ;	---------------------------------
                                   1465 ; Function VDP_SetSpritePatternTable
                                   1466 ; ---------------------------------
    00000437                       1467 _VDP_SetSpritePatternTable::
                                   1468 ;C:\Users\reina\OneDrive\Documentos\MSXgl\engine/src/vdp.c:1971: g_SpritePatternLow  = (u16)addr;
    00000437 22r39r00         [16] 1469 	ld	(_g_SpritePatternLow), hl
                                   1470 ;C:\Users\reina\OneDrive\Documentos\MSXgl\engine/src/vdp.c:1976: u8 reg = (u8)(addr >> 11);
    0000043A 7C               [ 4] 1471 	ld	a, h
    0000043B 0F               [ 4] 1472 	rrca
    0000043C 0F               [ 4] 1473 	rrca
    0000043D 0F               [ 4] 1474 	rrca
    0000043E E6 1F            [ 7] 1475 	and	a, #0x1f
    00000440 6F               [ 4] 1476 	ld	l, a
                                   1477 ;	spillPairReg hl
                                   1478 ;	spillPairReg hl
    00000441 26 00            [ 7] 1479 	ld	h, #0x00
                                   1480 ;	spillPairReg hl
                                   1481 ;	spillPairReg hl
                                   1482 ;C:\Users\reina\OneDrive\Documentos\MSXgl\engine/src/vdp.c:1977: VDP_RegWrite(6, reg);
    00000443 3E 06            [ 7] 1483 	ld	a, #0x06
                                   1484 ;C:\Users\reina\OneDrive\Documentos\MSXgl\engine/src/vdp.c:1979: }
    00000445 C3rCFr02         [10] 1485 	jp	_VDP_RegWrite
                                   1486 ;C:\Users\reina\OneDrive\Documentos\MSXgl\engine/src/vdp.c:1983: void VDP_LoadSpritePattern(const u8* addr, u8 index, u8 count)
                                   1487 ;	---------------------------------
                                   1488 ; Function VDP_LoadSpritePattern
                                   1489 ; ---------------------------------
    00000448                       1490 _VDP_LoadSpritePattern::
    00000448 DD E5            [15] 1491 	push	ix
    0000044A DD 21 00 00      [14] 1492 	ld	ix,#0
    0000044E DD 39            [15] 1493 	add	ix,sp
    00000450 4D               [ 4] 1494 	ld	c, l
    00000451 44               [ 4] 1495 	ld	b, h
                                   1496 ;C:\Users\reina\OneDrive\Documentos\MSXgl\engine/src/vdp.c:1985: u16 low = g_SpritePatternLow;
    00000452 ED 5Br39r00      [20] 1497 	ld	de, (_g_SpritePatternLow)
                                   1498 ;C:\Users\reina\OneDrive\Documentos\MSXgl\engine/src/vdp.c:1986: low += (index * 8);
    00000456 DD 6E 04         [19] 1499 	ld	l, 4 (ix)
                                   1500 ;	spillPairReg hl
                                   1501 ;	spillPairReg hl
    00000459 26 00            [ 7] 1502 	ld	h, #0x00
                                   1503 ;	spillPairReg hl
                                   1504 ;	spillPairReg hl
    0000045B 29               [11] 1505 	add	hl, hl
    0000045C 29               [11] 1506 	add	hl, hl
    0000045D 29               [11] 1507 	add	hl, hl
    0000045E 19               [11] 1508 	add	hl, de
    0000045F EB               [ 4] 1509 	ex	de, hl
                                   1510 ;C:\Users\reina\OneDrive\Documentos\MSXgl\engine/src/vdp.c:1987: VDP_WriteVRAM(addr, low, g_SpritePatternHigh, count * 8);
    00000460 DD 6E 05         [19] 1511 	ld	l, 5 (ix)
                                   1512 ;	spillPairReg hl
                                   1513 ;	spillPairReg hl
    00000463 26 00            [ 7] 1514 	ld	h, #0x00
                                   1515 ;	spillPairReg hl
                                   1516 ;	spillPairReg hl
    00000465 29               [11] 1517 	add	hl, hl
    00000466 29               [11] 1518 	add	hl, hl
    00000467 29               [11] 1519 	add	hl, hl
    00000468 E5               [11] 1520 	push	hl
    00000469 69               [ 4] 1521 	ld	l, c
                                   1522 ;	spillPairReg hl
                                   1523 ;	spillPairReg hl
    0000046A 60               [ 4] 1524 	ld	h, b
                                   1525 ;	spillPairReg hl
                                   1526 ;	spillPairReg hl
    0000046B CDrA8r00         [17] 1527 	call	_VDP_WriteVRAM_16K
                                   1528 ;C:\Users\reina\OneDrive\Documentos\MSXgl\engine/src/vdp.c:1988: }
    0000046E DD E1            [14] 1529 	pop	ix
    00000470 E1               [10] 1530 	pop	hl
    00000471 F1               [10] 1531 	pop	af
    00000472 E9               [ 4] 1532 	jp	(hl)
                                   1533 ;C:\Users\reina\OneDrive\Documentos\MSXgl\engine/src/vdp.c:1992: void VDP_SetSpriteSM1(u8 index, u8 x, u8 y, u8 shape, u8 color)
                                   1534 ;	---------------------------------
                                   1535 ; Function VDP_SetSpriteSM1
                                   1536 ; ---------------------------------
    00000473                       1537 _VDP_SetSpriteSM1::
    00000473 DD E5            [15] 1538 	push	ix
    00000475 DD 21 00 00      [14] 1539 	ld	ix,#0
    00000479 DD 39            [15] 1540 	add	ix,sp
    0000047B 5F               [ 4] 1541 	ld	e, a
    0000047C 4D               [ 4] 1542 	ld	c, l
                                   1543 ;C:\Users\reina\OneDrive\Documentos\MSXgl\engine/src/vdp.c:1994: g_VDP_Sprite.Y = y;				// Y coordinate on screen (all lower priority sprite will be disable if equal to 216 or 0xD0)
    0000047D 21r2Dr00         [10] 1544 	ld	hl, #_g_VDP_Sprite
    00000480 DD 7E 04         [19] 1545 	ld	a, 4 (ix)
    00000483 77               [ 7] 1546 	ld	(hl), a
                                   1547 ;C:\Users\reina\OneDrive\Documentos\MSXgl\engine/src/vdp.c:1995: g_VDP_Sprite.X = x;				// X coordinate of the sprite
    00000484 21r2Er00         [10] 1548 	ld	hl, #(_g_VDP_Sprite + 1)
    00000487 71               [ 7] 1549 	ld	(hl), c
                                   1550 ;C:\Users\reina\OneDrive\Documentos\MSXgl\engine/src/vdp.c:1996: g_VDP_Sprite.Pattern = shape;	// Pattern index
    00000488 21r2Fr00         [10] 1551 	ld	hl, #(_g_VDP_Sprite + 2)
    0000048B DD 7E 05         [19] 1552 	ld	a, 5 (ix)
    0000048E 77               [ 7] 1553 	ld	(hl), a
                                   1554 ;C:\Users\reina\OneDrive\Documentos\MSXgl\engine/src/vdp.c:1997: g_VDP_Sprite.Color = color;		// Color index (Sprite Mode 1 only) + Early clock
    0000048F 21r30r00         [10] 1555 	ld	hl, #(_g_VDP_Sprite + 3)
    00000492 DD 7E 06         [19] 1556 	ld	a, 6 (ix)
    00000495 77               [ 7] 1557 	ld	(hl), a
                                   1558 ;C:\Users\reina\OneDrive\Documentos\MSXgl\engine/src/vdp.c:1999: u16 low = g_SpriteAttributeLow;
    00000496 ED 4Br37r00      [20] 1559 	ld	bc, (_g_SpriteAttributeLow)
                                   1560 ;C:\Users\reina\OneDrive\Documentos\MSXgl\engine/src/vdp.c:2000: low += (index * 4);
    0000049A 6B               [ 4] 1561 	ld	l, e
                                   1562 ;	spillPairReg hl
                                   1563 ;	spillPairReg hl
    0000049B 26 00            [ 7] 1564 	ld	h, #0x00
                                   1565 ;	spillPairReg hl
                                   1566 ;	spillPairReg hl
    0000049D 29               [11] 1567 	add	hl, hl
    0000049E 29               [11] 1568 	add	hl, hl
    0000049F 09               [11] 1569 	add	hl, bc
    000004A0 EB               [ 4] 1570 	ex	de, hl
                                   1571 ;C:\Users\reina\OneDrive\Documentos\MSXgl\engine/src/vdp.c:2001: VDP_WriteVRAM((u8*)&g_VDP_Sprite, low, g_SpriteAttributeHigh, 4);
    000004A1 21 04 00         [10] 1572 	ld	hl, #0x0004
    000004A4 E5               [11] 1573 	push	hl
    000004A5 21r2Dr00         [10] 1574 	ld	hl, #_g_VDP_Sprite
    000004A8 CDrA8r00         [17] 1575 	call	_VDP_WriteVRAM_16K
                                   1576 ;C:\Users\reina\OneDrive\Documentos\MSXgl\engine/src/vdp.c:2002: }
    000004AB DD E1            [14] 1577 	pop	ix
    000004AD E1               [10] 1578 	pop	hl
    000004AE F1               [10] 1579 	pop	af
    000004AF 33               [ 6] 1580 	inc	sp
    000004B0 E9               [ 4] 1581 	jp	(hl)
                                   1582 ;C:\Users\reina\OneDrive\Documentos\MSXgl\engine/src/vdp.c:2006: void VDP_SetSprite(u8 index, u8 x, u8 y, u8 shape)
                                   1583 ;	---------------------------------
                                   1584 ; Function VDP_SetSprite
                                   1585 ; ---------------------------------
    000004B1                       1586 _VDP_SetSprite::
    000004B1 DD E5            [15] 1587 	push	ix
    000004B3 DD 21 00 00      [14] 1588 	ld	ix,#0
    000004B7 DD 39            [15] 1589 	add	ix,sp
    000004B9 5F               [ 4] 1590 	ld	e, a
    000004BA 4D               [ 4] 1591 	ld	c, l
                                   1592 ;C:\Users\reina\OneDrive\Documentos\MSXgl\engine/src/vdp.c:2008: g_VDP_Sprite.Y = y;				// Y coordinate on screen (all lower priority sprite will be disable if equal to 216 or 0xD0)
    000004BB 21r2Dr00         [10] 1593 	ld	hl, #_g_VDP_Sprite
    000004BE DD 7E 04         [19] 1594 	ld	a, 4 (ix)
    000004C1 77               [ 7] 1595 	ld	(hl), a
                                   1596 ;C:\Users\reina\OneDrive\Documentos\MSXgl\engine/src/vdp.c:2009: g_VDP_Sprite.X = x;				// X coordinate of the sprite
    000004C2 21r2Er00         [10] 1597 	ld	hl, #(_g_VDP_Sprite + 1)
    000004C5 71               [ 7] 1598 	ld	(hl), c
                                   1599 ;C:\Users\reina\OneDrive\Documentos\MSXgl\engine/src/vdp.c:2010: g_VDP_Sprite.Pattern = shape;	// Pattern index
    000004C6 21r2Fr00         [10] 1600 	ld	hl, #(_g_VDP_Sprite + 2)
    000004C9 DD 7E 05         [19] 1601 	ld	a, 5 (ix)
    000004CC 77               [ 7] 1602 	ld	(hl), a
                                   1603 ;C:\Users\reina\OneDrive\Documentos\MSXgl\engine/src/vdp.c:2012: u16 low = g_SpriteAttributeLow;
    000004CD ED 4Br37r00      [20] 1604 	ld	bc, (_g_SpriteAttributeLow)
                                   1605 ;C:\Users\reina\OneDrive\Documentos\MSXgl\engine/src/vdp.c:2013: low += (index * 4);
    000004D1 6B               [ 4] 1606 	ld	l, e
                                   1607 ;	spillPairReg hl
                                   1608 ;	spillPairReg hl
    000004D2 26 00            [ 7] 1609 	ld	h, #0x00
                                   1610 ;	spillPairReg hl
                                   1611 ;	spillPairReg hl
    000004D4 29               [11] 1612 	add	hl, hl
    000004D5 29               [11] 1613 	add	hl, hl
    000004D6 09               [11] 1614 	add	hl, bc
    000004D7 EB               [ 4] 1615 	ex	de, hl
                                   1616 ;C:\Users\reina\OneDrive\Documentos\MSXgl\engine/src/vdp.c:2014: VDP_WriteVRAM((u8*)&g_VDP_Sprite, low, g_SpriteAttributeHigh, 3);
    000004D8 21 03 00         [10] 1617 	ld	hl, #0x0003
    000004DB E5               [11] 1618 	push	hl
    000004DC 21r2Dr00         [10] 1619 	ld	hl, #_g_VDP_Sprite
    000004DF CDrA8r00         [17] 1620 	call	_VDP_WriteVRAM_16K
                                   1621 ;C:\Users\reina\OneDrive\Documentos\MSXgl\engine/src/vdp.c:2015: }
    000004E2 DD E1            [14] 1622 	pop	ix
    000004E4 E1               [10] 1623 	pop	hl
    000004E5 F1               [10] 1624 	pop	af
    000004E6 E9               [ 4] 1625 	jp	(hl)
                                   1626 ;C:\Users\reina\OneDrive\Documentos\MSXgl\engine/src/vdp.c:2020: void VDP_SetSpriteExMultiColor(u8 index, u8 x, u8 y, u8 shape, const u8* ram)
                                   1627 ;	---------------------------------
                                   1628 ; Function VDP_SetSpriteExMultiColor
                                   1629 ; ---------------------------------
    000004E7                       1630 _VDP_SetSpriteExMultiColor::
    000004E7 DD E5            [15] 1631 	push	ix
    000004E9 DD 21 00 00      [14] 1632 	ld	ix,#0
    000004ED DD 39            [15] 1633 	add	ix,sp
    000004EF 3B               [ 6] 1634 	dec	sp
    000004F0 4F               [ 4] 1635 	ld	c, a
    000004F1 DD 75 FF         [19] 1636 	ld	-1 (ix), l
                                   1637 ;C:\Users\reina\OneDrive\Documentos\MSXgl\engine/src/vdp.c:2022: u16 col = g_SpriteColorLow;
    000004F4 ED 5Br3Br00      [20] 1638 	ld	de, (_g_SpriteColorLow)
                                   1639 ;C:\Users\reina\OneDrive\Documentos\MSXgl\engine/src/vdp.c:2023: col += (index * 16);
    000004F8 06 00            [ 7] 1640 	ld	b, #0x00
    000004FA 69               [ 4] 1641 	ld	l, c
    000004FB 60               [ 4] 1642 	ld	h, b
    000004FC 29               [11] 1643 	add	hl, hl
    000004FD 29               [11] 1644 	add	hl, hl
    000004FE 29               [11] 1645 	add	hl, hl
    000004FF 29               [11] 1646 	add	hl, hl
    00000500 19               [11] 1647 	add	hl, de
                                   1648 ;C:\Users\reina\OneDrive\Documentos\MSXgl\engine/src/vdp.c:2024: VDP_WriteVRAM(ram, col, g_SpriteColorHigh, VDP_SPRITE_COLORS);
    00000501 C5               [11] 1649 	push	bc
    00000502 EB               [ 4] 1650 	ex	de, hl
    00000503 21 10 00         [10] 1651 	ld	hl, #0x0010
    00000506 E5               [11] 1652 	push	hl
    00000507 DD 6E 06         [19] 1653 	ld	l, 6 (ix)
                                   1654 ;	spillPairReg hl
                                   1655 ;	spillPairReg hl
    0000050A DD 66 07         [19] 1656 	ld	h, 7 (ix)
                                   1657 ;	spillPairReg hl
                                   1658 ;	spillPairReg hl
    0000050D CDrA8r00         [17] 1659 	call	_VDP_WriteVRAM_16K
    00000510 C1               [10] 1660 	pop	bc
                                   1661 ;C:\Users\reina\OneDrive\Documentos\MSXgl\engine/src/vdp.c:2026: g_VDP_Sprite.X = x;				// Y coordinate on screen (all lower priority sprite will be disable if equal to 216 or 0xD0)
    00000511 21r2Er00         [10] 1662 	ld	hl, #(_g_VDP_Sprite + 1)
    00000514 DD 7E FF         [19] 1663 	ld	a, -1 (ix)
    00000517 77               [ 7] 1664 	ld	(hl), a
                                   1665 ;C:\Users\reina\OneDrive\Documentos\MSXgl\engine/src/vdp.c:2027: g_VDP_Sprite.Y = y;				// X coordinate of the sprite
    00000518 21r2Dr00         [10] 1666 	ld	hl, #_g_VDP_Sprite
    0000051B DD 7E 04         [19] 1667 	ld	a, 4 (ix)
    0000051E 77               [ 7] 1668 	ld	(hl), a
                                   1669 ;C:\Users\reina\OneDrive\Documentos\MSXgl\engine/src/vdp.c:2028: g_VDP_Sprite.Pattern = shape;	// Pattern index
    0000051F 21r2Fr00         [10] 1670 	ld	hl, #(_g_VDP_Sprite + 2)
    00000522 DD 7E 05         [19] 1671 	ld	a, 5 (ix)
    00000525 77               [ 7] 1672 	ld	(hl), a
                                   1673 ;C:\Users\reina\OneDrive\Documentos\MSXgl\engine/src/vdp.c:2029: u16 attr = g_SpriteAttributeLow;
    00000526 ED 5Br37r00      [20] 1674 	ld	de, (_g_SpriteAttributeLow)
                                   1675 ;C:\Users\reina\OneDrive\Documentos\MSXgl\engine/src/vdp.c:2030: attr += (index * 4);
    0000052A 69               [ 4] 1676 	ld	l, c
    0000052B 60               [ 4] 1677 	ld	h, b
    0000052C 29               [11] 1678 	add	hl, hl
    0000052D 29               [11] 1679 	add	hl, hl
    0000052E 19               [11] 1680 	add	hl, de
    0000052F EB               [ 4] 1681 	ex	de, hl
                                   1682 ;C:\Users\reina\OneDrive\Documentos\MSXgl\engine/src/vdp.c:2031: VDP_WriteVRAM((u8*)&g_VDP_Sprite, attr, g_SpriteAttributeHigh, 3);
    00000530 21 03 00         [10] 1683 	ld	hl, #0x0003
    00000533 E5               [11] 1684 	push	hl
    00000534 21r2Dr00         [10] 1685 	ld	hl, #_g_VDP_Sprite
    00000537 CDrA8r00         [17] 1686 	call	_VDP_WriteVRAM_16K
                                   1687 ;C:\Users\reina\OneDrive\Documentos\MSXgl\engine/src/vdp.c:2032: }
    0000053A 33               [ 6] 1688 	inc	sp
    0000053B DD E1            [14] 1689 	pop	ix
    0000053D E1               [10] 1690 	pop	hl
    0000053E F1               [10] 1691 	pop	af
    0000053F F1               [10] 1692 	pop	af
    00000540 E9               [ 4] 1693 	jp	(hl)
                                   1694 ;C:\Users\reina\OneDrive\Documentos\MSXgl\engine/src/vdp.c:2036: void VDP_SetSpriteExUniColor(u8 index, u8 x, u8 y, u8 shape, u8 color)
                                   1695 ;	---------------------------------
                                   1696 ; Function VDP_SetSpriteExUniColor
                                   1697 ; ---------------------------------
    00000541                       1698 _VDP_SetSpriteExUniColor::
    00000541 DD E5            [15] 1699 	push	ix
    00000543 DD 21 00 00      [14] 1700 	ld	ix,#0
    00000547 DD 39            [15] 1701 	add	ix,sp
    00000549 3B               [ 6] 1702 	dec	sp
    0000054A 4F               [ 4] 1703 	ld	c, a
    0000054B DD 75 FF         [19] 1704 	ld	-1 (ix), l
                                   1705 ;C:\Users\reina\OneDrive\Documentos\MSXgl\engine/src/vdp.c:2038: u16 col = g_SpriteColorLow;
    0000054E ED 5Br3Br00      [20] 1706 	ld	de, (_g_SpriteColorLow)
                                   1707 ;C:\Users\reina\OneDrive\Documentos\MSXgl\engine/src/vdp.c:2039: col += (index * 16);
    00000552 06 00            [ 7] 1708 	ld	b, #0x00
    00000554 69               [ 4] 1709 	ld	l, c
    00000555 60               [ 4] 1710 	ld	h, b
    00000556 29               [11] 1711 	add	hl, hl
    00000557 29               [11] 1712 	add	hl, hl
    00000558 29               [11] 1713 	add	hl, hl
    00000559 29               [11] 1714 	add	hl, hl
    0000055A 19               [11] 1715 	add	hl, de
                                   1716 ;C:\Users\reina\OneDrive\Documentos\MSXgl\engine/src/vdp.c:2040: VDP_FillVRAM(color, col, g_SpriteColorHigh, VDP_SPRITE_COLORS);
    0000055B C5               [11] 1717 	push	bc
    0000055C EB               [ 4] 1718 	ex	de, hl
    0000055D 21 10 00         [10] 1719 	ld	hl, #0x0010
    00000560 E5               [11] 1720 	push	hl
    00000561 DD 7E 06         [19] 1721 	ld	a, 6 (ix)
    00000564 CDrD1r00         [17] 1722 	call	_VDP_FillVRAM_16K
    00000567 C1               [10] 1723 	pop	bc
                                   1724 ;C:\Users\reina\OneDrive\Documentos\MSXgl\engine/src/vdp.c:2042: g_VDP_Sprite.X = x;				// Y coordinate on screen (all lower priority sprite will be disable if equal to 216 or 0xD0)
    00000568 21r2Er00         [10] 1725 	ld	hl, #(_g_VDP_Sprite + 1)
    0000056B DD 7E FF         [19] 1726 	ld	a, -1 (ix)
    0000056E 77               [ 7] 1727 	ld	(hl), a
                                   1728 ;C:\Users\reina\OneDrive\Documentos\MSXgl\engine/src/vdp.c:2043: g_VDP_Sprite.Y = y;				// X coordinate of the sprite
    0000056F 21r2Dr00         [10] 1729 	ld	hl, #_g_VDP_Sprite
    00000572 DD 7E 04         [19] 1730 	ld	a, 4 (ix)
    00000575 77               [ 7] 1731 	ld	(hl), a
                                   1732 ;C:\Users\reina\OneDrive\Documentos\MSXgl\engine/src/vdp.c:2044: g_VDP_Sprite.Pattern = shape;	// Pattern index
    00000576 21r2Fr00         [10] 1733 	ld	hl, #(_g_VDP_Sprite + 2)
    00000579 DD 7E 05         [19] 1734 	ld	a, 5 (ix)
    0000057C 77               [ 7] 1735 	ld	(hl), a
                                   1736 ;C:\Users\reina\OneDrive\Documentos\MSXgl\engine/src/vdp.c:2045: u16 attr = g_SpriteAttributeLow;
    0000057D ED 5Br37r00      [20] 1737 	ld	de, (_g_SpriteAttributeLow)
                                   1738 ;C:\Users\reina\OneDrive\Documentos\MSXgl\engine/src/vdp.c:2046: attr += (index * 4);
    00000581 69               [ 4] 1739 	ld	l, c
    00000582 60               [ 4] 1740 	ld	h, b
    00000583 29               [11] 1741 	add	hl, hl
    00000584 29               [11] 1742 	add	hl, hl
    00000585 19               [11] 1743 	add	hl, de
    00000586 EB               [ 4] 1744 	ex	de, hl
                                   1745 ;C:\Users\reina\OneDrive\Documentos\MSXgl\engine/src/vdp.c:2047: VDP_WriteVRAM((u8*)&g_VDP_Sprite, attr, g_SpriteAttributeHigh, 3);
    00000587 21 03 00         [10] 1746 	ld	hl, #0x0003
    0000058A E5               [11] 1747 	push	hl
    0000058B 21r2Dr00         [10] 1748 	ld	hl, #_g_VDP_Sprite
    0000058E CDrA8r00         [17] 1749 	call	_VDP_WriteVRAM_16K
                                   1750 ;C:\Users\reina\OneDrive\Documentos\MSXgl\engine/src/vdp.c:2048: }
    00000591 33               [ 6] 1751 	inc	sp
    00000592 DD E1            [14] 1752 	pop	ix
    00000594 E1               [10] 1753 	pop	hl
    00000595 F1               [10] 1754 	pop	af
    00000596 33               [ 6] 1755 	inc	sp
    00000597 E9               [ 4] 1756 	jp	(hl)
                                   1757 ;C:\Users\reina\OneDrive\Documentos\MSXgl\engine/src/vdp.c:2053: void VDP_SetSpritePosition(u8 index, u8 x, u8 y)
                                   1758 ;	---------------------------------
                                   1759 ; Function VDP_SetSpritePosition
                                   1760 ; ---------------------------------
    00000598                       1761 _VDP_SetSpritePosition::
    00000598 DD E5            [15] 1762 	push	ix
    0000059A DD 21 00 00      [14] 1763 	ld	ix,#0
    0000059E DD 39            [15] 1764 	add	ix,sp
    000005A0 5F               [ 4] 1765 	ld	e, a
    000005A1 4D               [ 4] 1766 	ld	c, l
                                   1767 ;C:\Users\reina\OneDrive\Documentos\MSXgl\engine/src/vdp.c:2055: g_VDP_Sprite.Y = y;				// Y coordinate on screen (all lower priority sprite will be disable if equal to 216 or 0xD0)
    000005A2 21r2Dr00         [10] 1768 	ld	hl, #_g_VDP_Sprite
    000005A5 DD 7E 04         [19] 1769 	ld	a, 4 (ix)
    000005A8 77               [ 7] 1770 	ld	(hl), a
                                   1771 ;C:\Users\reina\OneDrive\Documentos\MSXgl\engine/src/vdp.c:2056: g_VDP_Sprite.X = x;				// X coordinate of the sprite
    000005A9 21r2Er00         [10] 1772 	ld	hl, #(_g_VDP_Sprite + 1)
    000005AC 71               [ 7] 1773 	ld	(hl), c
                                   1774 ;C:\Users\reina\OneDrive\Documentos\MSXgl\engine/src/vdp.c:2058: u16 low = g_SpriteAttributeLow;
    000005AD ED 4Br37r00      [20] 1775 	ld	bc, (_g_SpriteAttributeLow)
                                   1776 ;C:\Users\reina\OneDrive\Documentos\MSXgl\engine/src/vdp.c:2059: low += (index * 4);
    000005B1 6B               [ 4] 1777 	ld	l, e
                                   1778 ;	spillPairReg hl
                                   1779 ;	spillPairReg hl
    000005B2 26 00            [ 7] 1780 	ld	h, #0x00
                                   1781 ;	spillPairReg hl
                                   1782 ;	spillPairReg hl
    000005B4 29               [11] 1783 	add	hl, hl
    000005B5 29               [11] 1784 	add	hl, hl
    000005B6 09               [11] 1785 	add	hl, bc
    000005B7 EB               [ 4] 1786 	ex	de, hl
                                   1787 ;C:\Users\reina\OneDrive\Documentos\MSXgl\engine/src/vdp.c:2060: VDP_WriteVRAM((u8*)&g_VDP_Sprite, low, g_SpriteAttributeHigh, 2);
    000005B8 21 02 00         [10] 1788 	ld	hl, #0x0002
    000005BB E5               [11] 1789 	push	hl
    000005BC 21r2Dr00         [10] 1790 	ld	hl, #_g_VDP_Sprite
    000005BF CDrA8r00         [17] 1791 	call	_VDP_WriteVRAM_16K
                                   1792 ;C:\Users\reina\OneDrive\Documentos\MSXgl\engine/src/vdp.c:2061: }
    000005C2 DD E1            [14] 1793 	pop	ix
    000005C4 E1               [10] 1794 	pop	hl
    000005C5 33               [ 6] 1795 	inc	sp
    000005C6 E9               [ 4] 1796 	jp	(hl)
                                   1797 ;C:\Users\reina\OneDrive\Documentos\MSXgl\engine/src/vdp.c:2065: void VDP_SetSpritePositionX(u8 index, u8 x)
                                   1798 ;	---------------------------------
                                   1799 ; Function VDP_SetSpritePositionX
                                   1800 ; ---------------------------------
    000005C7                       1801 _VDP_SetSpritePositionX::
    000005C7 47               [ 4] 1802 	ld	b, a
    000005C8 4D               [ 4] 1803 	ld	c, l
                                   1804 ;C:\Users\reina\OneDrive\Documentos\MSXgl\engine/src/vdp.c:2067: u16 low = g_SpriteAttributeLow;
    000005C9 ED 5Br37r00      [20] 1805 	ld	de, (_g_SpriteAttributeLow)
                                   1806 ;C:\Users\reina\OneDrive\Documentos\MSXgl\engine/src/vdp.c:2068: low += (index * 4);
    000005CD 68               [ 4] 1807 	ld	l, b
                                   1808 ;	spillPairReg hl
                                   1809 ;	spillPairReg hl
    000005CE 26 00            [ 7] 1810 	ld	h, #0x00
                                   1811 ;	spillPairReg hl
                                   1812 ;	spillPairReg hl
    000005D0 29               [11] 1813 	add	hl, hl
    000005D1 29               [11] 1814 	add	hl, hl
    000005D2 19               [11] 1815 	add	hl, de
    000005D3 EB               [ 4] 1816 	ex	de, hl
                                   1817 ;C:\Users\reina\OneDrive\Documentos\MSXgl\engine/src/vdp.c:2069: VDP_Poke(x, ++low, g_SpriteAttributeHigh);
    000005D4 13               [ 6] 1818 	inc	de
    000005D5 79               [ 4] 1819 	ld	a, c
                                   1820 ;C:\Users\reina\OneDrive\Documentos\MSXgl\engine/src/vdp.c:2070: }
    000005D6 C3r26r01         [10] 1821 	jp	_VDP_Poke_16K
                                   1822 ;C:\Users\reina\OneDrive\Documentos\MSXgl\engine/src/vdp.c:2074: void VDP_SetSpritePositionY(u8 index, u8 y)
                                   1823 ;	---------------------------------
                                   1824 ; Function VDP_SetSpritePositionY
                                   1825 ; ---------------------------------
    000005D9                       1826 _VDP_SetSpritePositionY::
    000005D9 47               [ 4] 1827 	ld	b, a
    000005DA 4D               [ 4] 1828 	ld	c, l
                                   1829 ;C:\Users\reina\OneDrive\Documentos\MSXgl\engine/src/vdp.c:2076: u16 low = g_SpriteAttributeLow;
    000005DB ED 5Br37r00      [20] 1830 	ld	de, (_g_SpriteAttributeLow)
                                   1831 ;C:\Users\reina\OneDrive\Documentos\MSXgl\engine/src/vdp.c:2077: low += (index * 4);
    000005DF 68               [ 4] 1832 	ld	l, b
                                   1833 ;	spillPairReg hl
                                   1834 ;	spillPairReg hl
    000005E0 26 00            [ 7] 1835 	ld	h, #0x00
                                   1836 ;	spillPairReg hl
                                   1837 ;	spillPairReg hl
    000005E2 29               [11] 1838 	add	hl, hl
    000005E3 29               [11] 1839 	add	hl, hl
    000005E4 19               [11] 1840 	add	hl, de
    000005E5 EB               [ 4] 1841 	ex	de, hl
                                   1842 ;C:\Users\reina\OneDrive\Documentos\MSXgl\engine/src/vdp.c:2078: VDP_Poke(y, low, g_SpriteAttributeHigh);
    000005E6 79               [ 4] 1843 	ld	a, c
                                   1844 ;C:\Users\reina\OneDrive\Documentos\MSXgl\engine/src/vdp.c:2079: }
    000005E7 C3r26r01         [10] 1845 	jp	_VDP_Poke_16K
                                   1846 ;C:\Users\reina\OneDrive\Documentos\MSXgl\engine/src/vdp.c:2083: void VDP_SetSpritePattern(u8 index, u8 shape)
                                   1847 ;	---------------------------------
                                   1848 ; Function VDP_SetSpritePattern
                                   1849 ; ---------------------------------
    000005EA                       1850 _VDP_SetSpritePattern::
    000005EA 47               [ 4] 1851 	ld	b, a
    000005EB 4D               [ 4] 1852 	ld	c, l
                                   1853 ;C:\Users\reina\OneDrive\Documentos\MSXgl\engine/src/vdp.c:2085: u16 low = g_SpriteAttributeLow + 2;
    000005EC ED 5Br37r00      [20] 1854 	ld	de, (_g_SpriteAttributeLow)
    000005F0 13               [ 6] 1855 	inc	de
    000005F1 13               [ 6] 1856 	inc	de
                                   1857 ;C:\Users\reina\OneDrive\Documentos\MSXgl\engine/src/vdp.c:2086: low += (index * 4);
    000005F2 68               [ 4] 1858 	ld	l, b
                                   1859 ;	spillPairReg hl
                                   1860 ;	spillPairReg hl
    000005F3 26 00            [ 7] 1861 	ld	h, #0x00
                                   1862 ;	spillPairReg hl
                                   1863 ;	spillPairReg hl
    000005F5 29               [11] 1864 	add	hl, hl
    000005F6 29               [11] 1865 	add	hl, hl
    000005F7 19               [11] 1866 	add	hl, de
    000005F8 EB               [ 4] 1867 	ex	de, hl
                                   1868 ;C:\Users\reina\OneDrive\Documentos\MSXgl\engine/src/vdp.c:2087: VDP_Poke(shape, low, g_SpriteAttributeHigh);
    000005F9 79               [ 4] 1869 	ld	a, c
                                   1870 ;C:\Users\reina\OneDrive\Documentos\MSXgl\engine/src/vdp.c:2088: }
    000005FA C3r26r01         [10] 1871 	jp	_VDP_Poke_16K
                                   1872 ;C:\Users\reina\OneDrive\Documentos\MSXgl\engine/src/vdp.c:2092: void VDP_SetSpriteColorSM1(u8 index, u8 color)
                                   1873 ;	---------------------------------
                                   1874 ; Function VDP_SetSpriteColorSM1
                                   1875 ; ---------------------------------
    000005FD                       1876 _VDP_SetSpriteColorSM1::
    000005FD 47               [ 4] 1877 	ld	b, a
    000005FE 4D               [ 4] 1878 	ld	c, l
                                   1879 ;C:\Users\reina\OneDrive\Documentos\MSXgl\engine/src/vdp.c:2094: u16 low = g_SpriteAttributeLow + 3;
    000005FF ED 5Br37r00      [20] 1880 	ld	de, (_g_SpriteAttributeLow)
    00000603 13               [ 6] 1881 	inc	de
    00000604 13               [ 6] 1882 	inc	de
    00000605 13               [ 6] 1883 	inc	de
                                   1884 ;C:\Users\reina\OneDrive\Documentos\MSXgl\engine/src/vdp.c:2095: low += (index * 4);
    00000606 68               [ 4] 1885 	ld	l, b
                                   1886 ;	spillPairReg hl
                                   1887 ;	spillPairReg hl
    00000607 26 00            [ 7] 1888 	ld	h, #0x00
                                   1889 ;	spillPairReg hl
                                   1890 ;	spillPairReg hl
    00000609 29               [11] 1891 	add	hl, hl
    0000060A 29               [11] 1892 	add	hl, hl
    0000060B 19               [11] 1893 	add	hl, de
    0000060C EB               [ 4] 1894 	ex	de, hl
                                   1895 ;C:\Users\reina\OneDrive\Documentos\MSXgl\engine/src/vdp.c:2096: VDP_Poke(color, low, g_SpriteAttributeHigh);
    0000060D 79               [ 4] 1896 	ld	a, c
                                   1897 ;C:\Users\reina\OneDrive\Documentos\MSXgl\engine/src/vdp.c:2097: }
    0000060E C3r26r01         [10] 1898 	jp	_VDP_Poke_16K
                                   1899 ;C:\Users\reina\OneDrive\Documentos\MSXgl\engine/src/vdp.c:2102: void VDP_SetSpriteUniColor(u8 index, u8 color)
                                   1900 ;	---------------------------------
                                   1901 ; Function VDP_SetSpriteUniColor
                                   1902 ; ---------------------------------
    00000611                       1903 _VDP_SetSpriteUniColor::
    00000611 47               [ 4] 1904 	ld	b, a
    00000612 4D               [ 4] 1905 	ld	c, l
                                   1906 ;C:\Users\reina\OneDrive\Documentos\MSXgl\engine/src/vdp.c:2104: u16 col = g_SpriteColorLow;
    00000613 ED 5Br3Br00      [20] 1907 	ld	de, (_g_SpriteColorLow)
                                   1908 ;C:\Users\reina\OneDrive\Documentos\MSXgl\engine/src/vdp.c:2105: col += (index * 16);
    00000617 68               [ 4] 1909 	ld	l, b
                                   1910 ;	spillPairReg hl
                                   1911 ;	spillPairReg hl
    00000618 26 00            [ 7] 1912 	ld	h, #0x00
                                   1913 ;	spillPairReg hl
                                   1914 ;	spillPairReg hl
    0000061A 29               [11] 1915 	add	hl, hl
    0000061B 29               [11] 1916 	add	hl, hl
    0000061C 29               [11] 1917 	add	hl, hl
    0000061D 29               [11] 1918 	add	hl, hl
    0000061E 19               [11] 1919 	add	hl, de
    0000061F EB               [ 4] 1920 	ex	de, hl
                                   1921 ;C:\Users\reina\OneDrive\Documentos\MSXgl\engine/src/vdp.c:2106: VDP_FillVRAM(color, col, g_SpriteColorHigh, VDP_SPRITE_COLORS);
    00000620 21 10 00         [10] 1922 	ld	hl, #0x0010
    00000623 E5               [11] 1923 	push	hl
    00000624 79               [ 4] 1924 	ld	a, c
    00000625 CDrD1r00         [17] 1925 	call	_VDP_FillVRAM_16K
                                   1926 ;C:\Users\reina\OneDrive\Documentos\MSXgl\engine/src/vdp.c:2107: }
    00000628 C9               [10] 1927 	ret
                                   1928 ;C:\Users\reina\OneDrive\Documentos\MSXgl\engine/src/vdp.c:2111: void VDP_SetSpriteMultiColor(u8 index, const u8* ram)
                                   1929 ;	---------------------------------
                                   1930 ; Function VDP_SetSpriteMultiColor
                                   1931 ; ---------------------------------
    00000629                       1932 _VDP_SetSpriteMultiColor::
    00000629 6F               [ 4] 1933 	ld	l, a
                                   1934 ;	spillPairReg hl
                                   1935 ;	spillPairReg hl
    0000062A 4B               [ 4] 1936 	ld	c, e
    0000062B 42               [ 4] 1937 	ld	b, d
                                   1938 ;C:\Users\reina\OneDrive\Documentos\MSXgl\engine/src/vdp.c:2113: u16 col = g_SpriteColorLow;
    0000062C ED 5Br3Br00      [20] 1939 	ld	de, (_g_SpriteColorLow)
                                   1940 ;C:\Users\reina\OneDrive\Documentos\MSXgl\engine/src/vdp.c:2114: col += (index * 16);
    00000630 26 00            [ 7] 1941 	ld	h, #0x00
                                   1942 ;	spillPairReg hl
                                   1943 ;	spillPairReg hl
    00000632 29               [11] 1944 	add	hl, hl
    00000633 29               [11] 1945 	add	hl, hl
    00000634 29               [11] 1946 	add	hl, hl
    00000635 29               [11] 1947 	add	hl, hl
    00000636 19               [11] 1948 	add	hl, de
    00000637 EB               [ 4] 1949 	ex	de, hl
                                   1950 ;C:\Users\reina\OneDrive\Documentos\MSXgl\engine/src/vdp.c:2115: VDP_WriteVRAM(ram, col, g_SpriteColorHigh, VDP_SPRITE_COLORS);	
    00000638 21 10 00         [10] 1951 	ld	hl, #0x0010
    0000063B E5               [11] 1952 	push	hl
    0000063C 69               [ 4] 1953 	ld	l, c
                                   1954 ;	spillPairReg hl
                                   1955 ;	spillPairReg hl
    0000063D 60               [ 4] 1956 	ld	h, b
                                   1957 ;	spillPairReg hl
                                   1958 ;	spillPairReg hl
    0000063E CDrA8r00         [17] 1959 	call	_VDP_WriteVRAM_16K
                                   1960 ;C:\Users\reina\OneDrive\Documentos\MSXgl\engine/src/vdp.c:2116: }
    00000641 C9               [10] 1961 	ret
                                   1962 ;C:\Users\reina\OneDrive\Documentos\MSXgl\engine/src/vdp.c:2120: void VDP_SetSpriteData(u8 index, const u8* data)
                                   1963 ;	---------------------------------
                                   1964 ; Function VDP_SetSpriteData
                                   1965 ; ---------------------------------
    00000642                       1966 _VDP_SetSpriteData::
    00000642 6F               [ 4] 1967 	ld	l, a
                                   1968 ;	spillPairReg hl
                                   1969 ;	spillPairReg hl
    00000643 4B               [ 4] 1970 	ld	c, e
    00000644 42               [ 4] 1971 	ld	b, d
                                   1972 ;C:\Users\reina\OneDrive\Documentos\MSXgl\engine/src/vdp.c:2122: u16 low = g_SpriteAttributeLow;
    00000645 ED 5Br37r00      [20] 1973 	ld	de, (_g_SpriteAttributeLow)
                                   1974 ;C:\Users\reina\OneDrive\Documentos\MSXgl\engine/src/vdp.c:2123: low += (index * 4);
    00000649 26 00            [ 7] 1975 	ld	h, #0x00
                                   1976 ;	spillPairReg hl
                                   1977 ;	spillPairReg hl
    0000064B 29               [11] 1978 	add	hl, hl
    0000064C 29               [11] 1979 	add	hl, hl
    0000064D 19               [11] 1980 	add	hl, de
    0000064E EB               [ 4] 1981 	ex	de, hl
                                   1982 ;C:\Users\reina\OneDrive\Documentos\MSXgl\engine/src/vdp.c:2124: VDP_WriteVRAM(data, low, g_SpriteAttributeHigh, 3);
    0000064F 21 03 00         [10] 1983 	ld	hl, #0x0003
    00000652 E5               [11] 1984 	push	hl
    00000653 69               [ 4] 1985 	ld	l, c
                                   1986 ;	spillPairReg hl
                                   1987 ;	spillPairReg hl
    00000654 60               [ 4] 1988 	ld	h, b
                                   1989 ;	spillPairReg hl
                                   1990 ;	spillPairReg hl
    00000655 CDrA8r00         [17] 1991 	call	_VDP_WriteVRAM_16K
                                   1992 ;C:\Users\reina\OneDrive\Documentos\MSXgl\engine/src/vdp.c:2125: }
    00000658 C9               [10] 1993 	ret
                                   1994 ;C:\Users\reina\OneDrive\Documentos\MSXgl\engine/src/vdp.c:2130: void VDP_DisableSpritesFrom(u8 index)
                                   1995 ;	---------------------------------
                                   1996 ; Function VDP_DisableSpritesFrom
                                   1997 ; ---------------------------------
    00000659                       1998 _VDP_DisableSpritesFrom::
    00000659 4F               [ 4] 1999 	ld	c, a
                                   2000 ;C:\Users\reina\OneDrive\Documentos\MSXgl\engine/src/vdp.c:2132: u8 y = VDP_SPRITE_DISABLE_SM1;
    0000065A 06 D0            [ 7] 2001 	ld	b, #0xd0
                                   2002 ;C:\Users\reina\OneDrive\Documentos\MSXgl\engine/src/vdp.c:2134: if(g_VDP_Data.Mode >= VDP_MODE_MSX2) // MSX2 modes
    0000065C 3Ar1Cr00         [13] 2003 	ld	a, (#_g_VDP_Data + 0)
    0000065F D6 04            [ 7] 2004 	sub	a, #0x04
    00000661 38 02            [12] 2005 	jr	C, 00102$
                                   2006 ;C:\Users\reina\OneDrive\Documentos\MSXgl\engine/src/vdp.c:2135: y = VDP_SPRITE_DISABLE_SM2;
    00000663 06 D8            [ 7] 2007 	ld	b, #0xd8
    00000665                       2008 00102$:
                                   2009 ;C:\Users\reina\OneDrive\Documentos\MSXgl\engine/src/vdp.c:2137: VDP_SetSpritePositionY(index, y);
    00000665 68               [ 4] 2010 	ld	l, b
                                   2011 ;	spillPairReg hl
                                   2012 ;	spillPairReg hl
    00000666 79               [ 4] 2013 	ld	a, c
                                   2014 ;C:\Users\reina\OneDrive\Documentos\MSXgl\engine/src/vdp.c:2138: }
    00000667 C3rD9r05         [10] 2015 	jp	_VDP_SetSpritePositionY
                                   2016 ;C:\Users\reina\OneDrive\Documentos\MSXgl\engine/src/vdp.c:2212: void VDP_LoadPattern_GM2(const u8* src, u8 count, u8 offset)
                                   2017 ;	---------------------------------
                                   2018 ; Function VDP_LoadPattern_GM2
                                   2019 ; ---------------------------------
    0000066A                       2020 _VDP_LoadPattern_GM2::
    0000066A DD E5            [15] 2021 	push	ix
    0000066C DD 21 00 00      [14] 2022 	ld	ix,#0
    00000670 DD 39            [15] 2023 	add	ix,sp
                                   2024 ;C:\Users\reina\OneDrive\Documentos\MSXgl\engine/src/vdp.c:2214: u16 dst = g_ScreenPatternLow + (offset * 8);
    00000672 DD 5E 05         [19] 2025 	ld	e, 5 (ix)
    00000675 16 00            [ 7] 2026 	ld	d, #0x00
    00000677 EB               [ 4] 2027 	ex	de, hl
    00000678 29               [11] 2028 	add	hl, hl
    00000679 29               [11] 2029 	add	hl, hl
    0000067A 29               [11] 2030 	add	hl, hl
    0000067B EB               [ 4] 2031 	ex	de, hl
    0000067C FD 2Ar35r00      [20] 2032 	ld	iy, (_g_ScreenPatternLow)
    00000680 FD 19            [15] 2033 	add	iy, de
                                   2034 ;C:\Users\reina\OneDrive\Documentos\MSXgl\engine/src/vdp.c:2215: VDP_WriteVRAM(src, dst, g_ScreenPatternHigh, count * 8);
    00000682 DD 5E 04         [19] 2035 	ld	e, 4 (ix)
    00000685 16 00            [ 7] 2036 	ld	d, #0x00
    00000687 EB               [ 4] 2037 	ex	de, hl
    00000688 29               [11] 2038 	add	hl, hl
    00000689 29               [11] 2039 	add	hl, hl
    0000068A 29               [11] 2040 	add	hl, hl
    0000068B EB               [ 4] 2041 	ex	de, hl
    0000068C 4B               [ 4] 2042 	ld	c, e
    0000068D 42               [ 4] 2043 	ld	b, d
    0000068E E5               [11] 2044 	push	hl
    0000068F C5               [11] 2045 	push	bc
    00000690 FD E5            [15] 2046 	push	iy
    00000692 C5               [11] 2047 	push	bc
    00000693 FD E5            [15] 2048 	push	iy
    00000695 D1               [10] 2049 	pop	de
    00000696 CDrA8r00         [17] 2050 	call	_VDP_WriteVRAM_16K
    00000699 FD E1            [14] 2051 	pop	iy
    0000069B C1               [10] 2052 	pop	bc
    0000069C E1               [10] 2053 	pop	hl
                                   2054 ;C:\Users\reina\OneDrive\Documentos\MSXgl\engine/src/vdp.c:2216: dst += 0x800;
    0000069D 11 00 08         [10] 2055 	ld	de, #0x0800
    000006A0 FD 19            [15] 2056 	add	iy, de
                                   2057 ;C:\Users\reina\OneDrive\Documentos\MSXgl\engine/src/vdp.c:2217: VDP_WriteVRAM(src, dst, g_ScreenPatternHigh, count * 8);
    000006A2 E5               [11] 2058 	push	hl
    000006A3 C5               [11] 2059 	push	bc
    000006A4 FD E5            [15] 2060 	push	iy
    000006A6 C5               [11] 2061 	push	bc
    000006A7 FD E5            [15] 2062 	push	iy
    000006A9 D1               [10] 2063 	pop	de
    000006AA CDrA8r00         [17] 2064 	call	_VDP_WriteVRAM_16K
    000006AD FD E1            [14] 2065 	pop	iy
    000006AF C1               [10] 2066 	pop	bc
    000006B0 E1               [10] 2067 	pop	hl
                                   2068 ;C:\Users\reina\OneDrive\Documentos\MSXgl\engine/src/vdp.c:2218: dst += 0x800;
    000006B1 FD E5            [15] 2069 	push	iy
    000006B3 D1               [10] 2070 	pop	de
    000006B4 7A               [ 4] 2071 	ld	a, d
    000006B5 C6 08            [ 7] 2072 	add	a, #0x08
    000006B7 57               [ 4] 2073 	ld	d, a
                                   2074 ;C:\Users\reina\OneDrive\Documentos\MSXgl\engine/src/vdp.c:2219: VDP_WriteVRAM(src, dst, g_ScreenPatternHigh, count * 8);
    000006B8 C5               [11] 2075 	push	bc
    000006B9 CDrA8r00         [17] 2076 	call	_VDP_WriteVRAM_16K
                                   2077 ;C:\Users\reina\OneDrive\Documentos\MSXgl\engine/src/vdp.c:2220: }
    000006BC DD E1            [14] 2078 	pop	ix
    000006BE E1               [10] 2079 	pop	hl
    000006BF F1               [10] 2080 	pop	af
    000006C0 E9               [ 4] 2081 	jp	(hl)
                                   2082 ;C:\Users\reina\OneDrive\Documentos\MSXgl\engine/src/vdp.c:2224: void VDP_LoadColor_GM2(const u8* src, u8 count, u8 offset)
                                   2083 ;	---------------------------------
                                   2084 ; Function VDP_LoadColor_GM2
                                   2085 ; ---------------------------------
    000006C1                       2086 _VDP_LoadColor_GM2::
    000006C1 DD E5            [15] 2087 	push	ix
    000006C3 DD 21 00 00      [14] 2088 	ld	ix,#0
    000006C7 DD 39            [15] 2089 	add	ix,sp
                                   2090 ;C:\Users\reina\OneDrive\Documentos\MSXgl\engine/src/vdp.c:2226: u16 dst = g_ScreenColorLow + (offset * 8);
    000006C9 DD 5E 05         [19] 2091 	ld	e, 5 (ix)
    000006CC 16 00            [ 7] 2092 	ld	d, #0x00
    000006CE EB               [ 4] 2093 	ex	de, hl
    000006CF 29               [11] 2094 	add	hl, hl
    000006D0 29               [11] 2095 	add	hl, hl
    000006D1 29               [11] 2096 	add	hl, hl
    000006D2 EB               [ 4] 2097 	ex	de, hl
    000006D3 FD 2Ar33r00      [20] 2098 	ld	iy, (_g_ScreenColorLow)
    000006D7 FD 19            [15] 2099 	add	iy, de
                                   2100 ;C:\Users\reina\OneDrive\Documentos\MSXgl\engine/src/vdp.c:2227: VDP_WriteVRAM(src, dst, g_ScreenColorHigh, count * 8);
    000006D9 DD 5E 04         [19] 2101 	ld	e, 4 (ix)
    000006DC 16 00            [ 7] 2102 	ld	d, #0x00
    000006DE EB               [ 4] 2103 	ex	de, hl
    000006DF 29               [11] 2104 	add	hl, hl
    000006E0 29               [11] 2105 	add	hl, hl
    000006E1 29               [11] 2106 	add	hl, hl
    000006E2 EB               [ 4] 2107 	ex	de, hl
    000006E3 4B               [ 4] 2108 	ld	c, e
    000006E4 42               [ 4] 2109 	ld	b, d
    000006E5 E5               [11] 2110 	push	hl
    000006E6 C5               [11] 2111 	push	bc
    000006E7 FD E5            [15] 2112 	push	iy
    000006E9 C5               [11] 2113 	push	bc
    000006EA FD E5            [15] 2114 	push	iy
    000006EC D1               [10] 2115 	pop	de
    000006ED CDrA8r00         [17] 2116 	call	_VDP_WriteVRAM_16K
    000006F0 FD E1            [14] 2117 	pop	iy
    000006F2 C1               [10] 2118 	pop	bc
    000006F3 E1               [10] 2119 	pop	hl
                                   2120 ;C:\Users\reina\OneDrive\Documentos\MSXgl\engine/src/vdp.c:2228: dst += 0x800;
    000006F4 11 00 08         [10] 2121 	ld	de, #0x0800
    000006F7 FD 19            [15] 2122 	add	iy, de
                                   2123 ;C:\Users\reina\OneDrive\Documentos\MSXgl\engine/src/vdp.c:2229: VDP_WriteVRAM(src, dst, g_ScreenColorHigh, count * 8);
    000006F9 E5               [11] 2124 	push	hl
    000006FA C5               [11] 2125 	push	bc
    000006FB FD E5            [15] 2126 	push	iy
    000006FD C5               [11] 2127 	push	bc
    000006FE FD E5            [15] 2128 	push	iy
    00000700 D1               [10] 2129 	pop	de
    00000701 CDrA8r00         [17] 2130 	call	_VDP_WriteVRAM_16K
    00000704 FD E1            [14] 2131 	pop	iy
    00000706 C1               [10] 2132 	pop	bc
    00000707 E1               [10] 2133 	pop	hl
                                   2134 ;C:\Users\reina\OneDrive\Documentos\MSXgl\engine/src/vdp.c:2230: dst += 0x800;
    00000708 FD E5            [15] 2135 	push	iy
    0000070A D1               [10] 2136 	pop	de
    0000070B 7A               [ 4] 2137 	ld	a, d
    0000070C C6 08            [ 7] 2138 	add	a, #0x08
    0000070E 57               [ 4] 2139 	ld	d, a
                                   2140 ;C:\Users\reina\OneDrive\Documentos\MSXgl\engine/src/vdp.c:2231: VDP_WriteVRAM(src, dst, g_ScreenColorHigh, count * 8);
    0000070F C5               [11] 2141 	push	bc
    00000710 CDrA8r00         [17] 2142 	call	_VDP_WriteVRAM_16K
                                   2143 ;C:\Users\reina\OneDrive\Documentos\MSXgl\engine/src/vdp.c:2232: }
    00000713 DD E1            [14] 2144 	pop	ix
    00000715 E1               [10] 2145 	pop	hl
    00000716 F1               [10] 2146 	pop	af
    00000717 E9               [ 4] 2147 	jp	(hl)
                                   2148 ;C:\Users\reina\OneDrive\Documentos\MSXgl\engine/src/vdp.c:2236: void VDP_WriteLayout_GM2(const u8* src, u8 dx, u8 dy, u8 nx, u8 ny)
                                   2149 ;	---------------------------------
                                   2150 ; Function VDP_WriteLayout_GM2
                                   2151 ; ---------------------------------
    00000718                       2152 _VDP_WriteLayout_GM2::
    00000718 DD E5            [15] 2153 	push	ix
    0000071A DD 21 00 00      [14] 2154 	ld	ix,#0
    0000071E DD 39            [15] 2155 	add	ix,sp
    00000720 3B               [ 6] 2156 	dec	sp
    00000721 4D               [ 4] 2157 	ld	c, l
    00000722 44               [ 4] 2158 	ld	b, h
                                   2159 ;C:\Users\reina\OneDrive\Documentos\MSXgl\engine/src/vdp.c:2238: u16 dst = g_ScreenLayoutLow + (dy * 32) + dx;
    00000723 DD 6E 05         [19] 2160 	ld	l, 5 (ix)
                                   2161 ;	spillPairReg hl
                                   2162 ;	spillPairReg hl
    00000726 26 00            [ 7] 2163 	ld	h, #0x00
                                   2164 ;	spillPairReg hl
                                   2165 ;	spillPairReg hl
    00000728 29               [11] 2166 	add	hl, hl
    00000729 29               [11] 2167 	add	hl, hl
    0000072A 29               [11] 2168 	add	hl, hl
    0000072B 29               [11] 2169 	add	hl, hl
    0000072C 29               [11] 2170 	add	hl, hl
    0000072D ED 5Br31r00      [20] 2171 	ld	de, (_g_ScreenLayoutLow)
    00000731 19               [11] 2172 	add	hl, de
    00000732 DD 5E 04         [19] 2173 	ld	e, 4 (ix)
    00000735 16 00            [ 7] 2174 	ld	d, #0x00
    00000737 19               [11] 2175 	add	hl, de
                                   2176 ;C:\Users\reina\OneDrive\Documentos\MSXgl\engine/src/vdp.c:2239: for(u8 y = 0; y < ny; ++y)
    00000738 DD 36 FF 00      [19] 2177 	ld	-1 (ix), #0x00
    0000073C                       2178 00103$:
    0000073C DD 7E FF         [19] 2179 	ld	a, -1 (ix)
    0000073F DD 96 07         [19] 2180 	sub	a, 7 (ix)
    00000742 30 22            [12] 2181 	jr	NC, 00105$
                                   2182 ;C:\Users\reina\OneDrive\Documentos\MSXgl\engine/src/vdp.c:2241: VDP_WriteVRAM(src, dst, g_ScreenLayoutHigh, nx);
    00000744 DD 5E 06         [19] 2183 	ld	e, 6 (ix)
    00000747 16 00            [ 7] 2184 	ld	d, #0x00
    00000749 E5               [11] 2185 	push	hl
    0000074A C5               [11] 2186 	push	bc
    0000074B EB               [ 4] 2187 	ex	de, hl
    0000074C E5               [11] 2188 	push	hl
    0000074D 69               [ 4] 2189 	ld	l, c
                                   2190 ;	spillPairReg hl
                                   2191 ;	spillPairReg hl
    0000074E 60               [ 4] 2192 	ld	h, b
                                   2193 ;	spillPairReg hl
                                   2194 ;	spillPairReg hl
    0000074F CDrA8r00         [17] 2195 	call	_VDP_WriteVRAM_16K
    00000752 C1               [10] 2196 	pop	bc
    00000753 E1               [10] 2197 	pop	hl
                                   2198 ;C:\Users\reina\OneDrive\Documentos\MSXgl\engine/src/vdp.c:2242: src += nx;
    00000754 79               [ 4] 2199 	ld	a, c
    00000755 DD 86 06         [19] 2200 	add	a, 6 (ix)
    00000758 4F               [ 4] 2201 	ld	c, a
    00000759 30 01            [12] 2202 	jr	NC, 00118$
    0000075B 04               [ 4] 2203 	inc	b
    0000075C                       2204 00118$:
                                   2205 ;C:\Users\reina\OneDrive\Documentos\MSXgl\engine/src/vdp.c:2243: dst += 32;
    0000075C 11 20 00         [10] 2206 	ld	de, #0x0020
    0000075F 19               [11] 2207 	add	hl, de
                                   2208 ;C:\Users\reina\OneDrive\Documentos\MSXgl\engine/src/vdp.c:2239: for(u8 y = 0; y < ny; ++y)
    00000760 DD 34 FF         [23] 2209 	inc	-1 (ix)
    00000763 C3r3Cr07         [10] 2210 	jp	00103$
    00000766                       2211 00105$:
                                   2212 ;C:\Users\reina\OneDrive\Documentos\MSXgl\engine/src/vdp.c:2245: }
    00000766 33               [ 6] 2213 	inc	sp
    00000767 DD E1            [14] 2214 	pop	ix
    00000769 E1               [10] 2215 	pop	hl
    0000076A F1               [10] 2216 	pop	af
    0000076B F1               [10] 2217 	pop	af
    0000076C E9               [ 4] 2218 	jp	(hl)
                                   2219 ;C:\Users\reina\OneDrive\Documentos\MSXgl\engine/src/vdp.c:2249: void VDP_FillLayout_GM2(u8 value, u8 dx, u8 dy, u8 nx, u8 ny)
                                   2220 ;	---------------------------------
                                   2221 ; Function VDP_FillLayout_GM2
                                   2222 ; ---------------------------------
    0000076D                       2223 _VDP_FillLayout_GM2::
    0000076D DD E5            [15] 2224 	push	ix
    0000076F DD 21 00 00      [14] 2225 	ld	ix,#0
    00000773 DD 39            [15] 2226 	add	ix,sp
    00000775 4F               [ 4] 2227 	ld	c, a
    00000776 45               [ 4] 2228 	ld	b, l
                                   2229 ;C:\Users\reina\OneDrive\Documentos\MSXgl\engine/src/vdp.c:2251: u16 dst = g_ScreenLayoutLow + (dy * 32) + dx;
    00000777 DD 6E 04         [19] 2230 	ld	l, 4 (ix)
                                   2231 ;	spillPairReg hl
                                   2232 ;	spillPairReg hl
    0000077A 26 00            [ 7] 2233 	ld	h, #0x00
                                   2234 ;	spillPairReg hl
                                   2235 ;	spillPairReg hl
    0000077C 29               [11] 2236 	add	hl, hl
    0000077D 29               [11] 2237 	add	hl, hl
    0000077E 29               [11] 2238 	add	hl, hl
    0000077F 29               [11] 2239 	add	hl, hl
    00000780 29               [11] 2240 	add	hl, hl
    00000781 ED 5Br31r00      [20] 2241 	ld	de, (_g_ScreenLayoutLow)
    00000785 19               [11] 2242 	add	hl, de
    00000786 58               [ 4] 2243 	ld	e, b
    00000787 16 00            [ 7] 2244 	ld	d, #0x00
    00000789 19               [11] 2245 	add	hl, de
                                   2246 ;C:\Users\reina\OneDrive\Documentos\MSXgl\engine/src/vdp.c:2252: for(u8 y = 0; y < ny; ++y)
    0000078A 06 00            [ 7] 2247 	ld	b, #0x00
    0000078C                       2248 00103$:
    0000078C 78               [ 4] 2249 	ld	a, b
    0000078D DD 96 06         [19] 2250 	sub	a, 6 (ix)
    00000790 30 17            [12] 2251 	jr	NC, 00105$
                                   2252 ;C:\Users\reina\OneDrive\Documentos\MSXgl\engine/src/vdp.c:2254: VDP_FillVRAM(value, dst, g_ScreenLayoutHigh, nx);
    00000792 DD 5E 05         [19] 2253 	ld	e, 5 (ix)
    00000795 16 00            [ 7] 2254 	ld	d, #0x00
    00000797 E5               [11] 2255 	push	hl
    00000798 C5               [11] 2256 	push	bc
    00000799 EB               [ 4] 2257 	ex	de, hl
    0000079A E5               [11] 2258 	push	hl
    0000079B 79               [ 4] 2259 	ld	a, c
    0000079C CDrD1r00         [17] 2260 	call	_VDP_FillVRAM_16K
    0000079F C1               [10] 2261 	pop	bc
    000007A0 E1               [10] 2262 	pop	hl
                                   2263 ;C:\Users\reina\OneDrive\Documentos\MSXgl\engine/src/vdp.c:2255: dst += 32;
    000007A1 11 20 00         [10] 2264 	ld	de, #0x0020
    000007A4 19               [11] 2265 	add	hl, de
                                   2266 ;C:\Users\reina\OneDrive\Documentos\MSXgl\engine/src/vdp.c:2252: for(u8 y = 0; y < ny; ++y)
    000007A5 04               [ 4] 2267 	inc	b
    000007A6 C3r8Cr07         [10] 2268 	jp	00103$
    000007A9                       2269 00105$:
                                   2270 ;C:\Users\reina\OneDrive\Documentos\MSXgl\engine/src/vdp.c:2257: }
    000007A9 DD E1            [14] 2271 	pop	ix
    000007AB E1               [10] 2272 	pop	hl
    000007AC F1               [10] 2273 	pop	af
    000007AD 33               [ 6] 2274 	inc	sp
    000007AE E9               [ 4] 2275 	jp	(hl)
                                   2276 	.area _CODE
                                   2277 	.area _INITIALIZER
    00000000                       2278 __xinit__g_VDPInitilized:
    00000000 00                    2279 	.db #0x00	; 0
                                   2280 	.area _CABS (ABS)
